; ModuleID = 'cuda_src/csrc/flash_attn/src/flash_fwd_hdim256_bf16_causal_sm80.cu'
source_filename = "cuda_src/csrc/flash_attn/src/flash_fwd_hdim256_bf16_causal_sm80.cu"
target datalayout = "e-m:e-p270:32:32-p271:32:32-p272:64:64-i64:64-i128:128-f80:128-n8:16:32:64-S128"
target triple = "x86_64-unknown-linux-gnu"

%"class.std::ios_base::Init" = type { i8 }
%struct.Flash_fwd_params = type <{ %struct.Qkv_params, ptr, ptr, i64, i64, i64, ptr, ptr, ptr, i32, i32, i32, i32, i32, i32, i32, i32, i32, i32, float, float, ptr, ptr, ptr, ptr, ptr, ptr, ptr, i64, i64, i64, i64, i64, i64, ptr, ptr, ptr, ptr, i64, i32, float, i8, [3 x i8], float, float, i32, i32, float, %"struct.at::PhiloxCudaState", ptr, i8, i8, i8, i8, i32, ptr, i64, i8, i8, [6 x i8] }>
%struct.Qkv_params = type { ptr, ptr, ptr, i64, i64, i64, i64, i64, i64, i64, i64, i64, i32, i32, i32 }
%"struct.at::PhiloxCudaState" = type <{ %"union.at::PhiloxCudaState::Payload", %"union.at::PhiloxCudaState::Payload", i32, i8, [3 x i8] }>
%"union.at::PhiloxCudaState::Payload" = type { i64 }
%class.anon.170 = type { ptr, ptr, ptr, ptr }
%class.anon.125 = type { ptr, ptr, ptr, ptr }
%class.anon.77 = type { ptr, ptr, ptr, ptr }
%class.anon.32 = type { ptr, ptr, ptr, ptr }
%struct.dim3 = type { i32, i32, i32 }
%class.anon.359 = type { ptr, ptr, ptr, ptr }
%class.anon.314 = type { ptr, ptr, ptr, ptr }
%class.anon.266 = type { ptr, ptr, ptr, ptr }
%class.anon.221 = type { ptr, ptr, ptr, ptr }
%class.anon.51 = type { ptr, ptr, ptr }
%class.anon.52 = type { ptr, ptr, ptr }
%class.anon.48 = type { ptr, ptr, ptr }
%class.anon.49 = type { ptr, ptr, ptr }
%class.anon.42 = type { ptr, ptr, ptr }
%class.anon.43 = type { ptr, ptr, ptr }
%class.anon.39 = type { ptr, ptr, ptr }
%class.anon.40 = type { ptr, ptr, ptr }
%class.anon.96 = type { ptr, ptr, ptr }
%class.anon.97 = type { ptr, ptr, ptr }
%class.anon.93 = type { ptr, ptr, ptr }
%class.anon.94 = type { ptr, ptr, ptr }
%class.anon.87 = type { ptr, ptr, ptr }
%class.anon.88 = type { ptr, ptr, ptr }
%class.anon.84 = type { ptr, ptr, ptr }
%class.anon.85 = type { ptr, ptr, ptr }
%class.anon.144 = type { ptr, ptr, ptr }
%class.anon.145 = type { ptr, ptr, ptr }
%class.anon.141 = type { ptr, ptr, ptr }
%class.anon.142 = type { ptr, ptr, ptr }
%class.anon.135 = type { ptr, ptr, ptr }
%class.anon.136 = type { ptr, ptr, ptr }
%class.anon.132 = type { ptr, ptr, ptr }
%class.anon.133 = type { ptr, ptr, ptr }
%class.anon.189 = type { ptr, ptr, ptr }
%class.anon.190 = type { ptr, ptr, ptr }
%class.anon.186 = type { ptr, ptr, ptr }
%class.anon.187 = type { ptr, ptr, ptr }
%class.anon.180 = type { ptr, ptr, ptr }
%class.anon.181 = type { ptr, ptr, ptr }
%class.anon.177 = type { ptr, ptr, ptr }
%class.anon.178 = type { ptr, ptr, ptr }
%class.anon.240 = type { ptr, ptr, ptr }
%class.anon.241 = type { ptr, ptr, ptr }
%class.anon.237 = type { ptr, ptr, ptr }
%class.anon.238 = type { ptr, ptr, ptr }
%class.anon.231 = type { ptr, ptr, ptr }
%class.anon.232 = type { ptr, ptr, ptr }
%class.anon.228 = type { ptr, ptr, ptr }
%class.anon.229 = type { ptr, ptr, ptr }
%class.anon.285 = type { ptr, ptr, ptr }
%class.anon.286 = type { ptr, ptr, ptr }
%class.anon.282 = type { ptr, ptr, ptr }
%class.anon.283 = type { ptr, ptr, ptr }
%class.anon.276 = type { ptr, ptr, ptr }
%class.anon.277 = type { ptr, ptr, ptr }
%class.anon.273 = type { ptr, ptr, ptr }
%class.anon.274 = type { ptr, ptr, ptr }
%class.anon.333 = type { ptr, ptr, ptr }
%class.anon.334 = type { ptr, ptr, ptr }
%class.anon.330 = type { ptr, ptr, ptr }
%class.anon.331 = type { ptr, ptr, ptr }
%class.anon.324 = type { ptr, ptr, ptr }
%class.anon.325 = type { ptr, ptr, ptr }
%class.anon.321 = type { ptr, ptr, ptr }
%class.anon.322 = type { ptr, ptr, ptr }
%class.anon.378 = type { ptr, ptr, ptr }
%class.anon.379 = type { ptr, ptr, ptr }
%class.anon.375 = type { ptr, ptr, ptr }
%class.anon.376 = type { ptr, ptr, ptr }
%class.anon.369 = type { ptr, ptr, ptr }
%class.anon.370 = type { ptr, ptr, ptr }
%class.anon.366 = type { ptr, ptr, ptr }
%class.anon.367 = type { ptr, ptr, ptr }
%class.anon.548 = type { ptr, ptr, ptr, ptr }
%class.anon.503 = type { ptr, ptr, ptr, ptr }
%class.anon.455 = type { ptr, ptr, ptr, ptr }
%class.anon.410 = type { ptr, ptr, ptr, ptr }
%class.anon.737 = type { ptr, ptr, ptr, ptr }
%class.anon.692 = type { ptr, ptr, ptr, ptr }
%class.anon.644 = type { ptr, ptr, ptr, ptr }
%class.anon.599 = type { ptr, ptr, ptr, ptr }
%class.anon.429 = type { ptr, ptr, ptr }
%class.anon.430 = type { ptr, ptr, ptr }
%class.anon.426 = type { ptr, ptr, ptr }
%class.anon.427 = type { ptr, ptr, ptr }
%class.anon.420 = type { ptr, ptr, ptr }
%class.anon.421 = type { ptr, ptr, ptr }
%class.anon.417 = type { ptr, ptr, ptr }
%class.anon.418 = type { ptr, ptr, ptr }
%class.anon.474 = type { ptr, ptr, ptr }
%class.anon.475 = type { ptr, ptr, ptr }
%class.anon.471 = type { ptr, ptr, ptr }
%class.anon.472 = type { ptr, ptr, ptr }
%class.anon.465 = type { ptr, ptr, ptr }
%class.anon.466 = type { ptr, ptr, ptr }
%class.anon.462 = type { ptr, ptr, ptr }
%class.anon.463 = type { ptr, ptr, ptr }
%class.anon.522 = type { ptr, ptr, ptr }
%class.anon.523 = type { ptr, ptr, ptr }
%class.anon.519 = type { ptr, ptr, ptr }
%class.anon.520 = type { ptr, ptr, ptr }
%class.anon.513 = type { ptr, ptr, ptr }
%class.anon.514 = type { ptr, ptr, ptr }
%class.anon.510 = type { ptr, ptr, ptr }
%class.anon.511 = type { ptr, ptr, ptr }
%class.anon.567 = type { ptr, ptr, ptr }
%class.anon.568 = type { ptr, ptr, ptr }
%class.anon.564 = type { ptr, ptr, ptr }
%class.anon.565 = type { ptr, ptr, ptr }
%class.anon.558 = type { ptr, ptr, ptr }
%class.anon.559 = type { ptr, ptr, ptr }
%class.anon.555 = type { ptr, ptr, ptr }
%class.anon.556 = type { ptr, ptr, ptr }
%class.anon.618 = type { ptr, ptr, ptr }
%class.anon.619 = type { ptr, ptr, ptr }
%class.anon.615 = type { ptr, ptr, ptr }
%class.anon.616 = type { ptr, ptr, ptr }
%class.anon.609 = type { ptr, ptr, ptr }
%class.anon.610 = type { ptr, ptr, ptr }
%class.anon.606 = type { ptr, ptr, ptr }
%class.anon.607 = type { ptr, ptr, ptr }
%class.anon.663 = type { ptr, ptr, ptr }
%class.anon.664 = type { ptr, ptr, ptr }
%class.anon.660 = type { ptr, ptr, ptr }
%class.anon.661 = type { ptr, ptr, ptr }
%class.anon.654 = type { ptr, ptr, ptr }
%class.anon.655 = type { ptr, ptr, ptr }
%class.anon.651 = type { ptr, ptr, ptr }
%class.anon.652 = type { ptr, ptr, ptr }
%class.anon.711 = type { ptr, ptr, ptr }
%class.anon.712 = type { ptr, ptr, ptr }
%class.anon.708 = type { ptr, ptr, ptr }
%class.anon.709 = type { ptr, ptr, ptr }
%class.anon.702 = type { ptr, ptr, ptr }
%class.anon.703 = type { ptr, ptr, ptr }
%class.anon.699 = type { ptr, ptr, ptr }
%class.anon.700 = type { ptr, ptr, ptr }
%class.anon.756 = type { ptr, ptr, ptr }
%class.anon.757 = type { ptr, ptr, ptr }
%class.anon.753 = type { ptr, ptr, ptr }
%class.anon.754 = type { ptr, ptr, ptr }
%class.anon.747 = type { ptr, ptr, ptr }
%class.anon.748 = type { ptr, ptr, ptr }
%class.anon.744 = type { ptr, ptr, ptr }
%class.anon.745 = type { ptr, ptr, ptr }

$_Z19run_mha_fwd_hdim256IN7cutlass10bfloat16_tELb1EEvR16Flash_fwd_paramsP11CUstream_st = comdat any

$_Z13run_flash_fwdI23Flash_fwd_kernel_traitsILi256ELi128ELi64ELi8ELb0ELb0EN7cutlass10bfloat16_tE19Flash_kernel_traitsILi256ELi128ELi64ELi8ES2_EELb1ELb1EEvR16Flash_fwd_paramsP11CUstream_st = comdat any

$_Z13run_flash_fwdI23Flash_fwd_kernel_traitsILi256ELi64ELi64ELi4ELb0ELb0EN7cutlass10bfloat16_tE19Flash_kernel_traitsILi256ELi64ELi64ELi4ES2_EELb1ELb1EEvR16Flash_fwd_paramsP11CUstream_st = comdat any

$_Z31__device_stub__flash_fwd_kernelI23Flash_fwd_kernel_traitsILi256ELi128ELi64ELi8ELb0ELb0EN7cutlass10bfloat16_tE19Flash_kernel_traitsILi256ELi128ELi64ELi8ES2_EELb0ELb1ELb0ELb1ELb0ELb1ELb1ELb0EEv16Flash_fwd_params = comdat any

$_Z31__device_stub__flash_fwd_kernelI23Flash_fwd_kernel_traitsILi256ELi128ELi64ELi8ELb0ELb0EN7cutlass10bfloat16_tE19Flash_kernel_traitsILi256ELi128ELi64ELi8ES2_EELb1ELb1ELb0ELb1ELb0ELb1ELb0ELb1EEv16Flash_fwd_params = comdat any

$_Z31__device_stub__flash_fwd_kernelI23Flash_fwd_kernel_traitsILi256ELi128ELi64ELi8ELb0ELb0EN7cutlass10bfloat16_tE19Flash_kernel_traitsILi256ELi128ELi64ELi8ES2_EELb0ELb1ELb0ELb0ELb0ELb1ELb1ELb0EEv16Flash_fwd_params = comdat any

$_Z31__device_stub__flash_fwd_kernelI23Flash_fwd_kernel_traitsILi256ELi128ELi64ELi8ELb0ELb0EN7cutlass10bfloat16_tE19Flash_kernel_traitsILi256ELi128ELi64ELi8ES2_EELb1ELb1ELb0ELb0ELb0ELb1ELb0ELb1EEv16Flash_fwd_params = comdat any

$_Z31__device_stub__flash_fwd_kernelI23Flash_fwd_kernel_traitsILi256ELi128ELi64ELi8ELb0ELb0EN7cutlass10bfloat16_tE19Flash_kernel_traitsILi256ELi128ELi64ELi8ES2_EELb1ELb1ELb0ELb1ELb0ELb1ELb0ELb0EEv16Flash_fwd_params = comdat any

$_Z31__device_stub__flash_fwd_kernelI23Flash_fwd_kernel_traitsILi256ELi128ELi64ELi8ELb0ELb0EN7cutlass10bfloat16_tE19Flash_kernel_traitsILi256ELi128ELi64ELi8ES2_EELb1ELb1ELb0ELb0ELb0ELb1ELb0ELb0EEv16Flash_fwd_params = comdat any

$_ZZZZZZZZ13run_flash_fwdI23Flash_fwd_kernel_traitsILi256ELi128ELi64ELi8ELb0ELb0EN7cutlass10bfloat16_tE19Flash_kernel_traitsILi256ELi128ELi64ELi8ES2_EELb1ELb1EEvR16Flash_fwd_paramsP11CUstream_stENKUlvE_clEvENKUlvE_clEvENKUlvE_clEvENKUlvE_clEvENKUlvE_clEvENKUlvE0_clEvENKUlvE_clEv = comdat any

$_ZZZZZZZZZZZZZ13run_flash_fwdI23Flash_fwd_kernel_traitsILi256ELi128ELi64ELi8ELb0ELb0EN7cutlass10bfloat16_tE19Flash_kernel_traitsILi256ELi128ELi64ELi8ES2_EELb1ELb1EEvR16Flash_fwd_paramsP11CUstream_stENKUlvE_clEvENKUlvE_clEvENKUlvE_clEvENKUlvE_clEvENKUlvE_clEvENKUlvE0_clEvENKUlvE_clEvENKUlvE_clEvENKUlvE_clEvENKUlvE_clEvENKUlvE_clEvENKUlvE_clEv = comdat any

$_ZZZZZZZZZZZZZ13run_flash_fwdI23Flash_fwd_kernel_traitsILi256ELi128ELi64ELi8ELb0ELb0EN7cutlass10bfloat16_tE19Flash_kernel_traitsILi256ELi128ELi64ELi8ES2_EELb1ELb1EEvR16Flash_fwd_paramsP11CUstream_stENKUlvE_clEvENKUlvE_clEvENKUlvE_clEvENKUlvE_clEvENKUlvE_clEvENKUlvE0_clEvENKUlvE_clEvENKUlvE_clEvENKUlvE_clEvENKUlvE_clEvENKUlvE_clEvENKUlvE0_clEv = comdat any

$_ZZZZZZZZZZZZZ13run_flash_fwdI23Flash_fwd_kernel_traitsILi256ELi128ELi64ELi8ELb0ELb0EN7cutlass10bfloat16_tE19Flash_kernel_traitsILi256ELi128ELi64ELi8ES2_EELb1ELb1EEvR16Flash_fwd_paramsP11CUstream_stENKUlvE_clEvENKUlvE_clEvENKUlvE_clEvENKUlvE_clEvENKUlvE_clEvENKUlvE0_clEvENKUlvE_clEvENKUlvE_clEvENKUlvE_clEvENKUlvE0_clEvENKUlvE_clEvENKUlvE_clEv = comdat any

$_ZZZZZZZZZZZZZ13run_flash_fwdI23Flash_fwd_kernel_traitsILi256ELi128ELi64ELi8ELb0ELb0EN7cutlass10bfloat16_tE19Flash_kernel_traitsILi256ELi128ELi64ELi8ES2_EELb1ELb1EEvR16Flash_fwd_paramsP11CUstream_stENKUlvE_clEvENKUlvE_clEvENKUlvE_clEvENKUlvE_clEvENKUlvE_clEvENKUlvE0_clEvENKUlvE_clEvENKUlvE_clEvENKUlvE_clEvENKUlvE0_clEvENKUlvE_clEvENKUlvE0_clEv = comdat any

$_ZZZZZZZZZZZZZ13run_flash_fwdI23Flash_fwd_kernel_traitsILi256ELi128ELi64ELi8ELb0ELb0EN7cutlass10bfloat16_tE19Flash_kernel_traitsILi256ELi128ELi64ELi8ES2_EELb1ELb1EEvR16Flash_fwd_paramsP11CUstream_stENKUlvE_clEvENKUlvE_clEvENKUlvE_clEvENKUlvE_clEvENKUlvE_clEvENKUlvE0_clEvENKUlvE_clEvENKUlvE0_clEvENKUlvE_clEvENKUlvE_clEvENKUlvE_clEvENKUlvE_clEv = comdat any

$_ZZZZZZZZZZZZZ13run_flash_fwdI23Flash_fwd_kernel_traitsILi256ELi128ELi64ELi8ELb0ELb0EN7cutlass10bfloat16_tE19Flash_kernel_traitsILi256ELi128ELi64ELi8ES2_EELb1ELb1EEvR16Flash_fwd_paramsP11CUstream_stENKUlvE_clEvENKUlvE_clEvENKUlvE_clEvENKUlvE_clEvENKUlvE_clEvENKUlvE0_clEvENKUlvE_clEvENKUlvE0_clEvENKUlvE_clEvENKUlvE_clEvENKUlvE_clEvENKUlvE0_clEv = comdat any

$_ZZZZZZZZZZZZZ13run_flash_fwdI23Flash_fwd_kernel_traitsILi256ELi128ELi64ELi8ELb0ELb0EN7cutlass10bfloat16_tE19Flash_kernel_traitsILi256ELi128ELi64ELi8ES2_EELb1ELb1EEvR16Flash_fwd_paramsP11CUstream_stENKUlvE_clEvENKUlvE_clEvENKUlvE_clEvENKUlvE_clEvENKUlvE_clEvENKUlvE0_clEvENKUlvE_clEvENKUlvE0_clEvENKUlvE_clEvENKUlvE0_clEvENKUlvE_clEvENKUlvE_clEv = comdat any

$_ZZZZZZZZZZZZZ13run_flash_fwdI23Flash_fwd_kernel_traitsILi256ELi128ELi64ELi8ELb0ELb0EN7cutlass10bfloat16_tE19Flash_kernel_traitsILi256ELi128ELi64ELi8ES2_EELb1ELb1EEvR16Flash_fwd_paramsP11CUstream_stENKUlvE_clEvENKUlvE_clEvENKUlvE_clEvENKUlvE_clEvENKUlvE_clEvENKUlvE0_clEvENKUlvE_clEvENKUlvE0_clEvENKUlvE_clEvENKUlvE0_clEvENKUlvE_clEvENKUlvE0_clEv = comdat any

$_Z31__device_stub__flash_fwd_kernelI23Flash_fwd_kernel_traitsILi256ELi128ELi64ELi8ELb0ELb0EN7cutlass10bfloat16_tE19Flash_kernel_traitsILi256ELi128ELi64ELi8ES2_EELb0ELb1ELb0ELb1ELb0ELb0ELb1ELb0EEv16Flash_fwd_params = comdat any

$_Z31__device_stub__flash_fwd_kernelI23Flash_fwd_kernel_traitsILi256ELi128ELi64ELi8ELb0ELb0EN7cutlass10bfloat16_tE19Flash_kernel_traitsILi256ELi128ELi64ELi8ES2_EELb1ELb1ELb0ELb1ELb0ELb0ELb0ELb1EEv16Flash_fwd_params = comdat any

$_Z31__device_stub__flash_fwd_kernelI23Flash_fwd_kernel_traitsILi256ELi128ELi64ELi8ELb0ELb0EN7cutlass10bfloat16_tE19Flash_kernel_traitsILi256ELi128ELi64ELi8ES2_EELb0ELb1ELb0ELb0ELb0ELb0ELb1ELb0EEv16Flash_fwd_params = comdat any

$_Z31__device_stub__flash_fwd_kernelI23Flash_fwd_kernel_traitsILi256ELi128ELi64ELi8ELb0ELb0EN7cutlass10bfloat16_tE19Flash_kernel_traitsILi256ELi128ELi64ELi8ES2_EELb1ELb1ELb0ELb0ELb0ELb0ELb0ELb1EEv16Flash_fwd_params = comdat any

$_Z31__device_stub__flash_fwd_kernelI23Flash_fwd_kernel_traitsILi256ELi128ELi64ELi8ELb0ELb0EN7cutlass10bfloat16_tE19Flash_kernel_traitsILi256ELi128ELi64ELi8ES2_EELb1ELb1ELb0ELb1ELb0ELb0ELb0ELb0EEv16Flash_fwd_params = comdat any

$_Z31__device_stub__flash_fwd_kernelI23Flash_fwd_kernel_traitsILi256ELi128ELi64ELi8ELb0ELb0EN7cutlass10bfloat16_tE19Flash_kernel_traitsILi256ELi128ELi64ELi8ES2_EELb1ELb1ELb0ELb0ELb0ELb0ELb0ELb0EEv16Flash_fwd_params = comdat any

$_ZZZZZZZZ13run_flash_fwdI23Flash_fwd_kernel_traitsILi256ELi128ELi64ELi8ELb0ELb0EN7cutlass10bfloat16_tE19Flash_kernel_traitsILi256ELi128ELi64ELi8ES2_EELb1ELb1EEvR16Flash_fwd_paramsP11CUstream_stENKUlvE_clEvENKUlvE_clEvENKUlvE_clEvENKUlvE0_clEvENKUlvE_clEvENKUlvE0_clEvENKUlvE_clEv = comdat any

$_ZZZZZZZZZZZZZ13run_flash_fwdI23Flash_fwd_kernel_traitsILi256ELi128ELi64ELi8ELb0ELb0EN7cutlass10bfloat16_tE19Flash_kernel_traitsILi256ELi128ELi64ELi8ES2_EELb1ELb1EEvR16Flash_fwd_paramsP11CUstream_stENKUlvE_clEvENKUlvE_clEvENKUlvE_clEvENKUlvE0_clEvENKUlvE_clEvENKUlvE0_clEvENKUlvE_clEvENKUlvE_clEvENKUlvE_clEvENKUlvE_clEvENKUlvE_clEvENKUlvE_clEv = comdat any

$_ZZZZZZZZZZZZZ13run_flash_fwdI23Flash_fwd_kernel_traitsILi256ELi128ELi64ELi8ELb0ELb0EN7cutlass10bfloat16_tE19Flash_kernel_traitsILi256ELi128ELi64ELi8ES2_EELb1ELb1EEvR16Flash_fwd_paramsP11CUstream_stENKUlvE_clEvENKUlvE_clEvENKUlvE_clEvENKUlvE0_clEvENKUlvE_clEvENKUlvE0_clEvENKUlvE_clEvENKUlvE_clEvENKUlvE_clEvENKUlvE_clEvENKUlvE_clEvENKUlvE0_clEv = comdat any

$_ZZZZZZZZZZZZZ13run_flash_fwdI23Flash_fwd_kernel_traitsILi256ELi128ELi64ELi8ELb0ELb0EN7cutlass10bfloat16_tE19Flash_kernel_traitsILi256ELi128ELi64ELi8ES2_EELb1ELb1EEvR16Flash_fwd_paramsP11CUstream_stENKUlvE_clEvENKUlvE_clEvENKUlvE_clEvENKUlvE0_clEvENKUlvE_clEvENKUlvE0_clEvENKUlvE_clEvENKUlvE_clEvENKUlvE_clEvENKUlvE0_clEvENKUlvE_clEvENKUlvE_clEv = comdat any

$_ZZZZZZZZZZZZZ13run_flash_fwdI23Flash_fwd_kernel_traitsILi256ELi128ELi64ELi8ELb0ELb0EN7cutlass10bfloat16_tE19Flash_kernel_traitsILi256ELi128ELi64ELi8ES2_EELb1ELb1EEvR16Flash_fwd_paramsP11CUstream_stENKUlvE_clEvENKUlvE_clEvENKUlvE_clEvENKUlvE0_clEvENKUlvE_clEvENKUlvE0_clEvENKUlvE_clEvENKUlvE_clEvENKUlvE_clEvENKUlvE0_clEvENKUlvE_clEvENKUlvE0_clEv = comdat any

$_ZZZZZZZZZZZZZ13run_flash_fwdI23Flash_fwd_kernel_traitsILi256ELi128ELi64ELi8ELb0ELb0EN7cutlass10bfloat16_tE19Flash_kernel_traitsILi256ELi128ELi64ELi8ES2_EELb1ELb1EEvR16Flash_fwd_paramsP11CUstream_stENKUlvE_clEvENKUlvE_clEvENKUlvE_clEvENKUlvE0_clEvENKUlvE_clEvENKUlvE0_clEvENKUlvE_clEvENKUlvE0_clEvENKUlvE_clEvENKUlvE_clEvENKUlvE_clEvENKUlvE_clEv = comdat any

$_ZZZZZZZZZZZZZ13run_flash_fwdI23Flash_fwd_kernel_traitsILi256ELi128ELi64ELi8ELb0ELb0EN7cutlass10bfloat16_tE19Flash_kernel_traitsILi256ELi128ELi64ELi8ES2_EELb1ELb1EEvR16Flash_fwd_paramsP11CUstream_stENKUlvE_clEvENKUlvE_clEvENKUlvE_clEvENKUlvE0_clEvENKUlvE_clEvENKUlvE0_clEvENKUlvE_clEvENKUlvE0_clEvENKUlvE_clEvENKUlvE_clEvENKUlvE_clEvENKUlvE0_clEv = comdat any

$_ZZZZZZZZZZZZZ13run_flash_fwdI23Flash_fwd_kernel_traitsILi256ELi128ELi64ELi8ELb0ELb0EN7cutlass10bfloat16_tE19Flash_kernel_traitsILi256ELi128ELi64ELi8ES2_EELb1ELb1EEvR16Flash_fwd_paramsP11CUstream_stENKUlvE_clEvENKUlvE_clEvENKUlvE_clEvENKUlvE0_clEvENKUlvE_clEvENKUlvE0_clEvENKUlvE_clEvENKUlvE0_clEvENKUlvE_clEvENKUlvE0_clEvENKUlvE_clEvENKUlvE_clEv = comdat any

$_ZZZZZZZZZZZZZ13run_flash_fwdI23Flash_fwd_kernel_traitsILi256ELi128ELi64ELi8ELb0ELb0EN7cutlass10bfloat16_tE19Flash_kernel_traitsILi256ELi128ELi64ELi8ES2_EELb1ELb1EEvR16Flash_fwd_paramsP11CUstream_stENKUlvE_clEvENKUlvE_clEvENKUlvE_clEvENKUlvE0_clEvENKUlvE_clEvENKUlvE0_clEvENKUlvE_clEvENKUlvE0_clEvENKUlvE_clEvENKUlvE0_clEvENKUlvE_clEvENKUlvE0_clEv = comdat any

$_ZZZZZZZZ13run_flash_fwdI23Flash_fwd_kernel_traitsILi256ELi128ELi64ELi8ELb0ELb0EN7cutlass10bfloat16_tE19Flash_kernel_traitsILi256ELi128ELi64ELi8ES2_EELb1ELb1EEvR16Flash_fwd_paramsP11CUstream_stENKUlvE_clEvENKUlvE0_clEvENKUlvE_clEvENKUlvE_clEvENKUlvE_clEvENKUlvE0_clEvENKUlvE_clEv = comdat any

$_ZZZZZZZZZZZZZ13run_flash_fwdI23Flash_fwd_kernel_traitsILi256ELi128ELi64ELi8ELb0ELb0EN7cutlass10bfloat16_tE19Flash_kernel_traitsILi256ELi128ELi64ELi8ES2_EELb1ELb1EEvR16Flash_fwd_paramsP11CUstream_stENKUlvE_clEvENKUlvE0_clEvENKUlvE_clEvENKUlvE_clEvENKUlvE_clEvENKUlvE0_clEvENKUlvE_clEvENKUlvE_clEvENKUlvE_clEvENKUlvE_clEvENKUlvE_clEvENKUlvE_clEv = comdat any

$_ZZZZZZZZZZZZZ13run_flash_fwdI23Flash_fwd_kernel_traitsILi256ELi128ELi64ELi8ELb0ELb0EN7cutlass10bfloat16_tE19Flash_kernel_traitsILi256ELi128ELi64ELi8ES2_EELb1ELb1EEvR16Flash_fwd_paramsP11CUstream_stENKUlvE_clEvENKUlvE0_clEvENKUlvE_clEvENKUlvE_clEvENKUlvE_clEvENKUlvE0_clEvENKUlvE_clEvENKUlvE_clEvENKUlvE_clEvENKUlvE_clEvENKUlvE_clEvENKUlvE0_clEv = comdat any

$_ZZZZZZZZZZZZZ13run_flash_fwdI23Flash_fwd_kernel_traitsILi256ELi128ELi64ELi8ELb0ELb0EN7cutlass10bfloat16_tE19Flash_kernel_traitsILi256ELi128ELi64ELi8ES2_EELb1ELb1EEvR16Flash_fwd_paramsP11CUstream_stENKUlvE_clEvENKUlvE0_clEvENKUlvE_clEvENKUlvE_clEvENKUlvE_clEvENKUlvE0_clEvENKUlvE_clEvENKUlvE_clEvENKUlvE_clEvENKUlvE0_clEvENKUlvE_clEvENKUlvE_clEv = comdat any

$_ZZZZZZZZZZZZZ13run_flash_fwdI23Flash_fwd_kernel_traitsILi256ELi128ELi64ELi8ELb0ELb0EN7cutlass10bfloat16_tE19Flash_kernel_traitsILi256ELi128ELi64ELi8ES2_EELb1ELb1EEvR16Flash_fwd_paramsP11CUstream_stENKUlvE_clEvENKUlvE0_clEvENKUlvE_clEvENKUlvE_clEvENKUlvE_clEvENKUlvE0_clEvENKUlvE_clEvENKUlvE_clEvENKUlvE_clEvENKUlvE0_clEvENKUlvE_clEvENKUlvE0_clEv = comdat any

$_ZZZZZZZZZZZZZ13run_flash_fwdI23Flash_fwd_kernel_traitsILi256ELi128ELi64ELi8ELb0ELb0EN7cutlass10bfloat16_tE19Flash_kernel_traitsILi256ELi128ELi64ELi8ES2_EELb1ELb1EEvR16Flash_fwd_paramsP11CUstream_stENKUlvE_clEvENKUlvE0_clEvENKUlvE_clEvENKUlvE_clEvENKUlvE_clEvENKUlvE0_clEvENKUlvE_clEvENKUlvE0_clEvENKUlvE_clEvENKUlvE_clEvENKUlvE_clEvENKUlvE_clEv = comdat any

$_ZZZZZZZZZZZZZ13run_flash_fwdI23Flash_fwd_kernel_traitsILi256ELi128ELi64ELi8ELb0ELb0EN7cutlass10bfloat16_tE19Flash_kernel_traitsILi256ELi128ELi64ELi8ES2_EELb1ELb1EEvR16Flash_fwd_paramsP11CUstream_stENKUlvE_clEvENKUlvE0_clEvENKUlvE_clEvENKUlvE_clEvENKUlvE_clEvENKUlvE0_clEvENKUlvE_clEvENKUlvE0_clEvENKUlvE_clEvENKUlvE_clEvENKUlvE_clEvENKUlvE0_clEv = comdat any

$_ZZZZZZZZZZZZZ13run_flash_fwdI23Flash_fwd_kernel_traitsILi256ELi128ELi64ELi8ELb0ELb0EN7cutlass10bfloat16_tE19Flash_kernel_traitsILi256ELi128ELi64ELi8ES2_EELb1ELb1EEvR16Flash_fwd_paramsP11CUstream_stENKUlvE_clEvENKUlvE0_clEvENKUlvE_clEvENKUlvE_clEvENKUlvE_clEvENKUlvE0_clEvENKUlvE_clEvENKUlvE0_clEvENKUlvE_clEvENKUlvE0_clEvENKUlvE_clEvENKUlvE_clEv = comdat any

$_ZZZZZZZZZZZZZ13run_flash_fwdI23Flash_fwd_kernel_traitsILi256ELi128ELi64ELi8ELb0ELb0EN7cutlass10bfloat16_tE19Flash_kernel_traitsILi256ELi128ELi64ELi8ES2_EELb1ELb1EEvR16Flash_fwd_paramsP11CUstream_stENKUlvE_clEvENKUlvE0_clEvENKUlvE_clEvENKUlvE_clEvENKUlvE_clEvENKUlvE0_clEvENKUlvE_clEvENKUlvE0_clEvENKUlvE_clEvENKUlvE0_clEvENKUlvE_clEvENKUlvE0_clEv = comdat any

$_ZZZZZZZZ13run_flash_fwdI23Flash_fwd_kernel_traitsILi256ELi128ELi64ELi8ELb0ELb0EN7cutlass10bfloat16_tE19Flash_kernel_traitsILi256ELi128ELi64ELi8ES2_EELb1ELb1EEvR16Flash_fwd_paramsP11CUstream_stENKUlvE_clEvENKUlvE0_clEvENKUlvE_clEvENKUlvE0_clEvENKUlvE_clEvENKUlvE0_clEvENKUlvE_clEv = comdat any

$_ZZZZZZZZZZZZZ13run_flash_fwdI23Flash_fwd_kernel_traitsILi256ELi128ELi64ELi8ELb0ELb0EN7cutlass10bfloat16_tE19Flash_kernel_traitsILi256ELi128ELi64ELi8ES2_EELb1ELb1EEvR16Flash_fwd_paramsP11CUstream_stENKUlvE_clEvENKUlvE0_clEvENKUlvE_clEvENKUlvE0_clEvENKUlvE_clEvENKUlvE0_clEvENKUlvE_clEvENKUlvE_clEvENKUlvE_clEvENKUlvE_clEvENKUlvE_clEvENKUlvE_clEv = comdat any

$_ZZZZZZZZZZZZZ13run_flash_fwdI23Flash_fwd_kernel_traitsILi256ELi128ELi64ELi8ELb0ELb0EN7cutlass10bfloat16_tE19Flash_kernel_traitsILi256ELi128ELi64ELi8ES2_EELb1ELb1EEvR16Flash_fwd_paramsP11CUstream_stENKUlvE_clEvENKUlvE0_clEvENKUlvE_clEvENKUlvE0_clEvENKUlvE_clEvENKUlvE0_clEvENKUlvE_clEvENKUlvE_clEvENKUlvE_clEvENKUlvE_clEvENKUlvE_clEvENKUlvE0_clEv = comdat any

$_ZZZZZZZZZZZZZ13run_flash_fwdI23Flash_fwd_kernel_traitsILi256ELi128ELi64ELi8ELb0ELb0EN7cutlass10bfloat16_tE19Flash_kernel_traitsILi256ELi128ELi64ELi8ES2_EELb1ELb1EEvR16Flash_fwd_paramsP11CUstream_stENKUlvE_clEvENKUlvE0_clEvENKUlvE_clEvENKUlvE0_clEvENKUlvE_clEvENKUlvE0_clEvENKUlvE_clEvENKUlvE_clEvENKUlvE_clEvENKUlvE0_clEvENKUlvE_clEvENKUlvE_clEv = comdat any

$_ZZZZZZZZZZZZZ13run_flash_fwdI23Flash_fwd_kernel_traitsILi256ELi128ELi64ELi8ELb0ELb0EN7cutlass10bfloat16_tE19Flash_kernel_traitsILi256ELi128ELi64ELi8ES2_EELb1ELb1EEvR16Flash_fwd_paramsP11CUstream_stENKUlvE_clEvENKUlvE0_clEvENKUlvE_clEvENKUlvE0_clEvENKUlvE_clEvENKUlvE0_clEvENKUlvE_clEvENKUlvE_clEvENKUlvE_clEvENKUlvE0_clEvENKUlvE_clEvENKUlvE0_clEv = comdat any

$_ZZZZZZZZZZZZZ13run_flash_fwdI23Flash_fwd_kernel_traitsILi256ELi128ELi64ELi8ELb0ELb0EN7cutlass10bfloat16_tE19Flash_kernel_traitsILi256ELi128ELi64ELi8ES2_EELb1ELb1EEvR16Flash_fwd_paramsP11CUstream_stENKUlvE_clEvENKUlvE0_clEvENKUlvE_clEvENKUlvE0_clEvENKUlvE_clEvENKUlvE0_clEvENKUlvE_clEvENKUlvE0_clEvENKUlvE_clEvENKUlvE_clEvENKUlvE_clEvENKUlvE_clEv = comdat any

$_ZZZZZZZZZZZZZ13run_flash_fwdI23Flash_fwd_kernel_traitsILi256ELi128ELi64ELi8ELb0ELb0EN7cutlass10bfloat16_tE19Flash_kernel_traitsILi256ELi128ELi64ELi8ES2_EELb1ELb1EEvR16Flash_fwd_paramsP11CUstream_stENKUlvE_clEvENKUlvE0_clEvENKUlvE_clEvENKUlvE0_clEvENKUlvE_clEvENKUlvE0_clEvENKUlvE_clEvENKUlvE0_clEvENKUlvE_clEvENKUlvE_clEvENKUlvE_clEvENKUlvE0_clEv = comdat any

$_ZZZZZZZZZZZZZ13run_flash_fwdI23Flash_fwd_kernel_traitsILi256ELi128ELi64ELi8ELb0ELb0EN7cutlass10bfloat16_tE19Flash_kernel_traitsILi256ELi128ELi64ELi8ES2_EELb1ELb1EEvR16Flash_fwd_paramsP11CUstream_stENKUlvE_clEvENKUlvE0_clEvENKUlvE_clEvENKUlvE0_clEvENKUlvE_clEvENKUlvE0_clEvENKUlvE_clEvENKUlvE0_clEvENKUlvE_clEvENKUlvE0_clEvENKUlvE_clEvENKUlvE_clEv = comdat any

$_ZZZZZZZZZZZZZ13run_flash_fwdI23Flash_fwd_kernel_traitsILi256ELi128ELi64ELi8ELb0ELb0EN7cutlass10bfloat16_tE19Flash_kernel_traitsILi256ELi128ELi64ELi8ES2_EELb1ELb1EEvR16Flash_fwd_paramsP11CUstream_stENKUlvE_clEvENKUlvE0_clEvENKUlvE_clEvENKUlvE0_clEvENKUlvE_clEvENKUlvE0_clEvENKUlvE_clEvENKUlvE0_clEvENKUlvE_clEvENKUlvE0_clEvENKUlvE_clEvENKUlvE0_clEv = comdat any

$_Z31__device_stub__flash_fwd_kernelI23Flash_fwd_kernel_traitsILi256ELi64ELi64ELi4ELb0ELb0EN7cutlass10bfloat16_tE19Flash_kernel_traitsILi256ELi64ELi64ELi4ES2_EELb0ELb1ELb0ELb1ELb0ELb1ELb1ELb0EEv16Flash_fwd_params = comdat any

$_Z31__device_stub__flash_fwd_kernelI23Flash_fwd_kernel_traitsILi256ELi64ELi64ELi4ELb0ELb0EN7cutlass10bfloat16_tE19Flash_kernel_traitsILi256ELi64ELi64ELi4ES2_EELb1ELb1ELb0ELb1ELb0ELb1ELb0ELb1EEv16Flash_fwd_params = comdat any

$_Z31__device_stub__flash_fwd_kernelI23Flash_fwd_kernel_traitsILi256ELi64ELi64ELi4ELb0ELb0EN7cutlass10bfloat16_tE19Flash_kernel_traitsILi256ELi64ELi64ELi4ES2_EELb0ELb1ELb0ELb0ELb0ELb1ELb1ELb0EEv16Flash_fwd_params = comdat any

$_Z31__device_stub__flash_fwd_kernelI23Flash_fwd_kernel_traitsILi256ELi64ELi64ELi4ELb0ELb0EN7cutlass10bfloat16_tE19Flash_kernel_traitsILi256ELi64ELi64ELi4ES2_EELb1ELb1ELb0ELb0ELb0ELb1ELb0ELb1EEv16Flash_fwd_params = comdat any

$_Z31__device_stub__flash_fwd_kernelI23Flash_fwd_kernel_traitsILi256ELi64ELi64ELi4ELb0ELb0EN7cutlass10bfloat16_tE19Flash_kernel_traitsILi256ELi64ELi64ELi4ES2_EELb1ELb1ELb0ELb1ELb0ELb1ELb0ELb0EEv16Flash_fwd_params = comdat any

$_Z31__device_stub__flash_fwd_kernelI23Flash_fwd_kernel_traitsILi256ELi64ELi64ELi4ELb0ELb0EN7cutlass10bfloat16_tE19Flash_kernel_traitsILi256ELi64ELi64ELi4ES2_EELb1ELb1ELb0ELb0ELb0ELb1ELb0ELb0EEv16Flash_fwd_params = comdat any

$_ZZZZZZZZ13run_flash_fwdI23Flash_fwd_kernel_traitsILi256ELi64ELi64ELi4ELb0ELb0EN7cutlass10bfloat16_tE19Flash_kernel_traitsILi256ELi64ELi64ELi4ES2_EELb1ELb1EEvR16Flash_fwd_paramsP11CUstream_stENKUlvE_clEvENKUlvE_clEvENKUlvE_clEvENKUlvE_clEvENKUlvE_clEvENKUlvE0_clEvENKUlvE_clEv = comdat any

$_ZZZZZZZZZZZZZ13run_flash_fwdI23Flash_fwd_kernel_traitsILi256ELi64ELi64ELi4ELb0ELb0EN7cutlass10bfloat16_tE19Flash_kernel_traitsILi256ELi64ELi64ELi4ES2_EELb1ELb1EEvR16Flash_fwd_paramsP11CUstream_stENKUlvE_clEvENKUlvE_clEvENKUlvE_clEvENKUlvE_clEvENKUlvE_clEvENKUlvE0_clEvENKUlvE_clEvENKUlvE_clEvENKUlvE_clEvENKUlvE_clEvENKUlvE_clEvENKUlvE_clEv = comdat any

$_ZZZZZZZZZZZZZ13run_flash_fwdI23Flash_fwd_kernel_traitsILi256ELi64ELi64ELi4ELb0ELb0EN7cutlass10bfloat16_tE19Flash_kernel_traitsILi256ELi64ELi64ELi4ES2_EELb1ELb1EEvR16Flash_fwd_paramsP11CUstream_stENKUlvE_clEvENKUlvE_clEvENKUlvE_clEvENKUlvE_clEvENKUlvE_clEvENKUlvE0_clEvENKUlvE_clEvENKUlvE_clEvENKUlvE_clEvENKUlvE_clEvENKUlvE_clEvENKUlvE0_clEv = comdat any

$_ZZZZZZZZZZZZZ13run_flash_fwdI23Flash_fwd_kernel_traitsILi256ELi64ELi64ELi4ELb0ELb0EN7cutlass10bfloat16_tE19Flash_kernel_traitsILi256ELi64ELi64ELi4ES2_EELb1ELb1EEvR16Flash_fwd_paramsP11CUstream_stENKUlvE_clEvENKUlvE_clEvENKUlvE_clEvENKUlvE_clEvENKUlvE_clEvENKUlvE0_clEvENKUlvE_clEvENKUlvE_clEvENKUlvE_clEvENKUlvE0_clEvENKUlvE_clEvENKUlvE_clEv = comdat any

$_ZZZZZZZZZZZZZ13run_flash_fwdI23Flash_fwd_kernel_traitsILi256ELi64ELi64ELi4ELb0ELb0EN7cutlass10bfloat16_tE19Flash_kernel_traitsILi256ELi64ELi64ELi4ES2_EELb1ELb1EEvR16Flash_fwd_paramsP11CUstream_stENKUlvE_clEvENKUlvE_clEvENKUlvE_clEvENKUlvE_clEvENKUlvE_clEvENKUlvE0_clEvENKUlvE_clEvENKUlvE_clEvENKUlvE_clEvENKUlvE0_clEvENKUlvE_clEvENKUlvE0_clEv = comdat any

$_ZZZZZZZZZZZZZ13run_flash_fwdI23Flash_fwd_kernel_traitsILi256ELi64ELi64ELi4ELb0ELb0EN7cutlass10bfloat16_tE19Flash_kernel_traitsILi256ELi64ELi64ELi4ES2_EELb1ELb1EEvR16Flash_fwd_paramsP11CUstream_stENKUlvE_clEvENKUlvE_clEvENKUlvE_clEvENKUlvE_clEvENKUlvE_clEvENKUlvE0_clEvENKUlvE_clEvENKUlvE0_clEvENKUlvE_clEvENKUlvE_clEvENKUlvE_clEvENKUlvE_clEv = comdat any

$_ZZZZZZZZZZZZZ13run_flash_fwdI23Flash_fwd_kernel_traitsILi256ELi64ELi64ELi4ELb0ELb0EN7cutlass10bfloat16_tE19Flash_kernel_traitsILi256ELi64ELi64ELi4ES2_EELb1ELb1EEvR16Flash_fwd_paramsP11CUstream_stENKUlvE_clEvENKUlvE_clEvENKUlvE_clEvENKUlvE_clEvENKUlvE_clEvENKUlvE0_clEvENKUlvE_clEvENKUlvE0_clEvENKUlvE_clEvENKUlvE_clEvENKUlvE_clEvENKUlvE0_clEv = comdat any

$_ZZZZZZZZZZZZZ13run_flash_fwdI23Flash_fwd_kernel_traitsILi256ELi64ELi64ELi4ELb0ELb0EN7cutlass10bfloat16_tE19Flash_kernel_traitsILi256ELi64ELi64ELi4ES2_EELb1ELb1EEvR16Flash_fwd_paramsP11CUstream_stENKUlvE_clEvENKUlvE_clEvENKUlvE_clEvENKUlvE_clEvENKUlvE_clEvENKUlvE0_clEvENKUlvE_clEvENKUlvE0_clEvENKUlvE_clEvENKUlvE0_clEvENKUlvE_clEvENKUlvE_clEv = comdat any

$_ZZZZZZZZZZZZZ13run_flash_fwdI23Flash_fwd_kernel_traitsILi256ELi64ELi64ELi4ELb0ELb0EN7cutlass10bfloat16_tE19Flash_kernel_traitsILi256ELi64ELi64ELi4ES2_EELb1ELb1EEvR16Flash_fwd_paramsP11CUstream_stENKUlvE_clEvENKUlvE_clEvENKUlvE_clEvENKUlvE_clEvENKUlvE_clEvENKUlvE0_clEvENKUlvE_clEvENKUlvE0_clEvENKUlvE_clEvENKUlvE0_clEvENKUlvE_clEvENKUlvE0_clEv = comdat any

$_Z31__device_stub__flash_fwd_kernelI23Flash_fwd_kernel_traitsILi256ELi64ELi64ELi4ELb0ELb0EN7cutlass10bfloat16_tE19Flash_kernel_traitsILi256ELi64ELi64ELi4ES2_EELb0ELb1ELb0ELb1ELb0ELb0ELb1ELb0EEv16Flash_fwd_params = comdat any

$_Z31__device_stub__flash_fwd_kernelI23Flash_fwd_kernel_traitsILi256ELi64ELi64ELi4ELb0ELb0EN7cutlass10bfloat16_tE19Flash_kernel_traitsILi256ELi64ELi64ELi4ES2_EELb1ELb1ELb0ELb1ELb0ELb0ELb0ELb1EEv16Flash_fwd_params = comdat any

$_Z31__device_stub__flash_fwd_kernelI23Flash_fwd_kernel_traitsILi256ELi64ELi64ELi4ELb0ELb0EN7cutlass10bfloat16_tE19Flash_kernel_traitsILi256ELi64ELi64ELi4ES2_EELb0ELb1ELb0ELb0ELb0ELb0ELb1ELb0EEv16Flash_fwd_params = comdat any

$_Z31__device_stub__flash_fwd_kernelI23Flash_fwd_kernel_traitsILi256ELi64ELi64ELi4ELb0ELb0EN7cutlass10bfloat16_tE19Flash_kernel_traitsILi256ELi64ELi64ELi4ES2_EELb1ELb1ELb0ELb0ELb0ELb0ELb0ELb1EEv16Flash_fwd_params = comdat any

$_Z31__device_stub__flash_fwd_kernelI23Flash_fwd_kernel_traitsILi256ELi64ELi64ELi4ELb0ELb0EN7cutlass10bfloat16_tE19Flash_kernel_traitsILi256ELi64ELi64ELi4ES2_EELb1ELb1ELb0ELb1ELb0ELb0ELb0ELb0EEv16Flash_fwd_params = comdat any

$_Z31__device_stub__flash_fwd_kernelI23Flash_fwd_kernel_traitsILi256ELi64ELi64ELi4ELb0ELb0EN7cutlass10bfloat16_tE19Flash_kernel_traitsILi256ELi64ELi64ELi4ES2_EELb1ELb1ELb0ELb0ELb0ELb0ELb0ELb0EEv16Flash_fwd_params = comdat any

$_ZZZZZZZZ13run_flash_fwdI23Flash_fwd_kernel_traitsILi256ELi64ELi64ELi4ELb0ELb0EN7cutlass10bfloat16_tE19Flash_kernel_traitsILi256ELi64ELi64ELi4ES2_EELb1ELb1EEvR16Flash_fwd_paramsP11CUstream_stENKUlvE_clEvENKUlvE_clEvENKUlvE_clEvENKUlvE0_clEvENKUlvE_clEvENKUlvE0_clEvENKUlvE_clEv = comdat any

$_ZZZZZZZZZZZZZ13run_flash_fwdI23Flash_fwd_kernel_traitsILi256ELi64ELi64ELi4ELb0ELb0EN7cutlass10bfloat16_tE19Flash_kernel_traitsILi256ELi64ELi64ELi4ES2_EELb1ELb1EEvR16Flash_fwd_paramsP11CUstream_stENKUlvE_clEvENKUlvE_clEvENKUlvE_clEvENKUlvE0_clEvENKUlvE_clEvENKUlvE0_clEvENKUlvE_clEvENKUlvE_clEvENKUlvE_clEvENKUlvE_clEvENKUlvE_clEvENKUlvE_clEv = comdat any

$_ZZZZZZZZZZZZZ13run_flash_fwdI23Flash_fwd_kernel_traitsILi256ELi64ELi64ELi4ELb0ELb0EN7cutlass10bfloat16_tE19Flash_kernel_traitsILi256ELi64ELi64ELi4ES2_EELb1ELb1EEvR16Flash_fwd_paramsP11CUstream_stENKUlvE_clEvENKUlvE_clEvENKUlvE_clEvENKUlvE0_clEvENKUlvE_clEvENKUlvE0_clEvENKUlvE_clEvENKUlvE_clEvENKUlvE_clEvENKUlvE_clEvENKUlvE_clEvENKUlvE0_clEv = comdat any

$_ZZZZZZZZZZZZZ13run_flash_fwdI23Flash_fwd_kernel_traitsILi256ELi64ELi64ELi4ELb0ELb0EN7cutlass10bfloat16_tE19Flash_kernel_traitsILi256ELi64ELi64ELi4ES2_EELb1ELb1EEvR16Flash_fwd_paramsP11CUstream_stENKUlvE_clEvENKUlvE_clEvENKUlvE_clEvENKUlvE0_clEvENKUlvE_clEvENKUlvE0_clEvENKUlvE_clEvENKUlvE_clEvENKUlvE_clEvENKUlvE0_clEvENKUlvE_clEvENKUlvE_clEv = comdat any

$_ZZZZZZZZZZZZZ13run_flash_fwdI23Flash_fwd_kernel_traitsILi256ELi64ELi64ELi4ELb0ELb0EN7cutlass10bfloat16_tE19Flash_kernel_traitsILi256ELi64ELi64ELi4ES2_EELb1ELb1EEvR16Flash_fwd_paramsP11CUstream_stENKUlvE_clEvENKUlvE_clEvENKUlvE_clEvENKUlvE0_clEvENKUlvE_clEvENKUlvE0_clEvENKUlvE_clEvENKUlvE_clEvENKUlvE_clEvENKUlvE0_clEvENKUlvE_clEvENKUlvE0_clEv = comdat any

$_ZZZZZZZZZZZZZ13run_flash_fwdI23Flash_fwd_kernel_traitsILi256ELi64ELi64ELi4ELb0ELb0EN7cutlass10bfloat16_tE19Flash_kernel_traitsILi256ELi64ELi64ELi4ES2_EELb1ELb1EEvR16Flash_fwd_paramsP11CUstream_stENKUlvE_clEvENKUlvE_clEvENKUlvE_clEvENKUlvE0_clEvENKUlvE_clEvENKUlvE0_clEvENKUlvE_clEvENKUlvE0_clEvENKUlvE_clEvENKUlvE_clEvENKUlvE_clEvENKUlvE_clEv = comdat any

$_ZZZZZZZZZZZZZ13run_flash_fwdI23Flash_fwd_kernel_traitsILi256ELi64ELi64ELi4ELb0ELb0EN7cutlass10bfloat16_tE19Flash_kernel_traitsILi256ELi64ELi64ELi4ES2_EELb1ELb1EEvR16Flash_fwd_paramsP11CUstream_stENKUlvE_clEvENKUlvE_clEvENKUlvE_clEvENKUlvE0_clEvENKUlvE_clEvENKUlvE0_clEvENKUlvE_clEvENKUlvE0_clEvENKUlvE_clEvENKUlvE_clEvENKUlvE_clEvENKUlvE0_clEv = comdat any

$_ZZZZZZZZZZZZZ13run_flash_fwdI23Flash_fwd_kernel_traitsILi256ELi64ELi64ELi4ELb0ELb0EN7cutlass10bfloat16_tE19Flash_kernel_traitsILi256ELi64ELi64ELi4ES2_EELb1ELb1EEvR16Flash_fwd_paramsP11CUstream_stENKUlvE_clEvENKUlvE_clEvENKUlvE_clEvENKUlvE0_clEvENKUlvE_clEvENKUlvE0_clEvENKUlvE_clEvENKUlvE0_clEvENKUlvE_clEvENKUlvE0_clEvENKUlvE_clEvENKUlvE_clEv = comdat any

$_ZZZZZZZZZZZZZ13run_flash_fwdI23Flash_fwd_kernel_traitsILi256ELi64ELi64ELi4ELb0ELb0EN7cutlass10bfloat16_tE19Flash_kernel_traitsILi256ELi64ELi64ELi4ES2_EELb1ELb1EEvR16Flash_fwd_paramsP11CUstream_stENKUlvE_clEvENKUlvE_clEvENKUlvE_clEvENKUlvE0_clEvENKUlvE_clEvENKUlvE0_clEvENKUlvE_clEvENKUlvE0_clEvENKUlvE_clEvENKUlvE0_clEvENKUlvE_clEvENKUlvE0_clEv = comdat any

$_ZZZZZZZZ13run_flash_fwdI23Flash_fwd_kernel_traitsILi256ELi64ELi64ELi4ELb0ELb0EN7cutlass10bfloat16_tE19Flash_kernel_traitsILi256ELi64ELi64ELi4ES2_EELb1ELb1EEvR16Flash_fwd_paramsP11CUstream_stENKUlvE_clEvENKUlvE0_clEvENKUlvE_clEvENKUlvE_clEvENKUlvE_clEvENKUlvE0_clEvENKUlvE_clEv = comdat any

$_ZZZZZZZZZZZZZ13run_flash_fwdI23Flash_fwd_kernel_traitsILi256ELi64ELi64ELi4ELb0ELb0EN7cutlass10bfloat16_tE19Flash_kernel_traitsILi256ELi64ELi64ELi4ES2_EELb1ELb1EEvR16Flash_fwd_paramsP11CUstream_stENKUlvE_clEvENKUlvE0_clEvENKUlvE_clEvENKUlvE_clEvENKUlvE_clEvENKUlvE0_clEvENKUlvE_clEvENKUlvE_clEvENKUlvE_clEvENKUlvE_clEvENKUlvE_clEvENKUlvE_clEv = comdat any

$_ZZZZZZZZZZZZZ13run_flash_fwdI23Flash_fwd_kernel_traitsILi256ELi64ELi64ELi4ELb0ELb0EN7cutlass10bfloat16_tE19Flash_kernel_traitsILi256ELi64ELi64ELi4ES2_EELb1ELb1EEvR16Flash_fwd_paramsP11CUstream_stENKUlvE_clEvENKUlvE0_clEvENKUlvE_clEvENKUlvE_clEvENKUlvE_clEvENKUlvE0_clEvENKUlvE_clEvENKUlvE_clEvENKUlvE_clEvENKUlvE_clEvENKUlvE_clEvENKUlvE0_clEv = comdat any

$_ZZZZZZZZZZZZZ13run_flash_fwdI23Flash_fwd_kernel_traitsILi256ELi64ELi64ELi4ELb0ELb0EN7cutlass10bfloat16_tE19Flash_kernel_traitsILi256ELi64ELi64ELi4ES2_EELb1ELb1EEvR16Flash_fwd_paramsP11CUstream_stENKUlvE_clEvENKUlvE0_clEvENKUlvE_clEvENKUlvE_clEvENKUlvE_clEvENKUlvE0_clEvENKUlvE_clEvENKUlvE_clEvENKUlvE_clEvENKUlvE0_clEvENKUlvE_clEvENKUlvE_clEv = comdat any

$_ZZZZZZZZZZZZZ13run_flash_fwdI23Flash_fwd_kernel_traitsILi256ELi64ELi64ELi4ELb0ELb0EN7cutlass10bfloat16_tE19Flash_kernel_traitsILi256ELi64ELi64ELi4ES2_EELb1ELb1EEvR16Flash_fwd_paramsP11CUstream_stENKUlvE_clEvENKUlvE0_clEvENKUlvE_clEvENKUlvE_clEvENKUlvE_clEvENKUlvE0_clEvENKUlvE_clEvENKUlvE_clEvENKUlvE_clEvENKUlvE0_clEvENKUlvE_clEvENKUlvE0_clEv = comdat any

$_ZZZZZZZZZZZZZ13run_flash_fwdI23Flash_fwd_kernel_traitsILi256ELi64ELi64ELi4ELb0ELb0EN7cutlass10bfloat16_tE19Flash_kernel_traitsILi256ELi64ELi64ELi4ES2_EELb1ELb1EEvR16Flash_fwd_paramsP11CUstream_stENKUlvE_clEvENKUlvE0_clEvENKUlvE_clEvENKUlvE_clEvENKUlvE_clEvENKUlvE0_clEvENKUlvE_clEvENKUlvE0_clEvENKUlvE_clEvENKUlvE_clEvENKUlvE_clEvENKUlvE_clEv = comdat any

$_ZZZZZZZZZZZZZ13run_flash_fwdI23Flash_fwd_kernel_traitsILi256ELi64ELi64ELi4ELb0ELb0EN7cutlass10bfloat16_tE19Flash_kernel_traitsILi256ELi64ELi64ELi4ES2_EELb1ELb1EEvR16Flash_fwd_paramsP11CUstream_stENKUlvE_clEvENKUlvE0_clEvENKUlvE_clEvENKUlvE_clEvENKUlvE_clEvENKUlvE0_clEvENKUlvE_clEvENKUlvE0_clEvENKUlvE_clEvENKUlvE_clEvENKUlvE_clEvENKUlvE0_clEv = comdat any

$_ZZZZZZZZZZZZZ13run_flash_fwdI23Flash_fwd_kernel_traitsILi256ELi64ELi64ELi4ELb0ELb0EN7cutlass10bfloat16_tE19Flash_kernel_traitsILi256ELi64ELi64ELi4ES2_EELb1ELb1EEvR16Flash_fwd_paramsP11CUstream_stENKUlvE_clEvENKUlvE0_clEvENKUlvE_clEvENKUlvE_clEvENKUlvE_clEvENKUlvE0_clEvENKUlvE_clEvENKUlvE0_clEvENKUlvE_clEvENKUlvE0_clEvENKUlvE_clEvENKUlvE_clEv = comdat any

$_ZZZZZZZZZZZZZ13run_flash_fwdI23Flash_fwd_kernel_traitsILi256ELi64ELi64ELi4ELb0ELb0EN7cutlass10bfloat16_tE19Flash_kernel_traitsILi256ELi64ELi64ELi4ES2_EELb1ELb1EEvR16Flash_fwd_paramsP11CUstream_stENKUlvE_clEvENKUlvE0_clEvENKUlvE_clEvENKUlvE_clEvENKUlvE_clEvENKUlvE0_clEvENKUlvE_clEvENKUlvE0_clEvENKUlvE_clEvENKUlvE0_clEvENKUlvE_clEvENKUlvE0_clEv = comdat any

$_ZZZZZZZZ13run_flash_fwdI23Flash_fwd_kernel_traitsILi256ELi64ELi64ELi4ELb0ELb0EN7cutlass10bfloat16_tE19Flash_kernel_traitsILi256ELi64ELi64ELi4ES2_EELb1ELb1EEvR16Flash_fwd_paramsP11CUstream_stENKUlvE_clEvENKUlvE0_clEvENKUlvE_clEvENKUlvE0_clEvENKUlvE_clEvENKUlvE0_clEvENKUlvE_clEv = comdat any

$_ZZZZZZZZZZZZZ13run_flash_fwdI23Flash_fwd_kernel_traitsILi256ELi64ELi64ELi4ELb0ELb0EN7cutlass10bfloat16_tE19Flash_kernel_traitsILi256ELi64ELi64ELi4ES2_EELb1ELb1EEvR16Flash_fwd_paramsP11CUstream_stENKUlvE_clEvENKUlvE0_clEvENKUlvE_clEvENKUlvE0_clEvENKUlvE_clEvENKUlvE0_clEvENKUlvE_clEvENKUlvE_clEvENKUlvE_clEvENKUlvE_clEvENKUlvE_clEvENKUlvE_clEv = comdat any

$_ZZZZZZZZZZZZZ13run_flash_fwdI23Flash_fwd_kernel_traitsILi256ELi64ELi64ELi4ELb0ELb0EN7cutlass10bfloat16_tE19Flash_kernel_traitsILi256ELi64ELi64ELi4ES2_EELb1ELb1EEvR16Flash_fwd_paramsP11CUstream_stENKUlvE_clEvENKUlvE0_clEvENKUlvE_clEvENKUlvE0_clEvENKUlvE_clEvENKUlvE0_clEvENKUlvE_clEvENKUlvE_clEvENKUlvE_clEvENKUlvE_clEvENKUlvE_clEvENKUlvE0_clEv = comdat any

$_ZZZZZZZZZZZZZ13run_flash_fwdI23Flash_fwd_kernel_traitsILi256ELi64ELi64ELi4ELb0ELb0EN7cutlass10bfloat16_tE19Flash_kernel_traitsILi256ELi64ELi64ELi4ES2_EELb1ELb1EEvR16Flash_fwd_paramsP11CUstream_stENKUlvE_clEvENKUlvE0_clEvENKUlvE_clEvENKUlvE0_clEvENKUlvE_clEvENKUlvE0_clEvENKUlvE_clEvENKUlvE_clEvENKUlvE_clEvENKUlvE0_clEvENKUlvE_clEvENKUlvE_clEv = comdat any

$_ZZZZZZZZZZZZZ13run_flash_fwdI23Flash_fwd_kernel_traitsILi256ELi64ELi64ELi4ELb0ELb0EN7cutlass10bfloat16_tE19Flash_kernel_traitsILi256ELi64ELi64ELi4ES2_EELb1ELb1EEvR16Flash_fwd_paramsP11CUstream_stENKUlvE_clEvENKUlvE0_clEvENKUlvE_clEvENKUlvE0_clEvENKUlvE_clEvENKUlvE0_clEvENKUlvE_clEvENKUlvE_clEvENKUlvE_clEvENKUlvE0_clEvENKUlvE_clEvENKUlvE0_clEv = comdat any

$_ZZZZZZZZZZZZZ13run_flash_fwdI23Flash_fwd_kernel_traitsILi256ELi64ELi64ELi4ELb0ELb0EN7cutlass10bfloat16_tE19Flash_kernel_traitsILi256ELi64ELi64ELi4ES2_EELb1ELb1EEvR16Flash_fwd_paramsP11CUstream_stENKUlvE_clEvENKUlvE0_clEvENKUlvE_clEvENKUlvE0_clEvENKUlvE_clEvENKUlvE0_clEvENKUlvE_clEvENKUlvE0_clEvENKUlvE_clEvENKUlvE_clEvENKUlvE_clEvENKUlvE_clEv = comdat any

$_ZZZZZZZZZZZZZ13run_flash_fwdI23Flash_fwd_kernel_traitsILi256ELi64ELi64ELi4ELb0ELb0EN7cutlass10bfloat16_tE19Flash_kernel_traitsILi256ELi64ELi64ELi4ES2_EELb1ELb1EEvR16Flash_fwd_paramsP11CUstream_stENKUlvE_clEvENKUlvE0_clEvENKUlvE_clEvENKUlvE0_clEvENKUlvE_clEvENKUlvE0_clEvENKUlvE_clEvENKUlvE0_clEvENKUlvE_clEvENKUlvE_clEvENKUlvE_clEvENKUlvE0_clEv = comdat any

$_ZZZZZZZZZZZZZ13run_flash_fwdI23Flash_fwd_kernel_traitsILi256ELi64ELi64ELi4ELb0ELb0EN7cutlass10bfloat16_tE19Flash_kernel_traitsILi256ELi64ELi64ELi4ES2_EELb1ELb1EEvR16Flash_fwd_paramsP11CUstream_stENKUlvE_clEvENKUlvE0_clEvENKUlvE_clEvENKUlvE0_clEvENKUlvE_clEvENKUlvE0_clEvENKUlvE_clEvENKUlvE0_clEvENKUlvE_clEvENKUlvE0_clEvENKUlvE_clEvENKUlvE_clEv = comdat any

$_ZZZZZZZZZZZZZ13run_flash_fwdI23Flash_fwd_kernel_traitsILi256ELi64ELi64ELi4ELb0ELb0EN7cutlass10bfloat16_tE19Flash_kernel_traitsILi256ELi64ELi64ELi4ES2_EELb1ELb1EEvR16Flash_fwd_paramsP11CUstream_stENKUlvE_clEvENKUlvE0_clEvENKUlvE_clEvENKUlvE0_clEvENKUlvE_clEvENKUlvE0_clEvENKUlvE_clEvENKUlvE0_clEvENKUlvE_clEvENKUlvE0_clEvENKUlvE_clEvENKUlvE0_clEv = comdat any

$_Z13run_flash_fwdI23Flash_fwd_kernel_traitsILi256ELi128ELi64ELi8ELb0ELb0EN7cutlass10bfloat16_tE19Flash_kernel_traitsILi256ELi128ELi64ELi8ES2_EELb0ELb1EEvR16Flash_fwd_paramsP11CUstream_st = comdat any

$_Z13run_flash_fwdI23Flash_fwd_kernel_traitsILi256ELi64ELi64ELi4ELb0ELb0EN7cutlass10bfloat16_tE19Flash_kernel_traitsILi256ELi64ELi64ELi4ES2_EELb0ELb1EEvR16Flash_fwd_paramsP11CUstream_st = comdat any

$_Z31__device_stub__flash_fwd_kernelI23Flash_fwd_kernel_traitsILi256ELi128ELi64ELi8ELb0ELb0EN7cutlass10bfloat16_tE19Flash_kernel_traitsILi256ELi128ELi64ELi8ES2_EELb0ELb1ELb0ELb1ELb0ELb1ELb0ELb0EEv16Flash_fwd_params = comdat any

$_Z31__device_stub__flash_fwd_kernelI23Flash_fwd_kernel_traitsILi256ELi128ELi64ELi8ELb0ELb0EN7cutlass10bfloat16_tE19Flash_kernel_traitsILi256ELi128ELi64ELi8ES2_EELb0ELb1ELb0ELb0ELb0ELb1ELb0ELb0EEv16Flash_fwd_params = comdat any

$_ZZZZZZZZ13run_flash_fwdI23Flash_fwd_kernel_traitsILi256ELi128ELi64ELi8ELb0ELb0EN7cutlass10bfloat16_tE19Flash_kernel_traitsILi256ELi128ELi64ELi8ES2_EELb0ELb1EEvR16Flash_fwd_paramsP11CUstream_stENKUlvE_clEvENKUlvE_clEvENKUlvE_clEvENKUlvE_clEvENKUlvE_clEvENKUlvE0_clEvENKUlvE_clEv = comdat any

$_ZZZZZZZZZZZZZ13run_flash_fwdI23Flash_fwd_kernel_traitsILi256ELi128ELi64ELi8ELb0ELb0EN7cutlass10bfloat16_tE19Flash_kernel_traitsILi256ELi128ELi64ELi8ES2_EELb0ELb1EEvR16Flash_fwd_paramsP11CUstream_stENKUlvE_clEvENKUlvE_clEvENKUlvE_clEvENKUlvE_clEvENKUlvE_clEvENKUlvE0_clEvENKUlvE_clEvENKUlvE_clEvENKUlvE_clEvENKUlvE_clEvENKUlvE_clEvENKUlvE_clEv = comdat any

$_ZZZZZZZZZZZZZ13run_flash_fwdI23Flash_fwd_kernel_traitsILi256ELi128ELi64ELi8ELb0ELb0EN7cutlass10bfloat16_tE19Flash_kernel_traitsILi256ELi128ELi64ELi8ES2_EELb0ELb1EEvR16Flash_fwd_paramsP11CUstream_stENKUlvE_clEvENKUlvE_clEvENKUlvE_clEvENKUlvE_clEvENKUlvE_clEvENKUlvE0_clEvENKUlvE_clEvENKUlvE_clEvENKUlvE_clEvENKUlvE_clEvENKUlvE_clEvENKUlvE0_clEv = comdat any

$_ZZZZZZZZZZZZZ13run_flash_fwdI23Flash_fwd_kernel_traitsILi256ELi128ELi64ELi8ELb0ELb0EN7cutlass10bfloat16_tE19Flash_kernel_traitsILi256ELi128ELi64ELi8ES2_EELb0ELb1EEvR16Flash_fwd_paramsP11CUstream_stENKUlvE_clEvENKUlvE_clEvENKUlvE_clEvENKUlvE_clEvENKUlvE_clEvENKUlvE0_clEvENKUlvE_clEvENKUlvE_clEvENKUlvE_clEvENKUlvE0_clEvENKUlvE_clEvENKUlvE_clEv = comdat any

$_ZZZZZZZZZZZZZ13run_flash_fwdI23Flash_fwd_kernel_traitsILi256ELi128ELi64ELi8ELb0ELb0EN7cutlass10bfloat16_tE19Flash_kernel_traitsILi256ELi128ELi64ELi8ES2_EELb0ELb1EEvR16Flash_fwd_paramsP11CUstream_stENKUlvE_clEvENKUlvE_clEvENKUlvE_clEvENKUlvE_clEvENKUlvE_clEvENKUlvE0_clEvENKUlvE_clEvENKUlvE_clEvENKUlvE_clEvENKUlvE0_clEvENKUlvE_clEvENKUlvE0_clEv = comdat any

$_ZZZZZZZZZZZZZ13run_flash_fwdI23Flash_fwd_kernel_traitsILi256ELi128ELi64ELi8ELb0ELb0EN7cutlass10bfloat16_tE19Flash_kernel_traitsILi256ELi128ELi64ELi8ES2_EELb0ELb1EEvR16Flash_fwd_paramsP11CUstream_stENKUlvE_clEvENKUlvE_clEvENKUlvE_clEvENKUlvE_clEvENKUlvE_clEvENKUlvE0_clEvENKUlvE_clEvENKUlvE0_clEvENKUlvE_clEvENKUlvE_clEvENKUlvE_clEvENKUlvE_clEv = comdat any

$_ZZZZZZZZZZZZZ13run_flash_fwdI23Flash_fwd_kernel_traitsILi256ELi128ELi64ELi8ELb0ELb0EN7cutlass10bfloat16_tE19Flash_kernel_traitsILi256ELi128ELi64ELi8ES2_EELb0ELb1EEvR16Flash_fwd_paramsP11CUstream_stENKUlvE_clEvENKUlvE_clEvENKUlvE_clEvENKUlvE_clEvENKUlvE_clEvENKUlvE0_clEvENKUlvE_clEvENKUlvE0_clEvENKUlvE_clEvENKUlvE_clEvENKUlvE_clEvENKUlvE0_clEv = comdat any

$_ZZZZZZZZZZZZZ13run_flash_fwdI23Flash_fwd_kernel_traitsILi256ELi128ELi64ELi8ELb0ELb0EN7cutlass10bfloat16_tE19Flash_kernel_traitsILi256ELi128ELi64ELi8ES2_EELb0ELb1EEvR16Flash_fwd_paramsP11CUstream_stENKUlvE_clEvENKUlvE_clEvENKUlvE_clEvENKUlvE_clEvENKUlvE_clEvENKUlvE0_clEvENKUlvE_clEvENKUlvE0_clEvENKUlvE_clEvENKUlvE0_clEvENKUlvE_clEvENKUlvE_clEv = comdat any

$_ZZZZZZZZZZZZZ13run_flash_fwdI23Flash_fwd_kernel_traitsILi256ELi128ELi64ELi8ELb0ELb0EN7cutlass10bfloat16_tE19Flash_kernel_traitsILi256ELi128ELi64ELi8ES2_EELb0ELb1EEvR16Flash_fwd_paramsP11CUstream_stENKUlvE_clEvENKUlvE_clEvENKUlvE_clEvENKUlvE_clEvENKUlvE_clEvENKUlvE0_clEvENKUlvE_clEvENKUlvE0_clEvENKUlvE_clEvENKUlvE0_clEvENKUlvE_clEvENKUlvE0_clEv = comdat any

$_Z31__device_stub__flash_fwd_kernelI23Flash_fwd_kernel_traitsILi256ELi128ELi64ELi8ELb0ELb0EN7cutlass10bfloat16_tE19Flash_kernel_traitsILi256ELi128ELi64ELi8ES2_EELb0ELb1ELb0ELb1ELb0ELb0ELb0ELb0EEv16Flash_fwd_params = comdat any

$_Z31__device_stub__flash_fwd_kernelI23Flash_fwd_kernel_traitsILi256ELi128ELi64ELi8ELb0ELb0EN7cutlass10bfloat16_tE19Flash_kernel_traitsILi256ELi128ELi64ELi8ES2_EELb0ELb1ELb0ELb0ELb0ELb0ELb0ELb0EEv16Flash_fwd_params = comdat any

$_ZZZZZZZZ13run_flash_fwdI23Flash_fwd_kernel_traitsILi256ELi128ELi64ELi8ELb0ELb0EN7cutlass10bfloat16_tE19Flash_kernel_traitsILi256ELi128ELi64ELi8ES2_EELb0ELb1EEvR16Flash_fwd_paramsP11CUstream_stENKUlvE_clEvENKUlvE_clEvENKUlvE_clEvENKUlvE0_clEvENKUlvE_clEvENKUlvE0_clEvENKUlvE_clEv = comdat any

$_ZZZZZZZZZZZZZ13run_flash_fwdI23Flash_fwd_kernel_traitsILi256ELi128ELi64ELi8ELb0ELb0EN7cutlass10bfloat16_tE19Flash_kernel_traitsILi256ELi128ELi64ELi8ES2_EELb0ELb1EEvR16Flash_fwd_paramsP11CUstream_stENKUlvE_clEvENKUlvE_clEvENKUlvE_clEvENKUlvE0_clEvENKUlvE_clEvENKUlvE0_clEvENKUlvE_clEvENKUlvE_clEvENKUlvE_clEvENKUlvE_clEvENKUlvE_clEvENKUlvE_clEv = comdat any

$_ZZZZZZZZZZZZZ13run_flash_fwdI23Flash_fwd_kernel_traitsILi256ELi128ELi64ELi8ELb0ELb0EN7cutlass10bfloat16_tE19Flash_kernel_traitsILi256ELi128ELi64ELi8ES2_EELb0ELb1EEvR16Flash_fwd_paramsP11CUstream_stENKUlvE_clEvENKUlvE_clEvENKUlvE_clEvENKUlvE0_clEvENKUlvE_clEvENKUlvE0_clEvENKUlvE_clEvENKUlvE_clEvENKUlvE_clEvENKUlvE_clEvENKUlvE_clEvENKUlvE0_clEv = comdat any

$_ZZZZZZZZZZZZZ13run_flash_fwdI23Flash_fwd_kernel_traitsILi256ELi128ELi64ELi8ELb0ELb0EN7cutlass10bfloat16_tE19Flash_kernel_traitsILi256ELi128ELi64ELi8ES2_EELb0ELb1EEvR16Flash_fwd_paramsP11CUstream_stENKUlvE_clEvENKUlvE_clEvENKUlvE_clEvENKUlvE0_clEvENKUlvE_clEvENKUlvE0_clEvENKUlvE_clEvENKUlvE_clEvENKUlvE_clEvENKUlvE0_clEvENKUlvE_clEvENKUlvE_clEv = comdat any

$_ZZZZZZZZZZZZZ13run_flash_fwdI23Flash_fwd_kernel_traitsILi256ELi128ELi64ELi8ELb0ELb0EN7cutlass10bfloat16_tE19Flash_kernel_traitsILi256ELi128ELi64ELi8ES2_EELb0ELb1EEvR16Flash_fwd_paramsP11CUstream_stENKUlvE_clEvENKUlvE_clEvENKUlvE_clEvENKUlvE0_clEvENKUlvE_clEvENKUlvE0_clEvENKUlvE_clEvENKUlvE_clEvENKUlvE_clEvENKUlvE0_clEvENKUlvE_clEvENKUlvE0_clEv = comdat any

$_ZZZZZZZZZZZZZ13run_flash_fwdI23Flash_fwd_kernel_traitsILi256ELi128ELi64ELi8ELb0ELb0EN7cutlass10bfloat16_tE19Flash_kernel_traitsILi256ELi128ELi64ELi8ES2_EELb0ELb1EEvR16Flash_fwd_paramsP11CUstream_stENKUlvE_clEvENKUlvE_clEvENKUlvE_clEvENKUlvE0_clEvENKUlvE_clEvENKUlvE0_clEvENKUlvE_clEvENKUlvE0_clEvENKUlvE_clEvENKUlvE_clEvENKUlvE_clEvENKUlvE_clEv = comdat any

$_ZZZZZZZZZZZZZ13run_flash_fwdI23Flash_fwd_kernel_traitsILi256ELi128ELi64ELi8ELb0ELb0EN7cutlass10bfloat16_tE19Flash_kernel_traitsILi256ELi128ELi64ELi8ES2_EELb0ELb1EEvR16Flash_fwd_paramsP11CUstream_stENKUlvE_clEvENKUlvE_clEvENKUlvE_clEvENKUlvE0_clEvENKUlvE_clEvENKUlvE0_clEvENKUlvE_clEvENKUlvE0_clEvENKUlvE_clEvENKUlvE_clEvENKUlvE_clEvENKUlvE0_clEv = comdat any

$_ZZZZZZZZZZZZZ13run_flash_fwdI23Flash_fwd_kernel_traitsILi256ELi128ELi64ELi8ELb0ELb0EN7cutlass10bfloat16_tE19Flash_kernel_traitsILi256ELi128ELi64ELi8ES2_EELb0ELb1EEvR16Flash_fwd_paramsP11CUstream_stENKUlvE_clEvENKUlvE_clEvENKUlvE_clEvENKUlvE0_clEvENKUlvE_clEvENKUlvE0_clEvENKUlvE_clEvENKUlvE0_clEvENKUlvE_clEvENKUlvE0_clEvENKUlvE_clEvENKUlvE_clEv = comdat any

$_ZZZZZZZZZZZZZ13run_flash_fwdI23Flash_fwd_kernel_traitsILi256ELi128ELi64ELi8ELb0ELb0EN7cutlass10bfloat16_tE19Flash_kernel_traitsILi256ELi128ELi64ELi8ES2_EELb0ELb1EEvR16Flash_fwd_paramsP11CUstream_stENKUlvE_clEvENKUlvE_clEvENKUlvE_clEvENKUlvE0_clEvENKUlvE_clEvENKUlvE0_clEvENKUlvE_clEvENKUlvE0_clEvENKUlvE_clEvENKUlvE0_clEvENKUlvE_clEvENKUlvE0_clEv = comdat any

$_ZZZZZZZZ13run_flash_fwdI23Flash_fwd_kernel_traitsILi256ELi128ELi64ELi8ELb0ELb0EN7cutlass10bfloat16_tE19Flash_kernel_traitsILi256ELi128ELi64ELi8ES2_EELb0ELb1EEvR16Flash_fwd_paramsP11CUstream_stENKUlvE_clEvENKUlvE0_clEvENKUlvE_clEvENKUlvE_clEvENKUlvE_clEvENKUlvE0_clEvENKUlvE_clEv = comdat any

$_ZZZZZZZZZZZZZ13run_flash_fwdI23Flash_fwd_kernel_traitsILi256ELi128ELi64ELi8ELb0ELb0EN7cutlass10bfloat16_tE19Flash_kernel_traitsILi256ELi128ELi64ELi8ES2_EELb0ELb1EEvR16Flash_fwd_paramsP11CUstream_stENKUlvE_clEvENKUlvE0_clEvENKUlvE_clEvENKUlvE_clEvENKUlvE_clEvENKUlvE0_clEvENKUlvE_clEvENKUlvE_clEvENKUlvE_clEvENKUlvE_clEvENKUlvE_clEvENKUlvE_clEv = comdat any

$_ZZZZZZZZZZZZZ13run_flash_fwdI23Flash_fwd_kernel_traitsILi256ELi128ELi64ELi8ELb0ELb0EN7cutlass10bfloat16_tE19Flash_kernel_traitsILi256ELi128ELi64ELi8ES2_EELb0ELb1EEvR16Flash_fwd_paramsP11CUstream_stENKUlvE_clEvENKUlvE0_clEvENKUlvE_clEvENKUlvE_clEvENKUlvE_clEvENKUlvE0_clEvENKUlvE_clEvENKUlvE_clEvENKUlvE_clEvENKUlvE_clEvENKUlvE_clEvENKUlvE0_clEv = comdat any

$_ZZZZZZZZZZZZZ13run_flash_fwdI23Flash_fwd_kernel_traitsILi256ELi128ELi64ELi8ELb0ELb0EN7cutlass10bfloat16_tE19Flash_kernel_traitsILi256ELi128ELi64ELi8ES2_EELb0ELb1EEvR16Flash_fwd_paramsP11CUstream_stENKUlvE_clEvENKUlvE0_clEvENKUlvE_clEvENKUlvE_clEvENKUlvE_clEvENKUlvE0_clEvENKUlvE_clEvENKUlvE_clEvENKUlvE_clEvENKUlvE0_clEvENKUlvE_clEvENKUlvE_clEv = comdat any

$_ZZZZZZZZZZZZZ13run_flash_fwdI23Flash_fwd_kernel_traitsILi256ELi128ELi64ELi8ELb0ELb0EN7cutlass10bfloat16_tE19Flash_kernel_traitsILi256ELi128ELi64ELi8ES2_EELb0ELb1EEvR16Flash_fwd_paramsP11CUstream_stENKUlvE_clEvENKUlvE0_clEvENKUlvE_clEvENKUlvE_clEvENKUlvE_clEvENKUlvE0_clEvENKUlvE_clEvENKUlvE_clEvENKUlvE_clEvENKUlvE0_clEvENKUlvE_clEvENKUlvE0_clEv = comdat any

$_ZZZZZZZZZZZZZ13run_flash_fwdI23Flash_fwd_kernel_traitsILi256ELi128ELi64ELi8ELb0ELb0EN7cutlass10bfloat16_tE19Flash_kernel_traitsILi256ELi128ELi64ELi8ES2_EELb0ELb1EEvR16Flash_fwd_paramsP11CUstream_stENKUlvE_clEvENKUlvE0_clEvENKUlvE_clEvENKUlvE_clEvENKUlvE_clEvENKUlvE0_clEvENKUlvE_clEvENKUlvE0_clEvENKUlvE_clEvENKUlvE_clEvENKUlvE_clEvENKUlvE_clEv = comdat any

$_ZZZZZZZZZZZZZ13run_flash_fwdI23Flash_fwd_kernel_traitsILi256ELi128ELi64ELi8ELb0ELb0EN7cutlass10bfloat16_tE19Flash_kernel_traitsILi256ELi128ELi64ELi8ES2_EELb0ELb1EEvR16Flash_fwd_paramsP11CUstream_stENKUlvE_clEvENKUlvE0_clEvENKUlvE_clEvENKUlvE_clEvENKUlvE_clEvENKUlvE0_clEvENKUlvE_clEvENKUlvE0_clEvENKUlvE_clEvENKUlvE_clEvENKUlvE_clEvENKUlvE0_clEv = comdat any

$_ZZZZZZZZZZZZZ13run_flash_fwdI23Flash_fwd_kernel_traitsILi256ELi128ELi64ELi8ELb0ELb0EN7cutlass10bfloat16_tE19Flash_kernel_traitsILi256ELi128ELi64ELi8ES2_EELb0ELb1EEvR16Flash_fwd_paramsP11CUstream_stENKUlvE_clEvENKUlvE0_clEvENKUlvE_clEvENKUlvE_clEvENKUlvE_clEvENKUlvE0_clEvENKUlvE_clEvENKUlvE0_clEvENKUlvE_clEvENKUlvE0_clEvENKUlvE_clEvENKUlvE_clEv = comdat any

$_ZZZZZZZZZZZZZ13run_flash_fwdI23Flash_fwd_kernel_traitsILi256ELi128ELi64ELi8ELb0ELb0EN7cutlass10bfloat16_tE19Flash_kernel_traitsILi256ELi128ELi64ELi8ES2_EELb0ELb1EEvR16Flash_fwd_paramsP11CUstream_stENKUlvE_clEvENKUlvE0_clEvENKUlvE_clEvENKUlvE_clEvENKUlvE_clEvENKUlvE0_clEvENKUlvE_clEvENKUlvE0_clEvENKUlvE_clEvENKUlvE0_clEvENKUlvE_clEvENKUlvE0_clEv = comdat any

$_ZZZZZZZZ13run_flash_fwdI23Flash_fwd_kernel_traitsILi256ELi128ELi64ELi8ELb0ELb0EN7cutlass10bfloat16_tE19Flash_kernel_traitsILi256ELi128ELi64ELi8ES2_EELb0ELb1EEvR16Flash_fwd_paramsP11CUstream_stENKUlvE_clEvENKUlvE0_clEvENKUlvE_clEvENKUlvE0_clEvENKUlvE_clEvENKUlvE0_clEvENKUlvE_clEv = comdat any

$_ZZZZZZZZZZZZZ13run_flash_fwdI23Flash_fwd_kernel_traitsILi256ELi128ELi64ELi8ELb0ELb0EN7cutlass10bfloat16_tE19Flash_kernel_traitsILi256ELi128ELi64ELi8ES2_EELb0ELb1EEvR16Flash_fwd_paramsP11CUstream_stENKUlvE_clEvENKUlvE0_clEvENKUlvE_clEvENKUlvE0_clEvENKUlvE_clEvENKUlvE0_clEvENKUlvE_clEvENKUlvE_clEvENKUlvE_clEvENKUlvE_clEvENKUlvE_clEvENKUlvE_clEv = comdat any

$_ZZZZZZZZZZZZZ13run_flash_fwdI23Flash_fwd_kernel_traitsILi256ELi128ELi64ELi8ELb0ELb0EN7cutlass10bfloat16_tE19Flash_kernel_traitsILi256ELi128ELi64ELi8ES2_EELb0ELb1EEvR16Flash_fwd_paramsP11CUstream_stENKUlvE_clEvENKUlvE0_clEvENKUlvE_clEvENKUlvE0_clEvENKUlvE_clEvENKUlvE0_clEvENKUlvE_clEvENKUlvE_clEvENKUlvE_clEvENKUlvE_clEvENKUlvE_clEvENKUlvE0_clEv = comdat any

$_ZZZZZZZZZZZZZ13run_flash_fwdI23Flash_fwd_kernel_traitsILi256ELi128ELi64ELi8ELb0ELb0EN7cutlass10bfloat16_tE19Flash_kernel_traitsILi256ELi128ELi64ELi8ES2_EELb0ELb1EEvR16Flash_fwd_paramsP11CUstream_stENKUlvE_clEvENKUlvE0_clEvENKUlvE_clEvENKUlvE0_clEvENKUlvE_clEvENKUlvE0_clEvENKUlvE_clEvENKUlvE_clEvENKUlvE_clEvENKUlvE0_clEvENKUlvE_clEvENKUlvE_clEv = comdat any

$_ZZZZZZZZZZZZZ13run_flash_fwdI23Flash_fwd_kernel_traitsILi256ELi128ELi64ELi8ELb0ELb0EN7cutlass10bfloat16_tE19Flash_kernel_traitsILi256ELi128ELi64ELi8ES2_EELb0ELb1EEvR16Flash_fwd_paramsP11CUstream_stENKUlvE_clEvENKUlvE0_clEvENKUlvE_clEvENKUlvE0_clEvENKUlvE_clEvENKUlvE0_clEvENKUlvE_clEvENKUlvE_clEvENKUlvE_clEvENKUlvE0_clEvENKUlvE_clEvENKUlvE0_clEv = comdat any

$_ZZZZZZZZZZZZZ13run_flash_fwdI23Flash_fwd_kernel_traitsILi256ELi128ELi64ELi8ELb0ELb0EN7cutlass10bfloat16_tE19Flash_kernel_traitsILi256ELi128ELi64ELi8ES2_EELb0ELb1EEvR16Flash_fwd_paramsP11CUstream_stENKUlvE_clEvENKUlvE0_clEvENKUlvE_clEvENKUlvE0_clEvENKUlvE_clEvENKUlvE0_clEvENKUlvE_clEvENKUlvE0_clEvENKUlvE_clEvENKUlvE_clEvENKUlvE_clEvENKUlvE_clEv = comdat any

$_ZZZZZZZZZZZZZ13run_flash_fwdI23Flash_fwd_kernel_traitsILi256ELi128ELi64ELi8ELb0ELb0EN7cutlass10bfloat16_tE19Flash_kernel_traitsILi256ELi128ELi64ELi8ES2_EELb0ELb1EEvR16Flash_fwd_paramsP11CUstream_stENKUlvE_clEvENKUlvE0_clEvENKUlvE_clEvENKUlvE0_clEvENKUlvE_clEvENKUlvE0_clEvENKUlvE_clEvENKUlvE0_clEvENKUlvE_clEvENKUlvE_clEvENKUlvE_clEvENKUlvE0_clEv = comdat any

$_ZZZZZZZZZZZZZ13run_flash_fwdI23Flash_fwd_kernel_traitsILi256ELi128ELi64ELi8ELb0ELb0EN7cutlass10bfloat16_tE19Flash_kernel_traitsILi256ELi128ELi64ELi8ES2_EELb0ELb1EEvR16Flash_fwd_paramsP11CUstream_stENKUlvE_clEvENKUlvE0_clEvENKUlvE_clEvENKUlvE0_clEvENKUlvE_clEvENKUlvE0_clEvENKUlvE_clEvENKUlvE0_clEvENKUlvE_clEvENKUlvE0_clEvENKUlvE_clEvENKUlvE_clEv = comdat any

$_ZZZZZZZZZZZZZ13run_flash_fwdI23Flash_fwd_kernel_traitsILi256ELi128ELi64ELi8ELb0ELb0EN7cutlass10bfloat16_tE19Flash_kernel_traitsILi256ELi128ELi64ELi8ES2_EELb0ELb1EEvR16Flash_fwd_paramsP11CUstream_stENKUlvE_clEvENKUlvE0_clEvENKUlvE_clEvENKUlvE0_clEvENKUlvE_clEvENKUlvE0_clEvENKUlvE_clEvENKUlvE0_clEvENKUlvE_clEvENKUlvE0_clEvENKUlvE_clEvENKUlvE0_clEv = comdat any

$_Z31__device_stub__flash_fwd_kernelI23Flash_fwd_kernel_traitsILi256ELi64ELi64ELi4ELb0ELb0EN7cutlass10bfloat16_tE19Flash_kernel_traitsILi256ELi64ELi64ELi4ES2_EELb0ELb1ELb0ELb1ELb0ELb1ELb0ELb0EEv16Flash_fwd_params = comdat any

$_Z31__device_stub__flash_fwd_kernelI23Flash_fwd_kernel_traitsILi256ELi64ELi64ELi4ELb0ELb0EN7cutlass10bfloat16_tE19Flash_kernel_traitsILi256ELi64ELi64ELi4ES2_EELb0ELb1ELb0ELb0ELb0ELb1ELb0ELb0EEv16Flash_fwd_params = comdat any

$_ZZZZZZZZ13run_flash_fwdI23Flash_fwd_kernel_traitsILi256ELi64ELi64ELi4ELb0ELb0EN7cutlass10bfloat16_tE19Flash_kernel_traitsILi256ELi64ELi64ELi4ES2_EELb0ELb1EEvR16Flash_fwd_paramsP11CUstream_stENKUlvE_clEvENKUlvE_clEvENKUlvE_clEvENKUlvE_clEvENKUlvE_clEvENKUlvE0_clEvENKUlvE_clEv = comdat any

$_ZZZZZZZZZZZZZ13run_flash_fwdI23Flash_fwd_kernel_traitsILi256ELi64ELi64ELi4ELb0ELb0EN7cutlass10bfloat16_tE19Flash_kernel_traitsILi256ELi64ELi64ELi4ES2_EELb0ELb1EEvR16Flash_fwd_paramsP11CUstream_stENKUlvE_clEvENKUlvE_clEvENKUlvE_clEvENKUlvE_clEvENKUlvE_clEvENKUlvE0_clEvENKUlvE_clEvENKUlvE_clEvENKUlvE_clEvENKUlvE_clEvENKUlvE_clEvENKUlvE_clEv = comdat any

$_ZZZZZZZZZZZZZ13run_flash_fwdI23Flash_fwd_kernel_traitsILi256ELi64ELi64ELi4ELb0ELb0EN7cutlass10bfloat16_tE19Flash_kernel_traitsILi256ELi64ELi64ELi4ES2_EELb0ELb1EEvR16Flash_fwd_paramsP11CUstream_stENKUlvE_clEvENKUlvE_clEvENKUlvE_clEvENKUlvE_clEvENKUlvE_clEvENKUlvE0_clEvENKUlvE_clEvENKUlvE_clEvENKUlvE_clEvENKUlvE_clEvENKUlvE_clEvENKUlvE0_clEv = comdat any

$_ZZZZZZZZZZZZZ13run_flash_fwdI23Flash_fwd_kernel_traitsILi256ELi64ELi64ELi4ELb0ELb0EN7cutlass10bfloat16_tE19Flash_kernel_traitsILi256ELi64ELi64ELi4ES2_EELb0ELb1EEvR16Flash_fwd_paramsP11CUstream_stENKUlvE_clEvENKUlvE_clEvENKUlvE_clEvENKUlvE_clEvENKUlvE_clEvENKUlvE0_clEvENKUlvE_clEvENKUlvE_clEvENKUlvE_clEvENKUlvE0_clEvENKUlvE_clEvENKUlvE_clEv = comdat any

$_ZZZZZZZZZZZZZ13run_flash_fwdI23Flash_fwd_kernel_traitsILi256ELi64ELi64ELi4ELb0ELb0EN7cutlass10bfloat16_tE19Flash_kernel_traitsILi256ELi64ELi64ELi4ES2_EELb0ELb1EEvR16Flash_fwd_paramsP11CUstream_stENKUlvE_clEvENKUlvE_clEvENKUlvE_clEvENKUlvE_clEvENKUlvE_clEvENKUlvE0_clEvENKUlvE_clEvENKUlvE_clEvENKUlvE_clEvENKUlvE0_clEvENKUlvE_clEvENKUlvE0_clEv = comdat any

$_ZZZZZZZZZZZZZ13run_flash_fwdI23Flash_fwd_kernel_traitsILi256ELi64ELi64ELi4ELb0ELb0EN7cutlass10bfloat16_tE19Flash_kernel_traitsILi256ELi64ELi64ELi4ES2_EELb0ELb1EEvR16Flash_fwd_paramsP11CUstream_stENKUlvE_clEvENKUlvE_clEvENKUlvE_clEvENKUlvE_clEvENKUlvE_clEvENKUlvE0_clEvENKUlvE_clEvENKUlvE0_clEvENKUlvE_clEvENKUlvE_clEvENKUlvE_clEvENKUlvE_clEv = comdat any

$_ZZZZZZZZZZZZZ13run_flash_fwdI23Flash_fwd_kernel_traitsILi256ELi64ELi64ELi4ELb0ELb0EN7cutlass10bfloat16_tE19Flash_kernel_traitsILi256ELi64ELi64ELi4ES2_EELb0ELb1EEvR16Flash_fwd_paramsP11CUstream_stENKUlvE_clEvENKUlvE_clEvENKUlvE_clEvENKUlvE_clEvENKUlvE_clEvENKUlvE0_clEvENKUlvE_clEvENKUlvE0_clEvENKUlvE_clEvENKUlvE_clEvENKUlvE_clEvENKUlvE0_clEv = comdat any

$_ZZZZZZZZZZZZZ13run_flash_fwdI23Flash_fwd_kernel_traitsILi256ELi64ELi64ELi4ELb0ELb0EN7cutlass10bfloat16_tE19Flash_kernel_traitsILi256ELi64ELi64ELi4ES2_EELb0ELb1EEvR16Flash_fwd_paramsP11CUstream_stENKUlvE_clEvENKUlvE_clEvENKUlvE_clEvENKUlvE_clEvENKUlvE_clEvENKUlvE0_clEvENKUlvE_clEvENKUlvE0_clEvENKUlvE_clEvENKUlvE0_clEvENKUlvE_clEvENKUlvE_clEv = comdat any

$_ZZZZZZZZZZZZZ13run_flash_fwdI23Flash_fwd_kernel_traitsILi256ELi64ELi64ELi4ELb0ELb0EN7cutlass10bfloat16_tE19Flash_kernel_traitsILi256ELi64ELi64ELi4ES2_EELb0ELb1EEvR16Flash_fwd_paramsP11CUstream_stENKUlvE_clEvENKUlvE_clEvENKUlvE_clEvENKUlvE_clEvENKUlvE_clEvENKUlvE0_clEvENKUlvE_clEvENKUlvE0_clEvENKUlvE_clEvENKUlvE0_clEvENKUlvE_clEvENKUlvE0_clEv = comdat any

$_Z31__device_stub__flash_fwd_kernelI23Flash_fwd_kernel_traitsILi256ELi64ELi64ELi4ELb0ELb0EN7cutlass10bfloat16_tE19Flash_kernel_traitsILi256ELi64ELi64ELi4ES2_EELb0ELb1ELb0ELb1ELb0ELb0ELb0ELb0EEv16Flash_fwd_params = comdat any

$_Z31__device_stub__flash_fwd_kernelI23Flash_fwd_kernel_traitsILi256ELi64ELi64ELi4ELb0ELb0EN7cutlass10bfloat16_tE19Flash_kernel_traitsILi256ELi64ELi64ELi4ES2_EELb0ELb1ELb0ELb0ELb0ELb0ELb0ELb0EEv16Flash_fwd_params = comdat any

$_ZZZZZZZZ13run_flash_fwdI23Flash_fwd_kernel_traitsILi256ELi64ELi64ELi4ELb0ELb0EN7cutlass10bfloat16_tE19Flash_kernel_traitsILi256ELi64ELi64ELi4ES2_EELb0ELb1EEvR16Flash_fwd_paramsP11CUstream_stENKUlvE_clEvENKUlvE_clEvENKUlvE_clEvENKUlvE0_clEvENKUlvE_clEvENKUlvE0_clEvENKUlvE_clEv = comdat any

$_ZZZZZZZZZZZZZ13run_flash_fwdI23Flash_fwd_kernel_traitsILi256ELi64ELi64ELi4ELb0ELb0EN7cutlass10bfloat16_tE19Flash_kernel_traitsILi256ELi64ELi64ELi4ES2_EELb0ELb1EEvR16Flash_fwd_paramsP11CUstream_stENKUlvE_clEvENKUlvE_clEvENKUlvE_clEvENKUlvE0_clEvENKUlvE_clEvENKUlvE0_clEvENKUlvE_clEvENKUlvE_clEvENKUlvE_clEvENKUlvE_clEvENKUlvE_clEvENKUlvE_clEv = comdat any

$_ZZZZZZZZZZZZZ13run_flash_fwdI23Flash_fwd_kernel_traitsILi256ELi64ELi64ELi4ELb0ELb0EN7cutlass10bfloat16_tE19Flash_kernel_traitsILi256ELi64ELi64ELi4ES2_EELb0ELb1EEvR16Flash_fwd_paramsP11CUstream_stENKUlvE_clEvENKUlvE_clEvENKUlvE_clEvENKUlvE0_clEvENKUlvE_clEvENKUlvE0_clEvENKUlvE_clEvENKUlvE_clEvENKUlvE_clEvENKUlvE_clEvENKUlvE_clEvENKUlvE0_clEv = comdat any

$_ZZZZZZZZZZZZZ13run_flash_fwdI23Flash_fwd_kernel_traitsILi256ELi64ELi64ELi4ELb0ELb0EN7cutlass10bfloat16_tE19Flash_kernel_traitsILi256ELi64ELi64ELi4ES2_EELb0ELb1EEvR16Flash_fwd_paramsP11CUstream_stENKUlvE_clEvENKUlvE_clEvENKUlvE_clEvENKUlvE0_clEvENKUlvE_clEvENKUlvE0_clEvENKUlvE_clEvENKUlvE_clEvENKUlvE_clEvENKUlvE0_clEvENKUlvE_clEvENKUlvE_clEv = comdat any

$_ZZZZZZZZZZZZZ13run_flash_fwdI23Flash_fwd_kernel_traitsILi256ELi64ELi64ELi4ELb0ELb0EN7cutlass10bfloat16_tE19Flash_kernel_traitsILi256ELi64ELi64ELi4ES2_EELb0ELb1EEvR16Flash_fwd_paramsP11CUstream_stENKUlvE_clEvENKUlvE_clEvENKUlvE_clEvENKUlvE0_clEvENKUlvE_clEvENKUlvE0_clEvENKUlvE_clEvENKUlvE_clEvENKUlvE_clEvENKUlvE0_clEvENKUlvE_clEvENKUlvE0_clEv = comdat any

$_ZZZZZZZZZZZZZ13run_flash_fwdI23Flash_fwd_kernel_traitsILi256ELi64ELi64ELi4ELb0ELb0EN7cutlass10bfloat16_tE19Flash_kernel_traitsILi256ELi64ELi64ELi4ES2_EELb0ELb1EEvR16Flash_fwd_paramsP11CUstream_stENKUlvE_clEvENKUlvE_clEvENKUlvE_clEvENKUlvE0_clEvENKUlvE_clEvENKUlvE0_clEvENKUlvE_clEvENKUlvE0_clEvENKUlvE_clEvENKUlvE_clEvENKUlvE_clEvENKUlvE_clEv = comdat any

$_ZZZZZZZZZZZZZ13run_flash_fwdI23Flash_fwd_kernel_traitsILi256ELi64ELi64ELi4ELb0ELb0EN7cutlass10bfloat16_tE19Flash_kernel_traitsILi256ELi64ELi64ELi4ES2_EELb0ELb1EEvR16Flash_fwd_paramsP11CUstream_stENKUlvE_clEvENKUlvE_clEvENKUlvE_clEvENKUlvE0_clEvENKUlvE_clEvENKUlvE0_clEvENKUlvE_clEvENKUlvE0_clEvENKUlvE_clEvENKUlvE_clEvENKUlvE_clEvENKUlvE0_clEv = comdat any

$_ZZZZZZZZZZZZZ13run_flash_fwdI23Flash_fwd_kernel_traitsILi256ELi64ELi64ELi4ELb0ELb0EN7cutlass10bfloat16_tE19Flash_kernel_traitsILi256ELi64ELi64ELi4ES2_EELb0ELb1EEvR16Flash_fwd_paramsP11CUstream_stENKUlvE_clEvENKUlvE_clEvENKUlvE_clEvENKUlvE0_clEvENKUlvE_clEvENKUlvE0_clEvENKUlvE_clEvENKUlvE0_clEvENKUlvE_clEvENKUlvE0_clEvENKUlvE_clEvENKUlvE_clEv = comdat any

$_ZZZZZZZZZZZZZ13run_flash_fwdI23Flash_fwd_kernel_traitsILi256ELi64ELi64ELi4ELb0ELb0EN7cutlass10bfloat16_tE19Flash_kernel_traitsILi256ELi64ELi64ELi4ES2_EELb0ELb1EEvR16Flash_fwd_paramsP11CUstream_stENKUlvE_clEvENKUlvE_clEvENKUlvE_clEvENKUlvE0_clEvENKUlvE_clEvENKUlvE0_clEvENKUlvE_clEvENKUlvE0_clEvENKUlvE_clEvENKUlvE0_clEvENKUlvE_clEvENKUlvE0_clEv = comdat any

$_ZZZZZZZZ13run_flash_fwdI23Flash_fwd_kernel_traitsILi256ELi64ELi64ELi4ELb0ELb0EN7cutlass10bfloat16_tE19Flash_kernel_traitsILi256ELi64ELi64ELi4ES2_EELb0ELb1EEvR16Flash_fwd_paramsP11CUstream_stENKUlvE_clEvENKUlvE0_clEvENKUlvE_clEvENKUlvE_clEvENKUlvE_clEvENKUlvE0_clEvENKUlvE_clEv = comdat any

$_ZZZZZZZZZZZZZ13run_flash_fwdI23Flash_fwd_kernel_traitsILi256ELi64ELi64ELi4ELb0ELb0EN7cutlass10bfloat16_tE19Flash_kernel_traitsILi256ELi64ELi64ELi4ES2_EELb0ELb1EEvR16Flash_fwd_paramsP11CUstream_stENKUlvE_clEvENKUlvE0_clEvENKUlvE_clEvENKUlvE_clEvENKUlvE_clEvENKUlvE0_clEvENKUlvE_clEvENKUlvE_clEvENKUlvE_clEvENKUlvE_clEvENKUlvE_clEvENKUlvE_clEv = comdat any

$_ZZZZZZZZZZZZZ13run_flash_fwdI23Flash_fwd_kernel_traitsILi256ELi64ELi64ELi4ELb0ELb0EN7cutlass10bfloat16_tE19Flash_kernel_traitsILi256ELi64ELi64ELi4ES2_EELb0ELb1EEvR16Flash_fwd_paramsP11CUstream_stENKUlvE_clEvENKUlvE0_clEvENKUlvE_clEvENKUlvE_clEvENKUlvE_clEvENKUlvE0_clEvENKUlvE_clEvENKUlvE_clEvENKUlvE_clEvENKUlvE_clEvENKUlvE_clEvENKUlvE0_clEv = comdat any

$_ZZZZZZZZZZZZZ13run_flash_fwdI23Flash_fwd_kernel_traitsILi256ELi64ELi64ELi4ELb0ELb0EN7cutlass10bfloat16_tE19Flash_kernel_traitsILi256ELi64ELi64ELi4ES2_EELb0ELb1EEvR16Flash_fwd_paramsP11CUstream_stENKUlvE_clEvENKUlvE0_clEvENKUlvE_clEvENKUlvE_clEvENKUlvE_clEvENKUlvE0_clEvENKUlvE_clEvENKUlvE_clEvENKUlvE_clEvENKUlvE0_clEvENKUlvE_clEvENKUlvE_clEv = comdat any

$_ZZZZZZZZZZZZZ13run_flash_fwdI23Flash_fwd_kernel_traitsILi256ELi64ELi64ELi4ELb0ELb0EN7cutlass10bfloat16_tE19Flash_kernel_traitsILi256ELi64ELi64ELi4ES2_EELb0ELb1EEvR16Flash_fwd_paramsP11CUstream_stENKUlvE_clEvENKUlvE0_clEvENKUlvE_clEvENKUlvE_clEvENKUlvE_clEvENKUlvE0_clEvENKUlvE_clEvENKUlvE_clEvENKUlvE_clEvENKUlvE0_clEvENKUlvE_clEvENKUlvE0_clEv = comdat any

$_ZZZZZZZZZZZZZ13run_flash_fwdI23Flash_fwd_kernel_traitsILi256ELi64ELi64ELi4ELb0ELb0EN7cutlass10bfloat16_tE19Flash_kernel_traitsILi256ELi64ELi64ELi4ES2_EELb0ELb1EEvR16Flash_fwd_paramsP11CUstream_stENKUlvE_clEvENKUlvE0_clEvENKUlvE_clEvENKUlvE_clEvENKUlvE_clEvENKUlvE0_clEvENKUlvE_clEvENKUlvE0_clEvENKUlvE_clEvENKUlvE_clEvENKUlvE_clEvENKUlvE_clEv = comdat any

$_ZZZZZZZZZZZZZ13run_flash_fwdI23Flash_fwd_kernel_traitsILi256ELi64ELi64ELi4ELb0ELb0EN7cutlass10bfloat16_tE19Flash_kernel_traitsILi256ELi64ELi64ELi4ES2_EELb0ELb1EEvR16Flash_fwd_paramsP11CUstream_stENKUlvE_clEvENKUlvE0_clEvENKUlvE_clEvENKUlvE_clEvENKUlvE_clEvENKUlvE0_clEvENKUlvE_clEvENKUlvE0_clEvENKUlvE_clEvENKUlvE_clEvENKUlvE_clEvENKUlvE0_clEv = comdat any

$_ZZZZZZZZZZZZZ13run_flash_fwdI23Flash_fwd_kernel_traitsILi256ELi64ELi64ELi4ELb0ELb0EN7cutlass10bfloat16_tE19Flash_kernel_traitsILi256ELi64ELi64ELi4ES2_EELb0ELb1EEvR16Flash_fwd_paramsP11CUstream_stENKUlvE_clEvENKUlvE0_clEvENKUlvE_clEvENKUlvE_clEvENKUlvE_clEvENKUlvE0_clEvENKUlvE_clEvENKUlvE0_clEvENKUlvE_clEvENKUlvE0_clEvENKUlvE_clEvENKUlvE_clEv = comdat any

$_ZZZZZZZZZZZZZ13run_flash_fwdI23Flash_fwd_kernel_traitsILi256ELi64ELi64ELi4ELb0ELb0EN7cutlass10bfloat16_tE19Flash_kernel_traitsILi256ELi64ELi64ELi4ES2_EELb0ELb1EEvR16Flash_fwd_paramsP11CUstream_stENKUlvE_clEvENKUlvE0_clEvENKUlvE_clEvENKUlvE_clEvENKUlvE_clEvENKUlvE0_clEvENKUlvE_clEvENKUlvE0_clEvENKUlvE_clEvENKUlvE0_clEvENKUlvE_clEvENKUlvE0_clEv = comdat any

$_ZZZZZZZZ13run_flash_fwdI23Flash_fwd_kernel_traitsILi256ELi64ELi64ELi4ELb0ELb0EN7cutlass10bfloat16_tE19Flash_kernel_traitsILi256ELi64ELi64ELi4ES2_EELb0ELb1EEvR16Flash_fwd_paramsP11CUstream_stENKUlvE_clEvENKUlvE0_clEvENKUlvE_clEvENKUlvE0_clEvENKUlvE_clEvENKUlvE0_clEvENKUlvE_clEv = comdat any

$_ZZZZZZZZZZZZZ13run_flash_fwdI23Flash_fwd_kernel_traitsILi256ELi64ELi64ELi4ELb0ELb0EN7cutlass10bfloat16_tE19Flash_kernel_traitsILi256ELi64ELi64ELi4ES2_EELb0ELb1EEvR16Flash_fwd_paramsP11CUstream_stENKUlvE_clEvENKUlvE0_clEvENKUlvE_clEvENKUlvE0_clEvENKUlvE_clEvENKUlvE0_clEvENKUlvE_clEvENKUlvE_clEvENKUlvE_clEvENKUlvE_clEvENKUlvE_clEvENKUlvE_clEv = comdat any

$_ZZZZZZZZZZZZZ13run_flash_fwdI23Flash_fwd_kernel_traitsILi256ELi64ELi64ELi4ELb0ELb0EN7cutlass10bfloat16_tE19Flash_kernel_traitsILi256ELi64ELi64ELi4ES2_EELb0ELb1EEvR16Flash_fwd_paramsP11CUstream_stENKUlvE_clEvENKUlvE0_clEvENKUlvE_clEvENKUlvE0_clEvENKUlvE_clEvENKUlvE0_clEvENKUlvE_clEvENKUlvE_clEvENKUlvE_clEvENKUlvE_clEvENKUlvE_clEvENKUlvE0_clEv = comdat any

$_ZZZZZZZZZZZZZ13run_flash_fwdI23Flash_fwd_kernel_traitsILi256ELi64ELi64ELi4ELb0ELb0EN7cutlass10bfloat16_tE19Flash_kernel_traitsILi256ELi64ELi64ELi4ES2_EELb0ELb1EEvR16Flash_fwd_paramsP11CUstream_stENKUlvE_clEvENKUlvE0_clEvENKUlvE_clEvENKUlvE0_clEvENKUlvE_clEvENKUlvE0_clEvENKUlvE_clEvENKUlvE_clEvENKUlvE_clEvENKUlvE0_clEvENKUlvE_clEvENKUlvE_clEv = comdat any

$_ZZZZZZZZZZZZZ13run_flash_fwdI23Flash_fwd_kernel_traitsILi256ELi64ELi64ELi4ELb0ELb0EN7cutlass10bfloat16_tE19Flash_kernel_traitsILi256ELi64ELi64ELi4ES2_EELb0ELb1EEvR16Flash_fwd_paramsP11CUstream_stENKUlvE_clEvENKUlvE0_clEvENKUlvE_clEvENKUlvE0_clEvENKUlvE_clEvENKUlvE0_clEvENKUlvE_clEvENKUlvE_clEvENKUlvE_clEvENKUlvE0_clEvENKUlvE_clEvENKUlvE0_clEv = comdat any

$_ZZZZZZZZZZZZZ13run_flash_fwdI23Flash_fwd_kernel_traitsILi256ELi64ELi64ELi4ELb0ELb0EN7cutlass10bfloat16_tE19Flash_kernel_traitsILi256ELi64ELi64ELi4ES2_EELb0ELb1EEvR16Flash_fwd_paramsP11CUstream_stENKUlvE_clEvENKUlvE0_clEvENKUlvE_clEvENKUlvE0_clEvENKUlvE_clEvENKUlvE0_clEvENKUlvE_clEvENKUlvE0_clEvENKUlvE_clEvENKUlvE_clEvENKUlvE_clEvENKUlvE_clEv = comdat any

$_ZZZZZZZZZZZZZ13run_flash_fwdI23Flash_fwd_kernel_traitsILi256ELi64ELi64ELi4ELb0ELb0EN7cutlass10bfloat16_tE19Flash_kernel_traitsILi256ELi64ELi64ELi4ES2_EELb0ELb1EEvR16Flash_fwd_paramsP11CUstream_stENKUlvE_clEvENKUlvE0_clEvENKUlvE_clEvENKUlvE0_clEvENKUlvE_clEvENKUlvE0_clEvENKUlvE_clEvENKUlvE0_clEvENKUlvE_clEvENKUlvE_clEvENKUlvE_clEvENKUlvE0_clEv = comdat any

$_ZZZZZZZZZZZZZ13run_flash_fwdI23Flash_fwd_kernel_traitsILi256ELi64ELi64ELi4ELb0ELb0EN7cutlass10bfloat16_tE19Flash_kernel_traitsILi256ELi64ELi64ELi4ES2_EELb0ELb1EEvR16Flash_fwd_paramsP11CUstream_stENKUlvE_clEvENKUlvE0_clEvENKUlvE_clEvENKUlvE0_clEvENKUlvE_clEvENKUlvE0_clEvENKUlvE_clEvENKUlvE0_clEvENKUlvE_clEvENKUlvE0_clEvENKUlvE_clEvENKUlvE_clEv = comdat any

$_ZZZZZZZZZZZZZ13run_flash_fwdI23Flash_fwd_kernel_traitsILi256ELi64ELi64ELi4ELb0ELb0EN7cutlass10bfloat16_tE19Flash_kernel_traitsILi256ELi64ELi64ELi4ES2_EELb0ELb1EEvR16Flash_fwd_paramsP11CUstream_stENKUlvE_clEvENKUlvE0_clEvENKUlvE_clEvENKUlvE0_clEvENKUlvE_clEvENKUlvE0_clEvENKUlvE_clEvENKUlvE0_clEvENKUlvE_clEvENKUlvE0_clEvENKUlvE_clEvENKUlvE0_clEv = comdat any

@_ZStL8__ioinit = internal global %"class.std::ios_base::Init" zeroinitializer, align 1
@__dso_handle = external hidden global i8
@.str = private unnamed_addr constant [70 x i8] c"../../flash-attention/csrc/flash_attn/src/flash_fwd_launch_template.h\00", align 1
@__func__._Z19run_mha_fwd_hdim256IN7cutlass10bfloat16_tELb1EEvR16Flash_fwd_paramsP11CUstream_st = private unnamed_addr constant [20 x i8] c"run_mha_fwd_hdim256\00", align 1
@__func__._ZZZZZZZZZZZZZ13run_flash_fwdI23Flash_fwd_kernel_traitsILi256ELi128ELi64ELi8ELb0ELb0EN7cutlass10bfloat16_tE19Flash_kernel_traitsILi256ELi128ELi64ELi8ES2_EELb1ELb1EEvR16Flash_fwd_paramsP11CUstream_stENKUlvE_clEvENKUlvE_clEvENKUlvE_clEvENKUlvE_clEvENKUlvE_clEvENKUlvE_clEvENKUlvE_clEvENKUlvE_clEvENKUlvE_clEvENKUlvE_clEvENKUlvE_clEvENKUlvE_clEv = private unnamed_addr constant [11 x i8] c"operator()\00", align 1
@llvm.global_ctors = appending global [1 x { i32, ptr, ptr }] [{ i32, ptr, ptr } { i32 65535, ptr @_GLOBAL__sub_I_flash_fwd_hdim256_bf16_causal_sm80.cu, ptr null }]

declare void @_ZNSt8ios_base4InitC1Ev(ptr noundef nonnull align 1 dereferenceable(1)) unnamed_addr #0

; Function Attrs: nounwind
declare void @_ZNSt8ios_base4InitD1Ev(ptr noundef nonnull align 1 dereferenceable(1)) unnamed_addr #1

; Function Attrs: nofree nounwind
declare i32 @__cxa_atexit(ptr, ptr, ptr) local_unnamed_addr #2

; Function Attrs: mustprogress uwtable
define dso_local void @_Z12run_mha_fwd_IN7cutlass10bfloat16_tELi256ELb1EEvR16Flash_fwd_paramsP11CUstream_st(ptr noundef nonnull align 8 dereferenceable(458) %0, ptr noundef %1) local_unnamed_addr #3 {
  tail call void @_Z19run_mha_fwd_hdim256IN7cutlass10bfloat16_tELb1EEvR16Flash_fwd_paramsP11CUstream_st(ptr noundef nonnull align 8 dereferenceable(458) %0, ptr noundef %1)
  ret void
}

; Function Attrs: mustprogress uwtable
define linkonce_odr dso_local void @_Z19run_mha_fwd_hdim256IN7cutlass10bfloat16_tELb1EEvR16Flash_fwd_paramsP11CUstream_st(ptr noundef nonnull align 8 dereferenceable(458) %0, ptr noundef %1) local_unnamed_addr #3 comdat {
  %3 = alloca i32, align 4
  %4 = alloca i32, align 4
  %5 = alloca i32, align 4
  call void @llvm.lifetime.start.p0(i64 4, ptr nonnull %3) #9
  %6 = call i32 @cudaGetDevice(ptr noundef nonnull %3)
  call void @llvm.lifetime.start.p0(i64 4, ptr nonnull %4) #9
  call void @llvm.lifetime.start.p0(i64 4, ptr nonnull %5) #9
  %7 = load i32, ptr %3, align 4, !tbaa !6
  %8 = call i32 @cudaDeviceGetAttribute(ptr noundef nonnull %4, i32 noundef 81, i32 noundef %7)
  %9 = load i32, ptr %3, align 4, !tbaa !6
  %10 = call i32 @cudaDeviceGetAttribute(ptr noundef nonnull %5, i32 noundef 97, i32 noundef %9)
  %11 = icmp eq i32 %10, 0
  br i1 %11, label %13, label %12

12:                                               ; preds = %2
  call void @_ZN3c104cuda29c10_cuda_check_implementationEiPKcS2_ib(i32 noundef %10, ptr noundef nonnull @.str, ptr noundef nonnull @__func__._Z19run_mha_fwd_hdim256IN7cutlass10bfloat16_tELb1EEvR16Flash_fwd_paramsP11CUstream_st, i32 noundef 313, i1 noundef zeroext true)
  br label %13

13:                                               ; preds = %12, %2
  %14 = getelementptr inbounds %struct.Flash_fwd_params, ptr %0, i64 0, i32 40
  %15 = load float, ptr %14, align 4, !tbaa !10
  %16 = fcmp olt float %15, 1.000000e+00
  %17 = load i32, ptr %5, align 4, !tbaa !6
  %18 = icmp sgt i32 %17, 131071
  %19 = load i32, ptr %4, align 4
  %20 = icmp slt i32 %19, 196608
  %21 = select i1 %18, i1 %20, i1 false
  br i1 %16, label %22, label %25

22:                                               ; preds = %13
  br i1 %21, label %23, label %24

23:                                               ; preds = %22
  call void @_Z13run_flash_fwdI23Flash_fwd_kernel_traitsILi256ELi128ELi64ELi8ELb0ELb0EN7cutlass10bfloat16_tE19Flash_kernel_traitsILi256ELi128ELi64ELi8ES2_EELb1ELb1EEvR16Flash_fwd_paramsP11CUstream_st(ptr noundef nonnull align 8 dereferenceable(458) %0, ptr noundef %1)
  br label %28

24:                                               ; preds = %22
  call void @_Z13run_flash_fwdI23Flash_fwd_kernel_traitsILi256ELi64ELi64ELi4ELb0ELb0EN7cutlass10bfloat16_tE19Flash_kernel_traitsILi256ELi64ELi64ELi4ES2_EELb1ELb1EEvR16Flash_fwd_paramsP11CUstream_st(ptr noundef nonnull align 8 dereferenceable(458) %0, ptr noundef %1)
  br label %28

25:                                               ; preds = %13
  br i1 %21, label %26, label %27

26:                                               ; preds = %25
  call void @_Z13run_flash_fwdI23Flash_fwd_kernel_traitsILi256ELi128ELi64ELi8ELb0ELb0EN7cutlass10bfloat16_tE19Flash_kernel_traitsILi256ELi128ELi64ELi8ES2_EELb0ELb1EEvR16Flash_fwd_paramsP11CUstream_st(ptr noundef nonnull align 8 dereferenceable(458) %0, ptr noundef %1)
  br label %28

27:                                               ; preds = %25
  call void @_Z13run_flash_fwdI23Flash_fwd_kernel_traitsILi256ELi64ELi64ELi4ELb0ELb0EN7cutlass10bfloat16_tE19Flash_kernel_traitsILi256ELi64ELi64ELi4ES2_EELb0ELb1EEvR16Flash_fwd_paramsP11CUstream_st(ptr noundef nonnull align 8 dereferenceable(458) %0, ptr noundef %1)
  br label %28

28:                                               ; preds = %23, %24, %26, %27
  call void @llvm.lifetime.end.p0(i64 4, ptr nonnull %5) #9
  call void @llvm.lifetime.end.p0(i64 4, ptr nonnull %4) #9
  call void @llvm.lifetime.end.p0(i64 4, ptr nonnull %3) #9
  ret void
}

; Function Attrs: mustprogress nocallback nofree nosync nounwind willreturn memory(argmem: readwrite)
declare void @llvm.lifetime.start.p0(i64 immarg, ptr nocapture) #4

declare i32 @cudaGetDevice(ptr noundef) local_unnamed_addr #0

declare i32 @cudaDeviceGetAttribute(ptr noundef, i32 noundef, i32 noundef) local_unnamed_addr #0

declare void @_ZN3c104cuda29c10_cuda_check_implementationEiPKcS2_ib(i32 noundef, ptr noundef, ptr noundef, i32 noundef, i1 noundef zeroext) local_unnamed_addr #0

; Function Attrs: mustprogress nocallback nofree nosync nounwind willreturn memory(argmem: readwrite)
declare void @llvm.lifetime.end.p0(i64 immarg, ptr nocapture) #4

; Function Attrs: mustprogress uwtable
define linkonce_odr dso_local void @_Z13run_flash_fwdI23Flash_fwd_kernel_traitsILi256ELi128ELi64ELi8ELb0ELb0EN7cutlass10bfloat16_tE19Flash_kernel_traitsILi256ELi128ELi64ELi8ES2_EELb1ELb1EEvR16Flash_fwd_paramsP11CUstream_st(ptr noundef nonnull align 8 dereferenceable(458) %0, ptr noundef %1) local_unnamed_addr #3 comdat {
  %3 = alloca %class.anon.170, align 8
  %4 = alloca %class.anon.125, align 8
  %5 = alloca %class.anon.77, align 8
  %6 = alloca %class.anon.32, align 8
  %7 = alloca ptr, align 8
  %8 = alloca %struct.dim3, align 4
  %9 = alloca i8, align 1
  store ptr %1, ptr %7, align 8, !tbaa !18
  %10 = getelementptr inbounds %struct.Flash_fwd_params, ptr %0, i64 0, i32 10
  %11 = load i32, ptr %10, align 4, !tbaa !19
  %12 = add nsw i32 %11, 127
  %13 = sdiv i32 %12, 128
  call void @llvm.lifetime.start.p0(i64 12, ptr nonnull %8) #9
  %14 = getelementptr inbounds %struct.Flash_fwd_params, ptr %0, i64 0, i32 9
  %15 = load i32, ptr %14, align 8, !tbaa !20
  %16 = getelementptr inbounds %struct.Qkv_params, ptr %0, i64 0, i32 12
  %17 = load i32, ptr %16, align 8, !tbaa !21
  store i32 %13, ptr %8, align 4, !tbaa !22
  %18 = getelementptr inbounds %struct.dim3, ptr %8, i64 0, i32 1
  store i32 %15, ptr %18, align 4, !tbaa !24
  %19 = getelementptr inbounds %struct.dim3, ptr %8, i64 0, i32 2
  store i32 %17, ptr %19, align 4, !tbaa !25
  %20 = getelementptr inbounds %struct.Flash_fwd_params, ptr %0, i64 0, i32 21
  %21 = load ptr, ptr %20, align 8, !tbaa !26
  %22 = icmp eq ptr %21, null
  %23 = getelementptr inbounds %struct.Flash_fwd_params, ptr %0, i64 0, i32 22
  %24 = load ptr, ptr %23, align 8
  %25 = icmp eq ptr %24, null
  %26 = select i1 %22, i1 %25, i1 false
  br i1 %26, label %27, label %32

27:                                               ; preds = %2
  %28 = getelementptr inbounds %struct.Flash_fwd_params, ptr %0, i64 0, i32 11
  %29 = load i32, ptr %28, align 8, !tbaa !27
  %30 = and i32 %29, 63
  %31 = icmp eq i32 %30, 0
  br i1 %31, label %40, label %32

32:                                               ; preds = %27, %2
  %33 = getelementptr inbounds %struct.Flash_fwd_params, ptr %0, i64 0, i32 13
  %34 = load i32, ptr %33, align 8, !tbaa !28
  %35 = icmp eq i32 %34, 256
  call void @llvm.lifetime.start.p0(i64 1, ptr nonnull %9) #9
  %36 = getelementptr inbounds %struct.Flash_fwd_params, ptr %0, i64 0, i32 6
  %37 = load ptr, ptr %36, align 8, !tbaa !29
  %38 = icmp ne ptr %37, null
  %39 = zext i1 %38 to i8
  store i8 %39, ptr %9, align 1, !tbaa !30
  br i1 %35, label %60, label %64

40:                                               ; preds = %27
  %41 = and i32 %11, 127
  %42 = icmp eq i32 %41, 0
  %43 = getelementptr inbounds %struct.Flash_fwd_params, ptr %0, i64 0, i32 13
  %44 = load i32, ptr %43, align 8, !tbaa !28
  %45 = icmp eq i32 %44, 256
  call void @llvm.lifetime.start.p0(i64 1, ptr nonnull %9) #9
  %46 = getelementptr inbounds %struct.Flash_fwd_params, ptr %0, i64 0, i32 6
  %47 = load ptr, ptr %46, align 8, !tbaa !29
  %48 = icmp ne ptr %47, null
  %49 = zext i1 %48 to i8
  store i8 %49, ptr %9, align 1, !tbaa !30
  br i1 %42, label %50, label %59

50:                                               ; preds = %40
  br i1 %45, label %51, label %55

51:                                               ; preds = %50
  call void @llvm.lifetime.start.p0(i64 32, ptr nonnull %6) #9
  store ptr %9, ptr %6, align 8, !tbaa !18
  %52 = getelementptr inbounds %class.anon.32, ptr %6, i64 0, i32 1
  store ptr %0, ptr %52, align 8, !tbaa !18
  %53 = getelementptr inbounds %class.anon.32, ptr %6, i64 0, i32 2
  store ptr %8, ptr %53, align 8, !tbaa !18
  %54 = getelementptr inbounds %class.anon.32, ptr %6, i64 0, i32 3
  store ptr %7, ptr %54, align 8, !tbaa !18
  call void @_ZZZZZZZZ13run_flash_fwdI23Flash_fwd_kernel_traitsILi256ELi128ELi64ELi8ELb0ELb0EN7cutlass10bfloat16_tE19Flash_kernel_traitsILi256ELi128ELi64ELi8ES2_EELb1ELb1EEvR16Flash_fwd_paramsP11CUstream_stENKUlvE_clEvENKUlvE_clEvENKUlvE_clEvENKUlvE_clEvENKUlvE_clEvENKUlvE0_clEvENKUlvE_clEv(ptr noundef nonnull align 8 dereferenceable(32) %6)
  call void @llvm.lifetime.end.p0(i64 32, ptr nonnull %6) #9
  br label %68

55:                                               ; preds = %50
  call void @llvm.lifetime.start.p0(i64 32, ptr nonnull %5) #9
  store ptr %9, ptr %5, align 8, !tbaa !18
  %56 = getelementptr inbounds %class.anon.77, ptr %5, i64 0, i32 1
  store ptr %0, ptr %56, align 8, !tbaa !18
  %57 = getelementptr inbounds %class.anon.77, ptr %5, i64 0, i32 2
  store ptr %8, ptr %57, align 8, !tbaa !18
  %58 = getelementptr inbounds %class.anon.77, ptr %5, i64 0, i32 3
  store ptr %7, ptr %58, align 8, !tbaa !18
  call void @_ZZZZZZZZ13run_flash_fwdI23Flash_fwd_kernel_traitsILi256ELi128ELi64ELi8ELb0ELb0EN7cutlass10bfloat16_tE19Flash_kernel_traitsILi256ELi128ELi64ELi8ES2_EELb1ELb1EEvR16Flash_fwd_paramsP11CUstream_stENKUlvE_clEvENKUlvE_clEvENKUlvE_clEvENKUlvE0_clEvENKUlvE_clEvENKUlvE0_clEvENKUlvE_clEv(ptr noundef nonnull align 8 dereferenceable(32) %5)
  call void @llvm.lifetime.end.p0(i64 32, ptr nonnull %5) #9
  br label %68

59:                                               ; preds = %40
  br i1 %45, label %60, label %64

60:                                               ; preds = %32, %59
  call void @llvm.lifetime.start.p0(i64 32, ptr nonnull %4) #9
  store ptr %9, ptr %4, align 8, !tbaa !18
  %61 = getelementptr inbounds %class.anon.125, ptr %4, i64 0, i32 1
  store ptr %0, ptr %61, align 8, !tbaa !18
  %62 = getelementptr inbounds %class.anon.125, ptr %4, i64 0, i32 2
  store ptr %8, ptr %62, align 8, !tbaa !18
  %63 = getelementptr inbounds %class.anon.125, ptr %4, i64 0, i32 3
  store ptr %7, ptr %63, align 8, !tbaa !18
  call void @_ZZZZZZZZ13run_flash_fwdI23Flash_fwd_kernel_traitsILi256ELi128ELi64ELi8ELb0ELb0EN7cutlass10bfloat16_tE19Flash_kernel_traitsILi256ELi128ELi64ELi8ES2_EELb1ELb1EEvR16Flash_fwd_paramsP11CUstream_stENKUlvE_clEvENKUlvE0_clEvENKUlvE_clEvENKUlvE_clEvENKUlvE_clEvENKUlvE0_clEvENKUlvE_clEv(ptr noundef nonnull align 8 dereferenceable(32) %4)
  call void @llvm.lifetime.end.p0(i64 32, ptr nonnull %4) #9
  br label %68

64:                                               ; preds = %32, %59
  call void @llvm.lifetime.start.p0(i64 32, ptr nonnull %3) #9
  store ptr %9, ptr %3, align 8, !tbaa !18
  %65 = getelementptr inbounds %class.anon.170, ptr %3, i64 0, i32 1
  store ptr %0, ptr %65, align 8, !tbaa !18
  %66 = getelementptr inbounds %class.anon.170, ptr %3, i64 0, i32 2
  store ptr %8, ptr %66, align 8, !tbaa !18
  %67 = getelementptr inbounds %class.anon.170, ptr %3, i64 0, i32 3
  store ptr %7, ptr %67, align 8, !tbaa !18
  call void @_ZZZZZZZZ13run_flash_fwdI23Flash_fwd_kernel_traitsILi256ELi128ELi64ELi8ELb0ELb0EN7cutlass10bfloat16_tE19Flash_kernel_traitsILi256ELi128ELi64ELi8ES2_EELb1ELb1EEvR16Flash_fwd_paramsP11CUstream_stENKUlvE_clEvENKUlvE0_clEvENKUlvE_clEvENKUlvE0_clEvENKUlvE_clEvENKUlvE0_clEvENKUlvE_clEv(ptr noundef nonnull align 8 dereferenceable(32) %3)
  call void @llvm.lifetime.end.p0(i64 32, ptr nonnull %3) #9
  br label %68

68:                                               ; preds = %51, %55, %60, %64
  call void @llvm.lifetime.end.p0(i64 1, ptr nonnull %9) #9
  call void @llvm.lifetime.end.p0(i64 12, ptr nonnull %8) #9
  ret void
}

; Function Attrs: mustprogress uwtable
define linkonce_odr dso_local void @_Z13run_flash_fwdI23Flash_fwd_kernel_traitsILi256ELi64ELi64ELi4ELb0ELb0EN7cutlass10bfloat16_tE19Flash_kernel_traitsILi256ELi64ELi64ELi4ES2_EELb1ELb1EEvR16Flash_fwd_paramsP11CUstream_st(ptr noundef nonnull align 8 dereferenceable(458) %0, ptr noundef %1) local_unnamed_addr #3 comdat {
  %3 = alloca %class.anon.359, align 8
  %4 = alloca %class.anon.314, align 8
  %5 = alloca %class.anon.266, align 8
  %6 = alloca %class.anon.221, align 8
  %7 = alloca ptr, align 8
  %8 = alloca %struct.dim3, align 4
  %9 = alloca i8, align 1
  store ptr %1, ptr %7, align 8, !tbaa !18
  %10 = getelementptr inbounds %struct.Flash_fwd_params, ptr %0, i64 0, i32 10
  %11 = load i32, ptr %10, align 4, !tbaa !19
  %12 = add nsw i32 %11, 63
  %13 = sdiv i32 %12, 64
  call void @llvm.lifetime.start.p0(i64 12, ptr nonnull %8) #9
  %14 = getelementptr inbounds %struct.Flash_fwd_params, ptr %0, i64 0, i32 9
  %15 = load i32, ptr %14, align 8, !tbaa !20
  %16 = getelementptr inbounds %struct.Qkv_params, ptr %0, i64 0, i32 12
  %17 = load i32, ptr %16, align 8, !tbaa !21
  store i32 %13, ptr %8, align 4, !tbaa !22
  %18 = getelementptr inbounds %struct.dim3, ptr %8, i64 0, i32 1
  store i32 %15, ptr %18, align 4, !tbaa !24
  %19 = getelementptr inbounds %struct.dim3, ptr %8, i64 0, i32 2
  store i32 %17, ptr %19, align 4, !tbaa !25
  %20 = getelementptr inbounds %struct.Flash_fwd_params, ptr %0, i64 0, i32 21
  %21 = load ptr, ptr %20, align 8, !tbaa !26
  %22 = icmp eq ptr %21, null
  %23 = getelementptr inbounds %struct.Flash_fwd_params, ptr %0, i64 0, i32 22
  %24 = load ptr, ptr %23, align 8
  %25 = icmp eq ptr %24, null
  %26 = select i1 %22, i1 %25, i1 false
  br i1 %26, label %27, label %32

27:                                               ; preds = %2
  %28 = getelementptr inbounds %struct.Flash_fwd_params, ptr %0, i64 0, i32 11
  %29 = load i32, ptr %28, align 8, !tbaa !27
  %30 = and i32 %29, 63
  %31 = icmp eq i32 %30, 0
  br i1 %31, label %40, label %32

32:                                               ; preds = %27, %2
  %33 = getelementptr inbounds %struct.Flash_fwd_params, ptr %0, i64 0, i32 13
  %34 = load i32, ptr %33, align 8, !tbaa !28
  %35 = icmp eq i32 %34, 256
  call void @llvm.lifetime.start.p0(i64 1, ptr nonnull %9) #9
  %36 = getelementptr inbounds %struct.Flash_fwd_params, ptr %0, i64 0, i32 6
  %37 = load ptr, ptr %36, align 8, !tbaa !29
  %38 = icmp ne ptr %37, null
  %39 = zext i1 %38 to i8
  store i8 %39, ptr %9, align 1, !tbaa !30
  br i1 %35, label %60, label %64

40:                                               ; preds = %27
  %41 = and i32 %11, 63
  %42 = icmp eq i32 %41, 0
  %43 = getelementptr inbounds %struct.Flash_fwd_params, ptr %0, i64 0, i32 13
  %44 = load i32, ptr %43, align 8, !tbaa !28
  %45 = icmp eq i32 %44, 256
  call void @llvm.lifetime.start.p0(i64 1, ptr nonnull %9) #9
  %46 = getelementptr inbounds %struct.Flash_fwd_params, ptr %0, i64 0, i32 6
  %47 = load ptr, ptr %46, align 8, !tbaa !29
  %48 = icmp ne ptr %47, null
  %49 = zext i1 %48 to i8
  store i8 %49, ptr %9, align 1, !tbaa !30
  br i1 %42, label %50, label %59

50:                                               ; preds = %40
  br i1 %45, label %51, label %55

51:                                               ; preds = %50
  call void @llvm.lifetime.start.p0(i64 32, ptr nonnull %6) #9
  store ptr %9, ptr %6, align 8, !tbaa !18
  %52 = getelementptr inbounds %class.anon.221, ptr %6, i64 0, i32 1
  store ptr %0, ptr %52, align 8, !tbaa !18
  %53 = getelementptr inbounds %class.anon.221, ptr %6, i64 0, i32 2
  store ptr %8, ptr %53, align 8, !tbaa !18
  %54 = getelementptr inbounds %class.anon.221, ptr %6, i64 0, i32 3
  store ptr %7, ptr %54, align 8, !tbaa !18
  call void @_ZZZZZZZZ13run_flash_fwdI23Flash_fwd_kernel_traitsILi256ELi64ELi64ELi4ELb0ELb0EN7cutlass10bfloat16_tE19Flash_kernel_traitsILi256ELi64ELi64ELi4ES2_EELb1ELb1EEvR16Flash_fwd_paramsP11CUstream_stENKUlvE_clEvENKUlvE_clEvENKUlvE_clEvENKUlvE_clEvENKUlvE_clEvENKUlvE0_clEvENKUlvE_clEv(ptr noundef nonnull align 8 dereferenceable(32) %6)
  call void @llvm.lifetime.end.p0(i64 32, ptr nonnull %6) #9
  br label %68

55:                                               ; preds = %50
  call void @llvm.lifetime.start.p0(i64 32, ptr nonnull %5) #9
  store ptr %9, ptr %5, align 8, !tbaa !18
  %56 = getelementptr inbounds %class.anon.266, ptr %5, i64 0, i32 1
  store ptr %0, ptr %56, align 8, !tbaa !18
  %57 = getelementptr inbounds %class.anon.266, ptr %5, i64 0, i32 2
  store ptr %8, ptr %57, align 8, !tbaa !18
  %58 = getelementptr inbounds %class.anon.266, ptr %5, i64 0, i32 3
  store ptr %7, ptr %58, align 8, !tbaa !18
  call void @_ZZZZZZZZ13run_flash_fwdI23Flash_fwd_kernel_traitsILi256ELi64ELi64ELi4ELb0ELb0EN7cutlass10bfloat16_tE19Flash_kernel_traitsILi256ELi64ELi64ELi4ES2_EELb1ELb1EEvR16Flash_fwd_paramsP11CUstream_stENKUlvE_clEvENKUlvE_clEvENKUlvE_clEvENKUlvE0_clEvENKUlvE_clEvENKUlvE0_clEvENKUlvE_clEv(ptr noundef nonnull align 8 dereferenceable(32) %5)
  call void @llvm.lifetime.end.p0(i64 32, ptr nonnull %5) #9
  br label %68

59:                                               ; preds = %40
  br i1 %45, label %60, label %64

60:                                               ; preds = %32, %59
  call void @llvm.lifetime.start.p0(i64 32, ptr nonnull %4) #9
  store ptr %9, ptr %4, align 8, !tbaa !18
  %61 = getelementptr inbounds %class.anon.314, ptr %4, i64 0, i32 1
  store ptr %0, ptr %61, align 8, !tbaa !18
  %62 = getelementptr inbounds %class.anon.314, ptr %4, i64 0, i32 2
  store ptr %8, ptr %62, align 8, !tbaa !18
  %63 = getelementptr inbounds %class.anon.314, ptr %4, i64 0, i32 3
  store ptr %7, ptr %63, align 8, !tbaa !18
  call void @_ZZZZZZZZ13run_flash_fwdI23Flash_fwd_kernel_traitsILi256ELi64ELi64ELi4ELb0ELb0EN7cutlass10bfloat16_tE19Flash_kernel_traitsILi256ELi64ELi64ELi4ES2_EELb1ELb1EEvR16Flash_fwd_paramsP11CUstream_stENKUlvE_clEvENKUlvE0_clEvENKUlvE_clEvENKUlvE_clEvENKUlvE_clEvENKUlvE0_clEvENKUlvE_clEv(ptr noundef nonnull align 8 dereferenceable(32) %4)
  call void @llvm.lifetime.end.p0(i64 32, ptr nonnull %4) #9
  br label %68

64:                                               ; preds = %32, %59
  call void @llvm.lifetime.start.p0(i64 32, ptr nonnull %3) #9
  store ptr %9, ptr %3, align 8, !tbaa !18
  %65 = getelementptr inbounds %class.anon.359, ptr %3, i64 0, i32 1
  store ptr %0, ptr %65, align 8, !tbaa !18
  %66 = getelementptr inbounds %class.anon.359, ptr %3, i64 0, i32 2
  store ptr %8, ptr %66, align 8, !tbaa !18
  %67 = getelementptr inbounds %class.anon.359, ptr %3, i64 0, i32 3
  store ptr %7, ptr %67, align 8, !tbaa !18
  call void @_ZZZZZZZZ13run_flash_fwdI23Flash_fwd_kernel_traitsILi256ELi64ELi64ELi4ELb0ELb0EN7cutlass10bfloat16_tE19Flash_kernel_traitsILi256ELi64ELi64ELi4ES2_EELb1ELb1EEvR16Flash_fwd_paramsP11CUstream_stENKUlvE_clEvENKUlvE0_clEvENKUlvE_clEvENKUlvE0_clEvENKUlvE_clEvENKUlvE0_clEvENKUlvE_clEv(ptr noundef nonnull align 8 dereferenceable(32) %3)
  call void @llvm.lifetime.end.p0(i64 32, ptr nonnull %3) #9
  br label %68

68:                                               ; preds = %51, %55, %60, %64
  call void @llvm.lifetime.end.p0(i64 1, ptr nonnull %9) #9
  call void @llvm.lifetime.end.p0(i64 12, ptr nonnull %8) #9
  ret void
}

; Function Attrs: mustprogress norecurse uwtable
define linkonce_odr dso_local void @_Z31__device_stub__flash_fwd_kernelI23Flash_fwd_kernel_traitsILi256ELi128ELi64ELi8ELb0ELb0EN7cutlass10bfloat16_tE19Flash_kernel_traitsILi256ELi128ELi64ELi8ES2_EELb0ELb1ELb0ELb1ELb0ELb1ELb1ELb0EEv16Flash_fwd_params(ptr noundef byval(%struct.Flash_fwd_params) align 8 %0) #5 comdat {
  %2 = alloca %struct.dim3, align 8
  %3 = alloca %struct.dim3, align 8
  %4 = alloca i64, align 8
  %5 = alloca ptr, align 8
  %6 = alloca ptr, align 16
  store ptr %0, ptr %6, align 16
  %7 = call i32 @__cudaPopCallConfiguration(ptr nonnull %2, ptr nonnull %3, ptr nonnull %4, ptr nonnull %5)
  %8 = load i64, ptr %4, align 8
  %9 = load ptr, ptr %5, align 8
  %10 = load i64, ptr %2, align 8
  %11 = getelementptr inbounds i8, ptr %2, i64 8
  %12 = load i32, ptr %11, align 8
  %13 = load i64, ptr %3, align 8
  %14 = getelementptr inbounds i8, ptr %3, i64 8
  %15 = load i32, ptr %14, align 8
  %16 = call noundef i32 @cudaLaunchKernel(ptr noundef nonnull @_Z31__device_stub__flash_fwd_kernelI23Flash_fwd_kernel_traitsILi256ELi128ELi64ELi8ELb0ELb0EN7cutlass10bfloat16_tE19Flash_kernel_traitsILi256ELi128ELi64ELi8ES2_EELb0ELb1ELb0ELb1ELb0ELb1ELb1ELb0EEv16Flash_fwd_params, i64 %10, i32 %12, i64 %13, i32 %15, ptr noundef nonnull %6, i64 noundef %8, ptr noundef %9)
  ret void
}

declare i32 @__cudaPushCallConfiguration(i64, i32, i64, i32, i64 noundef, ptr noundef) local_unnamed_addr #0

; Function Attrs: mustprogress nocallback nofree nounwind willreturn memory(argmem: readwrite)
declare void @llvm.memcpy.p0.p0.i64(ptr noalias nocapture writeonly, ptr noalias nocapture readonly, i64, i1 immarg) #6

declare i32 @cudaGetLastError() local_unnamed_addr #0

declare i32 @__cudaPopCallConfiguration(ptr, ptr, ptr, ptr) local_unnamed_addr

declare i32 @cudaLaunchKernel(ptr, i64, i32, i64, i32, ptr, i64, ptr) local_unnamed_addr

declare i32 @cudaFuncSetAttribute(ptr noundef, i32 noundef, i32 noundef) local_unnamed_addr #0

; Function Attrs: mustprogress norecurse uwtable
define linkonce_odr dso_local void @_Z31__device_stub__flash_fwd_kernelI23Flash_fwd_kernel_traitsILi256ELi128ELi64ELi8ELb0ELb0EN7cutlass10bfloat16_tE19Flash_kernel_traitsILi256ELi128ELi64ELi8ES2_EELb1ELb1ELb0ELb1ELb0ELb1ELb0ELb1EEv16Flash_fwd_params(ptr noundef byval(%struct.Flash_fwd_params) align 8 %0) #5 comdat {
  %2 = alloca %struct.dim3, align 8
  %3 = alloca %struct.dim3, align 8
  %4 = alloca i64, align 8
  %5 = alloca ptr, align 8
  %6 = alloca ptr, align 16
  store ptr %0, ptr %6, align 16
  %7 = call i32 @__cudaPopCallConfiguration(ptr nonnull %2, ptr nonnull %3, ptr nonnull %4, ptr nonnull %5)
  %8 = load i64, ptr %4, align 8
  %9 = load ptr, ptr %5, align 8
  %10 = load i64, ptr %2, align 8
  %11 = getelementptr inbounds i8, ptr %2, i64 8
  %12 = load i32, ptr %11, align 8
  %13 = load i64, ptr %3, align 8
  %14 = getelementptr inbounds i8, ptr %3, i64 8
  %15 = load i32, ptr %14, align 8
  %16 = call noundef i32 @cudaLaunchKernel(ptr noundef nonnull @_Z31__device_stub__flash_fwd_kernelI23Flash_fwd_kernel_traitsILi256ELi128ELi64ELi8ELb0ELb0EN7cutlass10bfloat16_tE19Flash_kernel_traitsILi256ELi128ELi64ELi8ES2_EELb1ELb1ELb0ELb1ELb0ELb1ELb0ELb1EEv16Flash_fwd_params, i64 %10, i32 %12, i64 %13, i32 %15, ptr noundef nonnull %6, i64 noundef %8, ptr noundef %9)
  ret void
}

; Function Attrs: mustprogress norecurse uwtable
define linkonce_odr dso_local void @_Z31__device_stub__flash_fwd_kernelI23Flash_fwd_kernel_traitsILi256ELi128ELi64ELi8ELb0ELb0EN7cutlass10bfloat16_tE19Flash_kernel_traitsILi256ELi128ELi64ELi8ES2_EELb0ELb1ELb0ELb0ELb0ELb1ELb1ELb0EEv16Flash_fwd_params(ptr noundef byval(%struct.Flash_fwd_params) align 8 %0) #5 comdat {
  %2 = alloca %struct.dim3, align 8
  %3 = alloca %struct.dim3, align 8
  %4 = alloca i64, align 8
  %5 = alloca ptr, align 8
  %6 = alloca ptr, align 16
  store ptr %0, ptr %6, align 16
  %7 = call i32 @__cudaPopCallConfiguration(ptr nonnull %2, ptr nonnull %3, ptr nonnull %4, ptr nonnull %5)
  %8 = load i64, ptr %4, align 8
  %9 = load ptr, ptr %5, align 8
  %10 = load i64, ptr %2, align 8
  %11 = getelementptr inbounds i8, ptr %2, i64 8
  %12 = load i32, ptr %11, align 8
  %13 = load i64, ptr %3, align 8
  %14 = getelementptr inbounds i8, ptr %3, i64 8
  %15 = load i32, ptr %14, align 8
  %16 = call noundef i32 @cudaLaunchKernel(ptr noundef nonnull @_Z31__device_stub__flash_fwd_kernelI23Flash_fwd_kernel_traitsILi256ELi128ELi64ELi8ELb0ELb0EN7cutlass10bfloat16_tE19Flash_kernel_traitsILi256ELi128ELi64ELi8ES2_EELb0ELb1ELb0ELb0ELb0ELb1ELb1ELb0EEv16Flash_fwd_params, i64 %10, i32 %12, i64 %13, i32 %15, ptr noundef nonnull %6, i64 noundef %8, ptr noundef %9)
  ret void
}

; Function Attrs: mustprogress norecurse uwtable
define linkonce_odr dso_local void @_Z31__device_stub__flash_fwd_kernelI23Flash_fwd_kernel_traitsILi256ELi128ELi64ELi8ELb0ELb0EN7cutlass10bfloat16_tE19Flash_kernel_traitsILi256ELi128ELi64ELi8ES2_EELb1ELb1ELb0ELb0ELb0ELb1ELb0ELb1EEv16Flash_fwd_params(ptr noundef byval(%struct.Flash_fwd_params) align 8 %0) #5 comdat {
  %2 = alloca %struct.dim3, align 8
  %3 = alloca %struct.dim3, align 8
  %4 = alloca i64, align 8
  %5 = alloca ptr, align 8
  %6 = alloca ptr, align 16
  store ptr %0, ptr %6, align 16
  %7 = call i32 @__cudaPopCallConfiguration(ptr nonnull %2, ptr nonnull %3, ptr nonnull %4, ptr nonnull %5)
  %8 = load i64, ptr %4, align 8
  %9 = load ptr, ptr %5, align 8
  %10 = load i64, ptr %2, align 8
  %11 = getelementptr inbounds i8, ptr %2, i64 8
  %12 = load i32, ptr %11, align 8
  %13 = load i64, ptr %3, align 8
  %14 = getelementptr inbounds i8, ptr %3, i64 8
  %15 = load i32, ptr %14, align 8
  %16 = call noundef i32 @cudaLaunchKernel(ptr noundef nonnull @_Z31__device_stub__flash_fwd_kernelI23Flash_fwd_kernel_traitsILi256ELi128ELi64ELi8ELb0ELb0EN7cutlass10bfloat16_tE19Flash_kernel_traitsILi256ELi128ELi64ELi8ES2_EELb1ELb1ELb0ELb0ELb0ELb1ELb0ELb1EEv16Flash_fwd_params, i64 %10, i32 %12, i64 %13, i32 %15, ptr noundef nonnull %6, i64 noundef %8, ptr noundef %9)
  ret void
}

; Function Attrs: mustprogress norecurse uwtable
define linkonce_odr dso_local void @_Z31__device_stub__flash_fwd_kernelI23Flash_fwd_kernel_traitsILi256ELi128ELi64ELi8ELb0ELb0EN7cutlass10bfloat16_tE19Flash_kernel_traitsILi256ELi128ELi64ELi8ES2_EELb1ELb1ELb0ELb1ELb0ELb1ELb0ELb0EEv16Flash_fwd_params(ptr noundef byval(%struct.Flash_fwd_params) align 8 %0) #5 comdat {
  %2 = alloca %struct.dim3, align 8
  %3 = alloca %struct.dim3, align 8
  %4 = alloca i64, align 8
  %5 = alloca ptr, align 8
  %6 = alloca ptr, align 16
  store ptr %0, ptr %6, align 16
  %7 = call i32 @__cudaPopCallConfiguration(ptr nonnull %2, ptr nonnull %3, ptr nonnull %4, ptr nonnull %5)
  %8 = load i64, ptr %4, align 8
  %9 = load ptr, ptr %5, align 8
  %10 = load i64, ptr %2, align 8
  %11 = getelementptr inbounds i8, ptr %2, i64 8
  %12 = load i32, ptr %11, align 8
  %13 = load i64, ptr %3, align 8
  %14 = getelementptr inbounds i8, ptr %3, i64 8
  %15 = load i32, ptr %14, align 8
  %16 = call noundef i32 @cudaLaunchKernel(ptr noundef nonnull @_Z31__device_stub__flash_fwd_kernelI23Flash_fwd_kernel_traitsILi256ELi128ELi64ELi8ELb0ELb0EN7cutlass10bfloat16_tE19Flash_kernel_traitsILi256ELi128ELi64ELi8ES2_EELb1ELb1ELb0ELb1ELb0ELb1ELb0ELb0EEv16Flash_fwd_params, i64 %10, i32 %12, i64 %13, i32 %15, ptr noundef nonnull %6, i64 noundef %8, ptr noundef %9)
  ret void
}

; Function Attrs: mustprogress norecurse uwtable
define linkonce_odr dso_local void @_Z31__device_stub__flash_fwd_kernelI23Flash_fwd_kernel_traitsILi256ELi128ELi64ELi8ELb0ELb0EN7cutlass10bfloat16_tE19Flash_kernel_traitsILi256ELi128ELi64ELi8ES2_EELb1ELb1ELb0ELb0ELb0ELb1ELb0ELb0EEv16Flash_fwd_params(ptr noundef byval(%struct.Flash_fwd_params) align 8 %0) #5 comdat {
  %2 = alloca %struct.dim3, align 8
  %3 = alloca %struct.dim3, align 8
  %4 = alloca i64, align 8
  %5 = alloca ptr, align 8
  %6 = alloca ptr, align 16
  store ptr %0, ptr %6, align 16
  %7 = call i32 @__cudaPopCallConfiguration(ptr nonnull %2, ptr nonnull %3, ptr nonnull %4, ptr nonnull %5)
  %8 = load i64, ptr %4, align 8
  %9 = load ptr, ptr %5, align 8
  %10 = load i64, ptr %2, align 8
  %11 = getelementptr inbounds i8, ptr %2, i64 8
  %12 = load i32, ptr %11, align 8
  %13 = load i64, ptr %3, align 8
  %14 = getelementptr inbounds i8, ptr %3, i64 8
  %15 = load i32, ptr %14, align 8
  %16 = call noundef i32 @cudaLaunchKernel(ptr noundef nonnull @_Z31__device_stub__flash_fwd_kernelI23Flash_fwd_kernel_traitsILi256ELi128ELi64ELi8ELb0ELb0EN7cutlass10bfloat16_tE19Flash_kernel_traitsILi256ELi128ELi64ELi8ES2_EELb1ELb1ELb0ELb0ELb0ELb1ELb0ELb0EEv16Flash_fwd_params, i64 %10, i32 %12, i64 %13, i32 %15, ptr noundef nonnull %6, i64 noundef %8, ptr noundef %9)
  ret void
}

; Function Attrs: inlinehint mustprogress uwtable
define linkonce_odr dso_local void @_ZZZZZZZZ13run_flash_fwdI23Flash_fwd_kernel_traitsILi256ELi128ELi64ELi8ELb0ELb0EN7cutlass10bfloat16_tE19Flash_kernel_traitsILi256ELi128ELi64ELi8ES2_EELb1ELb1EEvR16Flash_fwd_paramsP11CUstream_stENKUlvE_clEvENKUlvE_clEvENKUlvE_clEvENKUlvE_clEvENKUlvE_clEvENKUlvE0_clEvENKUlvE_clEv(ptr noundef nonnull align 8 dereferenceable(32) %0) local_unnamed_addr #7 comdat align 2 {
  %2 = alloca %class.anon.51, align 8
  %3 = alloca %class.anon.52, align 8
  %4 = alloca %class.anon.48, align 8
  %5 = alloca %class.anon.49, align 8
  %6 = alloca %class.anon.42, align 8
  %7 = alloca %class.anon.43, align 8
  %8 = alloca %class.anon.39, align 8
  %9 = alloca %class.anon.40, align 8
  %10 = load ptr, ptr %0, align 8, !tbaa !31
  %11 = load i8, ptr %10, align 1, !tbaa !30, !range !33, !noundef !34
  %12 = icmp eq i8 %11, 0
  %13 = getelementptr inbounds %class.anon.32, ptr %0, i64 0, i32 1
  %14 = load ptr, ptr %13, align 8, !tbaa !35
  %15 = getelementptr inbounds %class.anon.32, ptr %0, i64 0, i32 2
  %16 = load ptr, ptr %15, align 8, !tbaa !36
  %17 = getelementptr inbounds %class.anon.32, ptr %0, i64 0, i32 3
  %18 = load ptr, ptr %17, align 8, !tbaa !37
  %19 = getelementptr inbounds %struct.Flash_fwd_params, ptr %14, i64 0, i32 55
  %20 = load ptr, ptr %19, align 8, !tbaa !38
  %21 = icmp eq ptr %20, null
  %22 = getelementptr inbounds %struct.Flash_fwd_params, ptr %14, i64 0, i32 47
  %23 = load float, ptr %22, align 4, !tbaa !39
  %24 = fcmp ogt float %23, 0.000000e+00
  br i1 %12, label %40, label %25

25:                                               ; preds = %1
  br i1 %21, label %33, label %26

26:                                               ; preds = %25
  br i1 %24, label %27, label %30

27:                                               ; preds = %26
  call void @llvm.lifetime.start.p0(i64 24, ptr nonnull %8) #9
  store ptr %16, ptr %8, align 8, !tbaa !18
  %28 = getelementptr inbounds %class.anon.39, ptr %8, i64 0, i32 1
  store ptr %18, ptr %28, align 8, !tbaa !18
  %29 = getelementptr inbounds %class.anon.39, ptr %8, i64 0, i32 2
  store ptr %14, ptr %29, align 8, !tbaa !18
  call void @_ZZZZZZZZZZZZZ13run_flash_fwdI23Flash_fwd_kernel_traitsILi256ELi128ELi64ELi8ELb0ELb0EN7cutlass10bfloat16_tE19Flash_kernel_traitsILi256ELi128ELi64ELi8ES2_EELb1ELb1EEvR16Flash_fwd_paramsP11CUstream_stENKUlvE_clEvENKUlvE_clEvENKUlvE_clEvENKUlvE_clEvENKUlvE_clEvENKUlvE0_clEvENKUlvE_clEvENKUlvE_clEvENKUlvE_clEvENKUlvE_clEvENKUlvE_clEvENKUlvE_clEv(ptr noundef nonnull align 8 dereferenceable(24) %8)
  call void @llvm.lifetime.end.p0(i64 24, ptr nonnull %8) #9
  br label %55

30:                                               ; preds = %26
  call void @llvm.lifetime.start.p0(i64 24, ptr nonnull %9) #9
  store ptr %16, ptr %9, align 8, !tbaa !18
  %31 = getelementptr inbounds %class.anon.40, ptr %9, i64 0, i32 1
  store ptr %18, ptr %31, align 8, !tbaa !18
  %32 = getelementptr inbounds %class.anon.40, ptr %9, i64 0, i32 2
  store ptr %14, ptr %32, align 8, !tbaa !18
  call void @_ZZZZZZZZZZZZZ13run_flash_fwdI23Flash_fwd_kernel_traitsILi256ELi128ELi64ELi8ELb0ELb0EN7cutlass10bfloat16_tE19Flash_kernel_traitsILi256ELi128ELi64ELi8ES2_EELb1ELb1EEvR16Flash_fwd_paramsP11CUstream_stENKUlvE_clEvENKUlvE_clEvENKUlvE_clEvENKUlvE_clEvENKUlvE_clEvENKUlvE0_clEvENKUlvE_clEvENKUlvE_clEvENKUlvE_clEvENKUlvE_clEvENKUlvE_clEvENKUlvE0_clEv(ptr noundef nonnull align 8 dereferenceable(24) %9)
  call void @llvm.lifetime.end.p0(i64 24, ptr nonnull %9) #9
  br label %55

33:                                               ; preds = %25
  br i1 %24, label %34, label %37

34:                                               ; preds = %33
  call void @llvm.lifetime.start.p0(i64 24, ptr nonnull %6) #9
  store ptr %16, ptr %6, align 8, !tbaa !18
  %35 = getelementptr inbounds %class.anon.42, ptr %6, i64 0, i32 1
  store ptr %18, ptr %35, align 8, !tbaa !18
  %36 = getelementptr inbounds %class.anon.42, ptr %6, i64 0, i32 2
  store ptr %14, ptr %36, align 8, !tbaa !18
  call void @_ZZZZZZZZZZZZZ13run_flash_fwdI23Flash_fwd_kernel_traitsILi256ELi128ELi64ELi8ELb0ELb0EN7cutlass10bfloat16_tE19Flash_kernel_traitsILi256ELi128ELi64ELi8ES2_EELb1ELb1EEvR16Flash_fwd_paramsP11CUstream_stENKUlvE_clEvENKUlvE_clEvENKUlvE_clEvENKUlvE_clEvENKUlvE_clEvENKUlvE0_clEvENKUlvE_clEvENKUlvE_clEvENKUlvE_clEvENKUlvE0_clEvENKUlvE_clEvENKUlvE_clEv(ptr noundef nonnull align 8 dereferenceable(24) %6)
  call void @llvm.lifetime.end.p0(i64 24, ptr nonnull %6) #9
  br label %55

37:                                               ; preds = %33
  call void @llvm.lifetime.start.p0(i64 24, ptr nonnull %7) #9
  store ptr %16, ptr %7, align 8, !tbaa !18
  %38 = getelementptr inbounds %class.anon.43, ptr %7, i64 0, i32 1
  store ptr %18, ptr %38, align 8, !tbaa !18
  %39 = getelementptr inbounds %class.anon.43, ptr %7, i64 0, i32 2
  store ptr %14, ptr %39, align 8, !tbaa !18
  call void @_ZZZZZZZZZZZZZ13run_flash_fwdI23Flash_fwd_kernel_traitsILi256ELi128ELi64ELi8ELb0ELb0EN7cutlass10bfloat16_tE19Flash_kernel_traitsILi256ELi128ELi64ELi8ES2_EELb1ELb1EEvR16Flash_fwd_paramsP11CUstream_stENKUlvE_clEvENKUlvE_clEvENKUlvE_clEvENKUlvE_clEvENKUlvE_clEvENKUlvE0_clEvENKUlvE_clEvENKUlvE_clEvENKUlvE_clEvENKUlvE0_clEvENKUlvE_clEvENKUlvE0_clEv(ptr noundef nonnull align 8 dereferenceable(24) %7)
  call void @llvm.lifetime.end.p0(i64 24, ptr nonnull %7) #9
  br label %55

40:                                               ; preds = %1
  br i1 %21, label %48, label %41

41:                                               ; preds = %40
  br i1 %24, label %42, label %45

42:                                               ; preds = %41
  call void @llvm.lifetime.start.p0(i64 24, ptr nonnull %4) #9
  store ptr %16, ptr %4, align 8, !tbaa !18
  %43 = getelementptr inbounds %class.anon.48, ptr %4, i64 0, i32 1
  store ptr %18, ptr %43, align 8, !tbaa !18
  %44 = getelementptr inbounds %class.anon.48, ptr %4, i64 0, i32 2
  store ptr %14, ptr %44, align 8, !tbaa !18
  call void @_ZZZZZZZZZZZZZ13run_flash_fwdI23Flash_fwd_kernel_traitsILi256ELi128ELi64ELi8ELb0ELb0EN7cutlass10bfloat16_tE19Flash_kernel_traitsILi256ELi128ELi64ELi8ES2_EELb1ELb1EEvR16Flash_fwd_paramsP11CUstream_stENKUlvE_clEvENKUlvE_clEvENKUlvE_clEvENKUlvE_clEvENKUlvE_clEvENKUlvE0_clEvENKUlvE_clEvENKUlvE0_clEvENKUlvE_clEvENKUlvE_clEvENKUlvE_clEvENKUlvE_clEv(ptr noundef nonnull align 8 dereferenceable(24) %4)
  call void @llvm.lifetime.end.p0(i64 24, ptr nonnull %4) #9
  br label %55

45:                                               ; preds = %41
  call void @llvm.lifetime.start.p0(i64 24, ptr nonnull %5) #9
  store ptr %16, ptr %5, align 8, !tbaa !18
  %46 = getelementptr inbounds %class.anon.49, ptr %5, i64 0, i32 1
  store ptr %18, ptr %46, align 8, !tbaa !18
  %47 = getelementptr inbounds %class.anon.49, ptr %5, i64 0, i32 2
  store ptr %14, ptr %47, align 8, !tbaa !18
  call void @_ZZZZZZZZZZZZZ13run_flash_fwdI23Flash_fwd_kernel_traitsILi256ELi128ELi64ELi8ELb0ELb0EN7cutlass10bfloat16_tE19Flash_kernel_traitsILi256ELi128ELi64ELi8ES2_EELb1ELb1EEvR16Flash_fwd_paramsP11CUstream_stENKUlvE_clEvENKUlvE_clEvENKUlvE_clEvENKUlvE_clEvENKUlvE_clEvENKUlvE0_clEvENKUlvE_clEvENKUlvE0_clEvENKUlvE_clEvENKUlvE_clEvENKUlvE_clEvENKUlvE0_clEv(ptr noundef nonnull align 8 dereferenceable(24) %5)
  call void @llvm.lifetime.end.p0(i64 24, ptr nonnull %5) #9
  br label %55

48:                                               ; preds = %40
  br i1 %24, label %49, label %52

49:                                               ; preds = %48
  call void @llvm.lifetime.start.p0(i64 24, ptr nonnull %2) #9
  store ptr %16, ptr %2, align 8, !tbaa !18
  %50 = getelementptr inbounds %class.anon.51, ptr %2, i64 0, i32 1
  store ptr %18, ptr %50, align 8, !tbaa !18
  %51 = getelementptr inbounds %class.anon.51, ptr %2, i64 0, i32 2
  store ptr %14, ptr %51, align 8, !tbaa !18
  call void @_ZZZZZZZZZZZZZ13run_flash_fwdI23Flash_fwd_kernel_traitsILi256ELi128ELi64ELi8ELb0ELb0EN7cutlass10bfloat16_tE19Flash_kernel_traitsILi256ELi128ELi64ELi8ES2_EELb1ELb1EEvR16Flash_fwd_paramsP11CUstream_stENKUlvE_clEvENKUlvE_clEvENKUlvE_clEvENKUlvE_clEvENKUlvE_clEvENKUlvE0_clEvENKUlvE_clEvENKUlvE0_clEvENKUlvE_clEvENKUlvE0_clEvENKUlvE_clEvENKUlvE_clEv(ptr noundef nonnull align 8 dereferenceable(24) %2)
  call void @llvm.lifetime.end.p0(i64 24, ptr nonnull %2) #9
  br label %55

52:                                               ; preds = %48
  call void @llvm.lifetime.start.p0(i64 24, ptr nonnull %3) #9
  store ptr %16, ptr %3, align 8, !tbaa !18
  %53 = getelementptr inbounds %class.anon.52, ptr %3, i64 0, i32 1
  store ptr %18, ptr %53, align 8, !tbaa !18
  %54 = getelementptr inbounds %class.anon.52, ptr %3, i64 0, i32 2
  store ptr %14, ptr %54, align 8, !tbaa !18
  call void @_ZZZZZZZZZZZZZ13run_flash_fwdI23Flash_fwd_kernel_traitsILi256ELi128ELi64ELi8ELb0ELb0EN7cutlass10bfloat16_tE19Flash_kernel_traitsILi256ELi128ELi64ELi8ES2_EELb1ELb1EEvR16Flash_fwd_paramsP11CUstream_stENKUlvE_clEvENKUlvE_clEvENKUlvE_clEvENKUlvE_clEvENKUlvE_clEvENKUlvE0_clEvENKUlvE_clEvENKUlvE0_clEvENKUlvE_clEvENKUlvE0_clEvENKUlvE_clEvENKUlvE0_clEv(ptr noundef nonnull align 8 dereferenceable(24) %3)
  call void @llvm.lifetime.end.p0(i64 24, ptr nonnull %3) #9
  br label %55

55:                                               ; preds = %52, %49, %45, %42, %37, %34, %30, %27
  ret void
}

; Function Attrs: inlinehint mustprogress uwtable
define linkonce_odr dso_local void @_ZZZZZZZZZZZZZ13run_flash_fwdI23Flash_fwd_kernel_traitsILi256ELi128ELi64ELi8ELb0ELb0EN7cutlass10bfloat16_tE19Flash_kernel_traitsILi256ELi128ELi64ELi8ES2_EELb1ELb1EEvR16Flash_fwd_paramsP11CUstream_stENKUlvE_clEvENKUlvE_clEvENKUlvE_clEvENKUlvE_clEvENKUlvE_clEvENKUlvE0_clEvENKUlvE_clEvENKUlvE_clEvENKUlvE_clEvENKUlvE_clEvENKUlvE_clEvENKUlvE_clEv(ptr noundef nonnull align 8 dereferenceable(24) %0) local_unnamed_addr #7 comdat align 2 {
  %2 = alloca %struct.dim3, align 8
  %3 = alloca %struct.dim3, align 8
  %4 = alloca i64, align 8
  %5 = alloca ptr, align 8
  %6 = alloca ptr, align 16
  %7 = alloca %struct.Flash_fwd_params, align 8
  %8 = alloca %struct.Flash_fwd_params, align 8
  %9 = tail call noundef i32 @cudaFuncSetAttribute(ptr noundef nonnull @_Z31__device_stub__flash_fwd_kernelI23Flash_fwd_kernel_traitsILi256ELi128ELi64ELi8ELb0ELb0EN7cutlass10bfloat16_tE19Flash_kernel_traitsILi256ELi128ELi64ELi8ES2_EELb0ELb1ELb0ELb1ELb0ELb1ELb1ELb0EEv16Flash_fwd_params, i32 noundef 8, i32 noundef 131072)
  tail call void @_ZN3c104cuda29c10_cuda_check_implementationEiPKcS2_ib(i32 noundef %9, ptr noundef nonnull @.str, ptr noundef nonnull @__func__._ZZZZZZZZZZZZZ13run_flash_fwdI23Flash_fwd_kernel_traitsILi256ELi128ELi64ELi8ELb0ELb0EN7cutlass10bfloat16_tE19Flash_kernel_traitsILi256ELi128ELi64ELi8ES2_EELb1ELb1EEvR16Flash_fwd_paramsP11CUstream_stENKUlvE_clEvENKUlvE_clEvENKUlvE_clEvENKUlvE_clEvENKUlvE_clEvENKUlvE_clEvENKUlvE_clEvENKUlvE_clEvENKUlvE_clEvENKUlvE_clEvENKUlvE_clEvENKUlvE_clEv, i32 noundef 82, i1 noundef zeroext true)
  %10 = load ptr, ptr %0, align 8, !tbaa !40
  %11 = load i64, ptr %10, align 4, !tbaa.struct !42
  %12 = getelementptr inbounds i8, ptr %10, i64 8
  %13 = load i32, ptr %12, align 4, !tbaa.struct !43
  %14 = getelementptr inbounds %class.anon.39, ptr %0, i64 0, i32 1
  %15 = load ptr, ptr %14, align 8, !tbaa !44
  %16 = load ptr, ptr %15, align 8, !tbaa !18
  %17 = tail call i32 @__cudaPushCallConfiguration(i64 %11, i32 %13, i64 4294967552, i32 1, i64 noundef 131072, ptr noundef %16)
  %18 = icmp eq i32 %17, 0
  br i1 %18, label %19, label %32

19:                                               ; preds = %1
  %20 = getelementptr inbounds %class.anon.39, ptr %0, i64 0, i32 2
  %21 = load ptr, ptr %20, align 8, !tbaa !45
  call void @llvm.memcpy.p0.p0.i64(ptr noundef nonnull align 8 dereferenceable(464) %8, ptr noundef nonnull align 8 dereferenceable(464) %21, i64 464, i1 false)
  call void @llvm.lifetime.start.p0(i64 464, ptr nonnull %7)
  call void @llvm.lifetime.start.p0(i64 12, ptr nonnull %2)
  call void @llvm.lifetime.start.p0(i64 12, ptr nonnull %3)
  call void @llvm.lifetime.start.p0(i64 8, ptr nonnull %4)
  call void @llvm.lifetime.start.p0(i64 8, ptr nonnull %5)
  call void @llvm.lifetime.start.p0(i64 8, ptr nonnull %6)
  call void @llvm.memcpy.p0.p0.i64(ptr noundef nonnull align 8 dereferenceable(464) %7, ptr noundef nonnull align 8 dereferenceable(464) %8, i64 464, i1 false)
  store ptr %7, ptr %6, align 16
  %22 = call i32 @__cudaPopCallConfiguration(ptr nonnull %2, ptr nonnull %3, ptr nonnull %4, ptr nonnull %5)
  %23 = load i64, ptr %4, align 8
  %24 = load ptr, ptr %5, align 8
  %25 = load i64, ptr %2, align 8
  %26 = getelementptr inbounds i8, ptr %2, i64 8
  %27 = load i32, ptr %26, align 8
  %28 = load i64, ptr %3, align 8
  %29 = getelementptr inbounds i8, ptr %3, i64 8
  %30 = load i32, ptr %29, align 8
  %31 = call noundef i32 @cudaLaunchKernel(ptr noundef nonnull @_Z31__device_stub__flash_fwd_kernelI23Flash_fwd_kernel_traitsILi256ELi128ELi64ELi8ELb0ELb0EN7cutlass10bfloat16_tE19Flash_kernel_traitsILi256ELi128ELi64ELi8ES2_EELb0ELb1ELb0ELb1ELb0ELb1ELb1ELb0EEv16Flash_fwd_params, i64 %25, i32 %27, i64 %28, i32 %30, ptr noundef nonnull %6, i64 noundef %23, ptr noundef %24)
  call void @llvm.lifetime.end.p0(i64 464, ptr nonnull %7)
  call void @llvm.lifetime.end.p0(i64 12, ptr nonnull %2)
  call void @llvm.lifetime.end.p0(i64 12, ptr nonnull %3)
  call void @llvm.lifetime.end.p0(i64 8, ptr nonnull %4)
  call void @llvm.lifetime.end.p0(i64 8, ptr nonnull %5)
  call void @llvm.lifetime.end.p0(i64 8, ptr nonnull %6)
  br label %32

32:                                               ; preds = %1, %19
  %33 = call i32 @cudaGetLastError()
  call void @_ZN3c104cuda29c10_cuda_check_implementationEiPKcS2_ib(i32 noundef %33, ptr noundef nonnull @.str, ptr noundef nonnull @__func__._ZZZZZZZZZZZZZ13run_flash_fwdI23Flash_fwd_kernel_traitsILi256ELi128ELi64ELi8ELb0ELb0EN7cutlass10bfloat16_tE19Flash_kernel_traitsILi256ELi128ELi64ELi8ES2_EELb1ELb1EEvR16Flash_fwd_paramsP11CUstream_stENKUlvE_clEvENKUlvE_clEvENKUlvE_clEvENKUlvE_clEvENKUlvE_clEvENKUlvE_clEvENKUlvE_clEvENKUlvE_clEvENKUlvE_clEvENKUlvE_clEvENKUlvE_clEvENKUlvE_clEv, i32 noundef 89, i1 noundef zeroext true)
  ret void
}

; Function Attrs: inlinehint mustprogress uwtable
define linkonce_odr dso_local void @_ZZZZZZZZZZZZZ13run_flash_fwdI23Flash_fwd_kernel_traitsILi256ELi128ELi64ELi8ELb0ELb0EN7cutlass10bfloat16_tE19Flash_kernel_traitsILi256ELi128ELi64ELi8ES2_EELb1ELb1EEvR16Flash_fwd_paramsP11CUstream_stENKUlvE_clEvENKUlvE_clEvENKUlvE_clEvENKUlvE_clEvENKUlvE_clEvENKUlvE0_clEvENKUlvE_clEvENKUlvE_clEvENKUlvE_clEvENKUlvE_clEvENKUlvE_clEvENKUlvE0_clEv(ptr noundef nonnull align 8 dereferenceable(24) %0) local_unnamed_addr #7 comdat align 2 {
  %2 = alloca %struct.dim3, align 8
  %3 = alloca %struct.dim3, align 8
  %4 = alloca i64, align 8
  %5 = alloca ptr, align 8
  %6 = alloca ptr, align 16
  %7 = alloca %struct.Flash_fwd_params, align 8
  %8 = alloca %struct.Flash_fwd_params, align 8
  %9 = tail call noundef i32 @cudaFuncSetAttribute(ptr noundef nonnull @_Z31__device_stub__flash_fwd_kernelI23Flash_fwd_kernel_traitsILi256ELi128ELi64ELi8ELb0ELb0EN7cutlass10bfloat16_tE19Flash_kernel_traitsILi256ELi128ELi64ELi8ES2_EELb1ELb1ELb0ELb1ELb0ELb1ELb0ELb1EEv16Flash_fwd_params, i32 noundef 8, i32 noundef 131072)
  tail call void @_ZN3c104cuda29c10_cuda_check_implementationEiPKcS2_ib(i32 noundef %9, ptr noundef nonnull @.str, ptr noundef nonnull @__func__._ZZZZZZZZZZZZZ13run_flash_fwdI23Flash_fwd_kernel_traitsILi256ELi128ELi64ELi8ELb0ELb0EN7cutlass10bfloat16_tE19Flash_kernel_traitsILi256ELi128ELi64ELi8ES2_EELb1ELb1EEvR16Flash_fwd_paramsP11CUstream_stENKUlvE_clEvENKUlvE_clEvENKUlvE_clEvENKUlvE_clEvENKUlvE_clEvENKUlvE_clEvENKUlvE_clEvENKUlvE_clEvENKUlvE_clEvENKUlvE_clEvENKUlvE_clEvENKUlvE_clEv, i32 noundef 82, i1 noundef zeroext true)
  %10 = load ptr, ptr %0, align 8, !tbaa !46
  %11 = load i64, ptr %10, align 4, !tbaa.struct !42
  %12 = getelementptr inbounds i8, ptr %10, i64 8
  %13 = load i32, ptr %12, align 4, !tbaa.struct !43
  %14 = getelementptr inbounds %class.anon.40, ptr %0, i64 0, i32 1
  %15 = load ptr, ptr %14, align 8, !tbaa !48
  %16 = load ptr, ptr %15, align 8, !tbaa !18
  %17 = tail call i32 @__cudaPushCallConfiguration(i64 %11, i32 %13, i64 4294967552, i32 1, i64 noundef 131072, ptr noundef %16)
  %18 = icmp eq i32 %17, 0
  br i1 %18, label %19, label %32

19:                                               ; preds = %1
  %20 = getelementptr inbounds %class.anon.40, ptr %0, i64 0, i32 2
  %21 = load ptr, ptr %20, align 8, !tbaa !49
  call void @llvm.memcpy.p0.p0.i64(ptr noundef nonnull align 8 dereferenceable(464) %8, ptr noundef nonnull align 8 dereferenceable(464) %21, i64 464, i1 false)
  call void @llvm.lifetime.start.p0(i64 464, ptr nonnull %7)
  call void @llvm.lifetime.start.p0(i64 12, ptr nonnull %2)
  call void @llvm.lifetime.start.p0(i64 12, ptr nonnull %3)
  call void @llvm.lifetime.start.p0(i64 8, ptr nonnull %4)
  call void @llvm.lifetime.start.p0(i64 8, ptr nonnull %5)
  call void @llvm.lifetime.start.p0(i64 8, ptr nonnull %6)
  call void @llvm.memcpy.p0.p0.i64(ptr noundef nonnull align 8 dereferenceable(464) %7, ptr noundef nonnull align 8 dereferenceable(464) %8, i64 464, i1 false)
  store ptr %7, ptr %6, align 16
  %22 = call i32 @__cudaPopCallConfiguration(ptr nonnull %2, ptr nonnull %3, ptr nonnull %4, ptr nonnull %5)
  %23 = load i64, ptr %4, align 8
  %24 = load ptr, ptr %5, align 8
  %25 = load i64, ptr %2, align 8
  %26 = getelementptr inbounds i8, ptr %2, i64 8
  %27 = load i32, ptr %26, align 8
  %28 = load i64, ptr %3, align 8
  %29 = getelementptr inbounds i8, ptr %3, i64 8
  %30 = load i32, ptr %29, align 8
  %31 = call noundef i32 @cudaLaunchKernel(ptr noundef nonnull @_Z31__device_stub__flash_fwd_kernelI23Flash_fwd_kernel_traitsILi256ELi128ELi64ELi8ELb0ELb0EN7cutlass10bfloat16_tE19Flash_kernel_traitsILi256ELi128ELi64ELi8ES2_EELb1ELb1ELb0ELb1ELb0ELb1ELb0ELb1EEv16Flash_fwd_params, i64 %25, i32 %27, i64 %28, i32 %30, ptr noundef nonnull %6, i64 noundef %23, ptr noundef %24)
  call void @llvm.lifetime.end.p0(i64 464, ptr nonnull %7)
  call void @llvm.lifetime.end.p0(i64 12, ptr nonnull %2)
  call void @llvm.lifetime.end.p0(i64 12, ptr nonnull %3)
  call void @llvm.lifetime.end.p0(i64 8, ptr nonnull %4)
  call void @llvm.lifetime.end.p0(i64 8, ptr nonnull %5)
  call void @llvm.lifetime.end.p0(i64 8, ptr nonnull %6)
  br label %32

32:                                               ; preds = %1, %19
  %33 = call i32 @cudaGetLastError()
  call void @_ZN3c104cuda29c10_cuda_check_implementationEiPKcS2_ib(i32 noundef %33, ptr noundef nonnull @.str, ptr noundef nonnull @__func__._ZZZZZZZZZZZZZ13run_flash_fwdI23Flash_fwd_kernel_traitsILi256ELi128ELi64ELi8ELb0ELb0EN7cutlass10bfloat16_tE19Flash_kernel_traitsILi256ELi128ELi64ELi8ES2_EELb1ELb1EEvR16Flash_fwd_paramsP11CUstream_stENKUlvE_clEvENKUlvE_clEvENKUlvE_clEvENKUlvE_clEvENKUlvE_clEvENKUlvE_clEvENKUlvE_clEvENKUlvE_clEvENKUlvE_clEvENKUlvE_clEvENKUlvE_clEvENKUlvE_clEv, i32 noundef 89, i1 noundef zeroext true)
  ret void
}

; Function Attrs: inlinehint mustprogress uwtable
define linkonce_odr dso_local void @_ZZZZZZZZZZZZZ13run_flash_fwdI23Flash_fwd_kernel_traitsILi256ELi128ELi64ELi8ELb0ELb0EN7cutlass10bfloat16_tE19Flash_kernel_traitsILi256ELi128ELi64ELi8ES2_EELb1ELb1EEvR16Flash_fwd_paramsP11CUstream_stENKUlvE_clEvENKUlvE_clEvENKUlvE_clEvENKUlvE_clEvENKUlvE_clEvENKUlvE0_clEvENKUlvE_clEvENKUlvE_clEvENKUlvE_clEvENKUlvE0_clEvENKUlvE_clEvENKUlvE_clEv(ptr noundef nonnull align 8 dereferenceable(24) %0) local_unnamed_addr #7 comdat align 2 {
  %2 = alloca %struct.dim3, align 8
  %3 = alloca %struct.dim3, align 8
  %4 = alloca i64, align 8
  %5 = alloca ptr, align 8
  %6 = alloca ptr, align 16
  %7 = alloca %struct.Flash_fwd_params, align 8
  %8 = alloca %struct.Flash_fwd_params, align 8
  %9 = tail call noundef i32 @cudaFuncSetAttribute(ptr noundef nonnull @_Z31__device_stub__flash_fwd_kernelI23Flash_fwd_kernel_traitsILi256ELi128ELi64ELi8ELb0ELb0EN7cutlass10bfloat16_tE19Flash_kernel_traitsILi256ELi128ELi64ELi8ES2_EELb0ELb1ELb0ELb0ELb0ELb1ELb1ELb0EEv16Flash_fwd_params, i32 noundef 8, i32 noundef 131072)
  tail call void @_ZN3c104cuda29c10_cuda_check_implementationEiPKcS2_ib(i32 noundef %9, ptr noundef nonnull @.str, ptr noundef nonnull @__func__._ZZZZZZZZZZZZZ13run_flash_fwdI23Flash_fwd_kernel_traitsILi256ELi128ELi64ELi8ELb0ELb0EN7cutlass10bfloat16_tE19Flash_kernel_traitsILi256ELi128ELi64ELi8ES2_EELb1ELb1EEvR16Flash_fwd_paramsP11CUstream_stENKUlvE_clEvENKUlvE_clEvENKUlvE_clEvENKUlvE_clEvENKUlvE_clEvENKUlvE_clEvENKUlvE_clEvENKUlvE_clEvENKUlvE_clEvENKUlvE_clEvENKUlvE_clEvENKUlvE_clEv, i32 noundef 82, i1 noundef zeroext true)
  %10 = load ptr, ptr %0, align 8, !tbaa !50
  %11 = load i64, ptr %10, align 4, !tbaa.struct !42
  %12 = getelementptr inbounds i8, ptr %10, i64 8
  %13 = load i32, ptr %12, align 4, !tbaa.struct !43
  %14 = getelementptr inbounds %class.anon.42, ptr %0, i64 0, i32 1
  %15 = load ptr, ptr %14, align 8, !tbaa !52
  %16 = load ptr, ptr %15, align 8, !tbaa !18
  %17 = tail call i32 @__cudaPushCallConfiguration(i64 %11, i32 %13, i64 4294967552, i32 1, i64 noundef 131072, ptr noundef %16)
  %18 = icmp eq i32 %17, 0
  br i1 %18, label %19, label %32

19:                                               ; preds = %1
  %20 = getelementptr inbounds %class.anon.42, ptr %0, i64 0, i32 2
  %21 = load ptr, ptr %20, align 8, !tbaa !53
  call void @llvm.memcpy.p0.p0.i64(ptr noundef nonnull align 8 dereferenceable(464) %8, ptr noundef nonnull align 8 dereferenceable(464) %21, i64 464, i1 false)
  call void @llvm.lifetime.start.p0(i64 464, ptr nonnull %7)
  call void @llvm.lifetime.start.p0(i64 12, ptr nonnull %2)
  call void @llvm.lifetime.start.p0(i64 12, ptr nonnull %3)
  call void @llvm.lifetime.start.p0(i64 8, ptr nonnull %4)
  call void @llvm.lifetime.start.p0(i64 8, ptr nonnull %5)
  call void @llvm.lifetime.start.p0(i64 8, ptr nonnull %6)
  call void @llvm.memcpy.p0.p0.i64(ptr noundef nonnull align 8 dereferenceable(464) %7, ptr noundef nonnull align 8 dereferenceable(464) %8, i64 464, i1 false)
  store ptr %7, ptr %6, align 16
  %22 = call i32 @__cudaPopCallConfiguration(ptr nonnull %2, ptr nonnull %3, ptr nonnull %4, ptr nonnull %5)
  %23 = load i64, ptr %4, align 8
  %24 = load ptr, ptr %5, align 8
  %25 = load i64, ptr %2, align 8
  %26 = getelementptr inbounds i8, ptr %2, i64 8
  %27 = load i32, ptr %26, align 8
  %28 = load i64, ptr %3, align 8
  %29 = getelementptr inbounds i8, ptr %3, i64 8
  %30 = load i32, ptr %29, align 8
  %31 = call noundef i32 @cudaLaunchKernel(ptr noundef nonnull @_Z31__device_stub__flash_fwd_kernelI23Flash_fwd_kernel_traitsILi256ELi128ELi64ELi8ELb0ELb0EN7cutlass10bfloat16_tE19Flash_kernel_traitsILi256ELi128ELi64ELi8ES2_EELb0ELb1ELb0ELb0ELb0ELb1ELb1ELb0EEv16Flash_fwd_params, i64 %25, i32 %27, i64 %28, i32 %30, ptr noundef nonnull %6, i64 noundef %23, ptr noundef %24)
  call void @llvm.lifetime.end.p0(i64 464, ptr nonnull %7)
  call void @llvm.lifetime.end.p0(i64 12, ptr nonnull %2)
  call void @llvm.lifetime.end.p0(i64 12, ptr nonnull %3)
  call void @llvm.lifetime.end.p0(i64 8, ptr nonnull %4)
  call void @llvm.lifetime.end.p0(i64 8, ptr nonnull %5)
  call void @llvm.lifetime.end.p0(i64 8, ptr nonnull %6)
  br label %32

32:                                               ; preds = %1, %19
  %33 = call i32 @cudaGetLastError()
  call void @_ZN3c104cuda29c10_cuda_check_implementationEiPKcS2_ib(i32 noundef %33, ptr noundef nonnull @.str, ptr noundef nonnull @__func__._ZZZZZZZZZZZZZ13run_flash_fwdI23Flash_fwd_kernel_traitsILi256ELi128ELi64ELi8ELb0ELb0EN7cutlass10bfloat16_tE19Flash_kernel_traitsILi256ELi128ELi64ELi8ES2_EELb1ELb1EEvR16Flash_fwd_paramsP11CUstream_stENKUlvE_clEvENKUlvE_clEvENKUlvE_clEvENKUlvE_clEvENKUlvE_clEvENKUlvE_clEvENKUlvE_clEvENKUlvE_clEvENKUlvE_clEvENKUlvE_clEvENKUlvE_clEvENKUlvE_clEv, i32 noundef 89, i1 noundef zeroext true)
  ret void
}

; Function Attrs: inlinehint mustprogress uwtable
define linkonce_odr dso_local void @_ZZZZZZZZZZZZZ13run_flash_fwdI23Flash_fwd_kernel_traitsILi256ELi128ELi64ELi8ELb0ELb0EN7cutlass10bfloat16_tE19Flash_kernel_traitsILi256ELi128ELi64ELi8ES2_EELb1ELb1EEvR16Flash_fwd_paramsP11CUstream_stENKUlvE_clEvENKUlvE_clEvENKUlvE_clEvENKUlvE_clEvENKUlvE_clEvENKUlvE0_clEvENKUlvE_clEvENKUlvE_clEvENKUlvE_clEvENKUlvE0_clEvENKUlvE_clEvENKUlvE0_clEv(ptr noundef nonnull align 8 dereferenceable(24) %0) local_unnamed_addr #7 comdat align 2 {
  %2 = alloca %struct.dim3, align 8
  %3 = alloca %struct.dim3, align 8
  %4 = alloca i64, align 8
  %5 = alloca ptr, align 8
  %6 = alloca ptr, align 16
  %7 = alloca %struct.Flash_fwd_params, align 8
  %8 = alloca %struct.Flash_fwd_params, align 8
  %9 = tail call noundef i32 @cudaFuncSetAttribute(ptr noundef nonnull @_Z31__device_stub__flash_fwd_kernelI23Flash_fwd_kernel_traitsILi256ELi128ELi64ELi8ELb0ELb0EN7cutlass10bfloat16_tE19Flash_kernel_traitsILi256ELi128ELi64ELi8ES2_EELb1ELb1ELb0ELb0ELb0ELb1ELb0ELb1EEv16Flash_fwd_params, i32 noundef 8, i32 noundef 131072)
  tail call void @_ZN3c104cuda29c10_cuda_check_implementationEiPKcS2_ib(i32 noundef %9, ptr noundef nonnull @.str, ptr noundef nonnull @__func__._ZZZZZZZZZZZZZ13run_flash_fwdI23Flash_fwd_kernel_traitsILi256ELi128ELi64ELi8ELb0ELb0EN7cutlass10bfloat16_tE19Flash_kernel_traitsILi256ELi128ELi64ELi8ES2_EELb1ELb1EEvR16Flash_fwd_paramsP11CUstream_stENKUlvE_clEvENKUlvE_clEvENKUlvE_clEvENKUlvE_clEvENKUlvE_clEvENKUlvE_clEvENKUlvE_clEvENKUlvE_clEvENKUlvE_clEvENKUlvE_clEvENKUlvE_clEvENKUlvE_clEv, i32 noundef 82, i1 noundef zeroext true)
  %10 = load ptr, ptr %0, align 8, !tbaa !54
  %11 = load i64, ptr %10, align 4, !tbaa.struct !42
  %12 = getelementptr inbounds i8, ptr %10, i64 8
  %13 = load i32, ptr %12, align 4, !tbaa.struct !43
  %14 = getelementptr inbounds %class.anon.43, ptr %0, i64 0, i32 1
  %15 = load ptr, ptr %14, align 8, !tbaa !56
  %16 = load ptr, ptr %15, align 8, !tbaa !18
  %17 = tail call i32 @__cudaPushCallConfiguration(i64 %11, i32 %13, i64 4294967552, i32 1, i64 noundef 131072, ptr noundef %16)
  %18 = icmp eq i32 %17, 0
  br i1 %18, label %19, label %32

19:                                               ; preds = %1
  %20 = getelementptr inbounds %class.anon.43, ptr %0, i64 0, i32 2
  %21 = load ptr, ptr %20, align 8, !tbaa !57
  call void @llvm.memcpy.p0.p0.i64(ptr noundef nonnull align 8 dereferenceable(464) %8, ptr noundef nonnull align 8 dereferenceable(464) %21, i64 464, i1 false)
  call void @llvm.lifetime.start.p0(i64 464, ptr nonnull %7)
  call void @llvm.lifetime.start.p0(i64 12, ptr nonnull %2)
  call void @llvm.lifetime.start.p0(i64 12, ptr nonnull %3)
  call void @llvm.lifetime.start.p0(i64 8, ptr nonnull %4)
  call void @llvm.lifetime.start.p0(i64 8, ptr nonnull %5)
  call void @llvm.lifetime.start.p0(i64 8, ptr nonnull %6)
  call void @llvm.memcpy.p0.p0.i64(ptr noundef nonnull align 8 dereferenceable(464) %7, ptr noundef nonnull align 8 dereferenceable(464) %8, i64 464, i1 false)
  store ptr %7, ptr %6, align 16
  %22 = call i32 @__cudaPopCallConfiguration(ptr nonnull %2, ptr nonnull %3, ptr nonnull %4, ptr nonnull %5)
  %23 = load i64, ptr %4, align 8
  %24 = load ptr, ptr %5, align 8
  %25 = load i64, ptr %2, align 8
  %26 = getelementptr inbounds i8, ptr %2, i64 8
  %27 = load i32, ptr %26, align 8
  %28 = load i64, ptr %3, align 8
  %29 = getelementptr inbounds i8, ptr %3, i64 8
  %30 = load i32, ptr %29, align 8
  %31 = call noundef i32 @cudaLaunchKernel(ptr noundef nonnull @_Z31__device_stub__flash_fwd_kernelI23Flash_fwd_kernel_traitsILi256ELi128ELi64ELi8ELb0ELb0EN7cutlass10bfloat16_tE19Flash_kernel_traitsILi256ELi128ELi64ELi8ES2_EELb1ELb1ELb0ELb0ELb0ELb1ELb0ELb1EEv16Flash_fwd_params, i64 %25, i32 %27, i64 %28, i32 %30, ptr noundef nonnull %6, i64 noundef %23, ptr noundef %24)
  call void @llvm.lifetime.end.p0(i64 464, ptr nonnull %7)
  call void @llvm.lifetime.end.p0(i64 12, ptr nonnull %2)
  call void @llvm.lifetime.end.p0(i64 12, ptr nonnull %3)
  call void @llvm.lifetime.end.p0(i64 8, ptr nonnull %4)
  call void @llvm.lifetime.end.p0(i64 8, ptr nonnull %5)
  call void @llvm.lifetime.end.p0(i64 8, ptr nonnull %6)
  br label %32

32:                                               ; preds = %1, %19
  %33 = call i32 @cudaGetLastError()
  call void @_ZN3c104cuda29c10_cuda_check_implementationEiPKcS2_ib(i32 noundef %33, ptr noundef nonnull @.str, ptr noundef nonnull @__func__._ZZZZZZZZZZZZZ13run_flash_fwdI23Flash_fwd_kernel_traitsILi256ELi128ELi64ELi8ELb0ELb0EN7cutlass10bfloat16_tE19Flash_kernel_traitsILi256ELi128ELi64ELi8ES2_EELb1ELb1EEvR16Flash_fwd_paramsP11CUstream_stENKUlvE_clEvENKUlvE_clEvENKUlvE_clEvENKUlvE_clEvENKUlvE_clEvENKUlvE_clEvENKUlvE_clEvENKUlvE_clEvENKUlvE_clEvENKUlvE_clEvENKUlvE_clEvENKUlvE_clEv, i32 noundef 89, i1 noundef zeroext true)
  ret void
}

; Function Attrs: inlinehint mustprogress uwtable
define linkonce_odr dso_local void @_ZZZZZZZZZZZZZ13run_flash_fwdI23Flash_fwd_kernel_traitsILi256ELi128ELi64ELi8ELb0ELb0EN7cutlass10bfloat16_tE19Flash_kernel_traitsILi256ELi128ELi64ELi8ES2_EELb1ELb1EEvR16Flash_fwd_paramsP11CUstream_stENKUlvE_clEvENKUlvE_clEvENKUlvE_clEvENKUlvE_clEvENKUlvE_clEvENKUlvE0_clEvENKUlvE_clEvENKUlvE0_clEvENKUlvE_clEvENKUlvE_clEvENKUlvE_clEvENKUlvE_clEv(ptr noundef nonnull align 8 dereferenceable(24) %0) local_unnamed_addr #7 comdat align 2 {
  %2 = alloca %struct.dim3, align 8
  %3 = alloca %struct.dim3, align 8
  %4 = alloca i64, align 8
  %5 = alloca ptr, align 8
  %6 = alloca ptr, align 16
  %7 = alloca %struct.Flash_fwd_params, align 8
  %8 = alloca %struct.Flash_fwd_params, align 8
  %9 = tail call noundef i32 @cudaFuncSetAttribute(ptr noundef nonnull @_Z31__device_stub__flash_fwd_kernelI23Flash_fwd_kernel_traitsILi256ELi128ELi64ELi8ELb0ELb0EN7cutlass10bfloat16_tE19Flash_kernel_traitsILi256ELi128ELi64ELi8ES2_EELb0ELb1ELb0ELb1ELb0ELb1ELb1ELb0EEv16Flash_fwd_params, i32 noundef 8, i32 noundef 131072)
  tail call void @_ZN3c104cuda29c10_cuda_check_implementationEiPKcS2_ib(i32 noundef %9, ptr noundef nonnull @.str, ptr noundef nonnull @__func__._ZZZZZZZZZZZZZ13run_flash_fwdI23Flash_fwd_kernel_traitsILi256ELi128ELi64ELi8ELb0ELb0EN7cutlass10bfloat16_tE19Flash_kernel_traitsILi256ELi128ELi64ELi8ES2_EELb1ELb1EEvR16Flash_fwd_paramsP11CUstream_stENKUlvE_clEvENKUlvE_clEvENKUlvE_clEvENKUlvE_clEvENKUlvE_clEvENKUlvE_clEvENKUlvE_clEvENKUlvE_clEvENKUlvE_clEvENKUlvE_clEvENKUlvE_clEvENKUlvE_clEv, i32 noundef 82, i1 noundef zeroext true)
  %10 = load ptr, ptr %0, align 8, !tbaa !58
  %11 = load i64, ptr %10, align 4, !tbaa.struct !42
  %12 = getelementptr inbounds i8, ptr %10, i64 8
  %13 = load i32, ptr %12, align 4, !tbaa.struct !43
  %14 = getelementptr inbounds %class.anon.48, ptr %0, i64 0, i32 1
  %15 = load ptr, ptr %14, align 8, !tbaa !60
  %16 = load ptr, ptr %15, align 8, !tbaa !18
  %17 = tail call i32 @__cudaPushCallConfiguration(i64 %11, i32 %13, i64 4294967552, i32 1, i64 noundef 131072, ptr noundef %16)
  %18 = icmp eq i32 %17, 0
  br i1 %18, label %19, label %32

19:                                               ; preds = %1
  %20 = getelementptr inbounds %class.anon.48, ptr %0, i64 0, i32 2
  %21 = load ptr, ptr %20, align 8, !tbaa !61
  call void @llvm.memcpy.p0.p0.i64(ptr noundef nonnull align 8 dereferenceable(464) %8, ptr noundef nonnull align 8 dereferenceable(464) %21, i64 464, i1 false)
  call void @llvm.lifetime.start.p0(i64 464, ptr nonnull %7)
  call void @llvm.lifetime.start.p0(i64 12, ptr nonnull %2)
  call void @llvm.lifetime.start.p0(i64 12, ptr nonnull %3)
  call void @llvm.lifetime.start.p0(i64 8, ptr nonnull %4)
  call void @llvm.lifetime.start.p0(i64 8, ptr nonnull %5)
  call void @llvm.lifetime.start.p0(i64 8, ptr nonnull %6)
  call void @llvm.memcpy.p0.p0.i64(ptr noundef nonnull align 8 dereferenceable(464) %7, ptr noundef nonnull align 8 dereferenceable(464) %8, i64 464, i1 false)
  store ptr %7, ptr %6, align 16
  %22 = call i32 @__cudaPopCallConfiguration(ptr nonnull %2, ptr nonnull %3, ptr nonnull %4, ptr nonnull %5)
  %23 = load i64, ptr %4, align 8
  %24 = load ptr, ptr %5, align 8
  %25 = load i64, ptr %2, align 8
  %26 = getelementptr inbounds i8, ptr %2, i64 8
  %27 = load i32, ptr %26, align 8
  %28 = load i64, ptr %3, align 8
  %29 = getelementptr inbounds i8, ptr %3, i64 8
  %30 = load i32, ptr %29, align 8
  %31 = call noundef i32 @cudaLaunchKernel(ptr noundef nonnull @_Z31__device_stub__flash_fwd_kernelI23Flash_fwd_kernel_traitsILi256ELi128ELi64ELi8ELb0ELb0EN7cutlass10bfloat16_tE19Flash_kernel_traitsILi256ELi128ELi64ELi8ES2_EELb0ELb1ELb0ELb1ELb0ELb1ELb1ELb0EEv16Flash_fwd_params, i64 %25, i32 %27, i64 %28, i32 %30, ptr noundef nonnull %6, i64 noundef %23, ptr noundef %24)
  call void @llvm.lifetime.end.p0(i64 464, ptr nonnull %7)
  call void @llvm.lifetime.end.p0(i64 12, ptr nonnull %2)
  call void @llvm.lifetime.end.p0(i64 12, ptr nonnull %3)
  call void @llvm.lifetime.end.p0(i64 8, ptr nonnull %4)
  call void @llvm.lifetime.end.p0(i64 8, ptr nonnull %5)
  call void @llvm.lifetime.end.p0(i64 8, ptr nonnull %6)
  br label %32

32:                                               ; preds = %1, %19
  %33 = call i32 @cudaGetLastError()
  call void @_ZN3c104cuda29c10_cuda_check_implementationEiPKcS2_ib(i32 noundef %33, ptr noundef nonnull @.str, ptr noundef nonnull @__func__._ZZZZZZZZZZZZZ13run_flash_fwdI23Flash_fwd_kernel_traitsILi256ELi128ELi64ELi8ELb0ELb0EN7cutlass10bfloat16_tE19Flash_kernel_traitsILi256ELi128ELi64ELi8ES2_EELb1ELb1EEvR16Flash_fwd_paramsP11CUstream_stENKUlvE_clEvENKUlvE_clEvENKUlvE_clEvENKUlvE_clEvENKUlvE_clEvENKUlvE_clEvENKUlvE_clEvENKUlvE_clEvENKUlvE_clEvENKUlvE_clEvENKUlvE_clEvENKUlvE_clEv, i32 noundef 89, i1 noundef zeroext true)
  ret void
}

; Function Attrs: inlinehint mustprogress uwtable
define linkonce_odr dso_local void @_ZZZZZZZZZZZZZ13run_flash_fwdI23Flash_fwd_kernel_traitsILi256ELi128ELi64ELi8ELb0ELb0EN7cutlass10bfloat16_tE19Flash_kernel_traitsILi256ELi128ELi64ELi8ES2_EELb1ELb1EEvR16Flash_fwd_paramsP11CUstream_stENKUlvE_clEvENKUlvE_clEvENKUlvE_clEvENKUlvE_clEvENKUlvE_clEvENKUlvE0_clEvENKUlvE_clEvENKUlvE0_clEvENKUlvE_clEvENKUlvE_clEvENKUlvE_clEvENKUlvE0_clEv(ptr noundef nonnull align 8 dereferenceable(24) %0) local_unnamed_addr #7 comdat align 2 {
  %2 = alloca %struct.dim3, align 8
  %3 = alloca %struct.dim3, align 8
  %4 = alloca i64, align 8
  %5 = alloca ptr, align 8
  %6 = alloca ptr, align 16
  %7 = alloca %struct.Flash_fwd_params, align 8
  %8 = alloca %struct.Flash_fwd_params, align 8
  %9 = tail call noundef i32 @cudaFuncSetAttribute(ptr noundef nonnull @_Z31__device_stub__flash_fwd_kernelI23Flash_fwd_kernel_traitsILi256ELi128ELi64ELi8ELb0ELb0EN7cutlass10bfloat16_tE19Flash_kernel_traitsILi256ELi128ELi64ELi8ES2_EELb1ELb1ELb0ELb1ELb0ELb1ELb0ELb0EEv16Flash_fwd_params, i32 noundef 8, i32 noundef 131072)
  tail call void @_ZN3c104cuda29c10_cuda_check_implementationEiPKcS2_ib(i32 noundef %9, ptr noundef nonnull @.str, ptr noundef nonnull @__func__._ZZZZZZZZZZZZZ13run_flash_fwdI23Flash_fwd_kernel_traitsILi256ELi128ELi64ELi8ELb0ELb0EN7cutlass10bfloat16_tE19Flash_kernel_traitsILi256ELi128ELi64ELi8ES2_EELb1ELb1EEvR16Flash_fwd_paramsP11CUstream_stENKUlvE_clEvENKUlvE_clEvENKUlvE_clEvENKUlvE_clEvENKUlvE_clEvENKUlvE_clEvENKUlvE_clEvENKUlvE_clEvENKUlvE_clEvENKUlvE_clEvENKUlvE_clEvENKUlvE_clEv, i32 noundef 82, i1 noundef zeroext true)
  %10 = load ptr, ptr %0, align 8, !tbaa !62
  %11 = load i64, ptr %10, align 4, !tbaa.struct !42
  %12 = getelementptr inbounds i8, ptr %10, i64 8
  %13 = load i32, ptr %12, align 4, !tbaa.struct !43
  %14 = getelementptr inbounds %class.anon.49, ptr %0, i64 0, i32 1
  %15 = load ptr, ptr %14, align 8, !tbaa !64
  %16 = load ptr, ptr %15, align 8, !tbaa !18
  %17 = tail call i32 @__cudaPushCallConfiguration(i64 %11, i32 %13, i64 4294967552, i32 1, i64 noundef 131072, ptr noundef %16)
  %18 = icmp eq i32 %17, 0
  br i1 %18, label %19, label %32

19:                                               ; preds = %1
  %20 = getelementptr inbounds %class.anon.49, ptr %0, i64 0, i32 2
  %21 = load ptr, ptr %20, align 8, !tbaa !65
  call void @llvm.memcpy.p0.p0.i64(ptr noundef nonnull align 8 dereferenceable(464) %8, ptr noundef nonnull align 8 dereferenceable(464) %21, i64 464, i1 false)
  call void @llvm.lifetime.start.p0(i64 464, ptr nonnull %7)
  call void @llvm.lifetime.start.p0(i64 12, ptr nonnull %2)
  call void @llvm.lifetime.start.p0(i64 12, ptr nonnull %3)
  call void @llvm.lifetime.start.p0(i64 8, ptr nonnull %4)
  call void @llvm.lifetime.start.p0(i64 8, ptr nonnull %5)
  call void @llvm.lifetime.start.p0(i64 8, ptr nonnull %6)
  call void @llvm.memcpy.p0.p0.i64(ptr noundef nonnull align 8 dereferenceable(464) %7, ptr noundef nonnull align 8 dereferenceable(464) %8, i64 464, i1 false)
  store ptr %7, ptr %6, align 16
  %22 = call i32 @__cudaPopCallConfiguration(ptr nonnull %2, ptr nonnull %3, ptr nonnull %4, ptr nonnull %5)
  %23 = load i64, ptr %4, align 8
  %24 = load ptr, ptr %5, align 8
  %25 = load i64, ptr %2, align 8
  %26 = getelementptr inbounds i8, ptr %2, i64 8
  %27 = load i32, ptr %26, align 8
  %28 = load i64, ptr %3, align 8
  %29 = getelementptr inbounds i8, ptr %3, i64 8
  %30 = load i32, ptr %29, align 8
  %31 = call noundef i32 @cudaLaunchKernel(ptr noundef nonnull @_Z31__device_stub__flash_fwd_kernelI23Flash_fwd_kernel_traitsILi256ELi128ELi64ELi8ELb0ELb0EN7cutlass10bfloat16_tE19Flash_kernel_traitsILi256ELi128ELi64ELi8ES2_EELb1ELb1ELb0ELb1ELb0ELb1ELb0ELb0EEv16Flash_fwd_params, i64 %25, i32 %27, i64 %28, i32 %30, ptr noundef nonnull %6, i64 noundef %23, ptr noundef %24)
  call void @llvm.lifetime.end.p0(i64 464, ptr nonnull %7)
  call void @llvm.lifetime.end.p0(i64 12, ptr nonnull %2)
  call void @llvm.lifetime.end.p0(i64 12, ptr nonnull %3)
  call void @llvm.lifetime.end.p0(i64 8, ptr nonnull %4)
  call void @llvm.lifetime.end.p0(i64 8, ptr nonnull %5)
  call void @llvm.lifetime.end.p0(i64 8, ptr nonnull %6)
  br label %32

32:                                               ; preds = %1, %19
  %33 = call i32 @cudaGetLastError()
  call void @_ZN3c104cuda29c10_cuda_check_implementationEiPKcS2_ib(i32 noundef %33, ptr noundef nonnull @.str, ptr noundef nonnull @__func__._ZZZZZZZZZZZZZ13run_flash_fwdI23Flash_fwd_kernel_traitsILi256ELi128ELi64ELi8ELb0ELb0EN7cutlass10bfloat16_tE19Flash_kernel_traitsILi256ELi128ELi64ELi8ES2_EELb1ELb1EEvR16Flash_fwd_paramsP11CUstream_stENKUlvE_clEvENKUlvE_clEvENKUlvE_clEvENKUlvE_clEvENKUlvE_clEvENKUlvE_clEvENKUlvE_clEvENKUlvE_clEvENKUlvE_clEvENKUlvE_clEvENKUlvE_clEvENKUlvE_clEv, i32 noundef 89, i1 noundef zeroext true)
  ret void
}

; Function Attrs: inlinehint mustprogress uwtable
define linkonce_odr dso_local void @_ZZZZZZZZZZZZZ13run_flash_fwdI23Flash_fwd_kernel_traitsILi256ELi128ELi64ELi8ELb0ELb0EN7cutlass10bfloat16_tE19Flash_kernel_traitsILi256ELi128ELi64ELi8ES2_EELb1ELb1EEvR16Flash_fwd_paramsP11CUstream_stENKUlvE_clEvENKUlvE_clEvENKUlvE_clEvENKUlvE_clEvENKUlvE_clEvENKUlvE0_clEvENKUlvE_clEvENKUlvE0_clEvENKUlvE_clEvENKUlvE0_clEvENKUlvE_clEvENKUlvE_clEv(ptr noundef nonnull align 8 dereferenceable(24) %0) local_unnamed_addr #7 comdat align 2 {
  %2 = alloca %struct.dim3, align 8
  %3 = alloca %struct.dim3, align 8
  %4 = alloca i64, align 8
  %5 = alloca ptr, align 8
  %6 = alloca ptr, align 16
  %7 = alloca %struct.Flash_fwd_params, align 8
  %8 = alloca %struct.Flash_fwd_params, align 8
  %9 = tail call noundef i32 @cudaFuncSetAttribute(ptr noundef nonnull @_Z31__device_stub__flash_fwd_kernelI23Flash_fwd_kernel_traitsILi256ELi128ELi64ELi8ELb0ELb0EN7cutlass10bfloat16_tE19Flash_kernel_traitsILi256ELi128ELi64ELi8ES2_EELb0ELb1ELb0ELb0ELb0ELb1ELb1ELb0EEv16Flash_fwd_params, i32 noundef 8, i32 noundef 131072)
  tail call void @_ZN3c104cuda29c10_cuda_check_implementationEiPKcS2_ib(i32 noundef %9, ptr noundef nonnull @.str, ptr noundef nonnull @__func__._ZZZZZZZZZZZZZ13run_flash_fwdI23Flash_fwd_kernel_traitsILi256ELi128ELi64ELi8ELb0ELb0EN7cutlass10bfloat16_tE19Flash_kernel_traitsILi256ELi128ELi64ELi8ES2_EELb1ELb1EEvR16Flash_fwd_paramsP11CUstream_stENKUlvE_clEvENKUlvE_clEvENKUlvE_clEvENKUlvE_clEvENKUlvE_clEvENKUlvE_clEvENKUlvE_clEvENKUlvE_clEvENKUlvE_clEvENKUlvE_clEvENKUlvE_clEvENKUlvE_clEv, i32 noundef 82, i1 noundef zeroext true)
  %10 = load ptr, ptr %0, align 8, !tbaa !66
  %11 = load i64, ptr %10, align 4, !tbaa.struct !42
  %12 = getelementptr inbounds i8, ptr %10, i64 8
  %13 = load i32, ptr %12, align 4, !tbaa.struct !43
  %14 = getelementptr inbounds %class.anon.51, ptr %0, i64 0, i32 1
  %15 = load ptr, ptr %14, align 8, !tbaa !68
  %16 = load ptr, ptr %15, align 8, !tbaa !18
  %17 = tail call i32 @__cudaPushCallConfiguration(i64 %11, i32 %13, i64 4294967552, i32 1, i64 noundef 131072, ptr noundef %16)
  %18 = icmp eq i32 %17, 0
  br i1 %18, label %19, label %32

19:                                               ; preds = %1
  %20 = getelementptr inbounds %class.anon.51, ptr %0, i64 0, i32 2
  %21 = load ptr, ptr %20, align 8, !tbaa !69
  call void @llvm.memcpy.p0.p0.i64(ptr noundef nonnull align 8 dereferenceable(464) %8, ptr noundef nonnull align 8 dereferenceable(464) %21, i64 464, i1 false)
  call void @llvm.lifetime.start.p0(i64 464, ptr nonnull %7)
  call void @llvm.lifetime.start.p0(i64 12, ptr nonnull %2)
  call void @llvm.lifetime.start.p0(i64 12, ptr nonnull %3)
  call void @llvm.lifetime.start.p0(i64 8, ptr nonnull %4)
  call void @llvm.lifetime.start.p0(i64 8, ptr nonnull %5)
  call void @llvm.lifetime.start.p0(i64 8, ptr nonnull %6)
  call void @llvm.memcpy.p0.p0.i64(ptr noundef nonnull align 8 dereferenceable(464) %7, ptr noundef nonnull align 8 dereferenceable(464) %8, i64 464, i1 false)
  store ptr %7, ptr %6, align 16
  %22 = call i32 @__cudaPopCallConfiguration(ptr nonnull %2, ptr nonnull %3, ptr nonnull %4, ptr nonnull %5)
  %23 = load i64, ptr %4, align 8
  %24 = load ptr, ptr %5, align 8
  %25 = load i64, ptr %2, align 8
  %26 = getelementptr inbounds i8, ptr %2, i64 8
  %27 = load i32, ptr %26, align 8
  %28 = load i64, ptr %3, align 8
  %29 = getelementptr inbounds i8, ptr %3, i64 8
  %30 = load i32, ptr %29, align 8
  %31 = call noundef i32 @cudaLaunchKernel(ptr noundef nonnull @_Z31__device_stub__flash_fwd_kernelI23Flash_fwd_kernel_traitsILi256ELi128ELi64ELi8ELb0ELb0EN7cutlass10bfloat16_tE19Flash_kernel_traitsILi256ELi128ELi64ELi8ES2_EELb0ELb1ELb0ELb0ELb0ELb1ELb1ELb0EEv16Flash_fwd_params, i64 %25, i32 %27, i64 %28, i32 %30, ptr noundef nonnull %6, i64 noundef %23, ptr noundef %24)
  call void @llvm.lifetime.end.p0(i64 464, ptr nonnull %7)
  call void @llvm.lifetime.end.p0(i64 12, ptr nonnull %2)
  call void @llvm.lifetime.end.p0(i64 12, ptr nonnull %3)
  call void @llvm.lifetime.end.p0(i64 8, ptr nonnull %4)
  call void @llvm.lifetime.end.p0(i64 8, ptr nonnull %5)
  call void @llvm.lifetime.end.p0(i64 8, ptr nonnull %6)
  br label %32

32:                                               ; preds = %1, %19
  %33 = call i32 @cudaGetLastError()
  call void @_ZN3c104cuda29c10_cuda_check_implementationEiPKcS2_ib(i32 noundef %33, ptr noundef nonnull @.str, ptr noundef nonnull @__func__._ZZZZZZZZZZZZZ13run_flash_fwdI23Flash_fwd_kernel_traitsILi256ELi128ELi64ELi8ELb0ELb0EN7cutlass10bfloat16_tE19Flash_kernel_traitsILi256ELi128ELi64ELi8ES2_EELb1ELb1EEvR16Flash_fwd_paramsP11CUstream_stENKUlvE_clEvENKUlvE_clEvENKUlvE_clEvENKUlvE_clEvENKUlvE_clEvENKUlvE_clEvENKUlvE_clEvENKUlvE_clEvENKUlvE_clEvENKUlvE_clEvENKUlvE_clEvENKUlvE_clEv, i32 noundef 89, i1 noundef zeroext true)
  ret void
}

; Function Attrs: inlinehint mustprogress uwtable
define linkonce_odr dso_local void @_ZZZZZZZZZZZZZ13run_flash_fwdI23Flash_fwd_kernel_traitsILi256ELi128ELi64ELi8ELb0ELb0EN7cutlass10bfloat16_tE19Flash_kernel_traitsILi256ELi128ELi64ELi8ES2_EELb1ELb1EEvR16Flash_fwd_paramsP11CUstream_stENKUlvE_clEvENKUlvE_clEvENKUlvE_clEvENKUlvE_clEvENKUlvE_clEvENKUlvE0_clEvENKUlvE_clEvENKUlvE0_clEvENKUlvE_clEvENKUlvE0_clEvENKUlvE_clEvENKUlvE0_clEv(ptr noundef nonnull align 8 dereferenceable(24) %0) local_unnamed_addr #7 comdat align 2 {
  %2 = alloca %struct.dim3, align 8
  %3 = alloca %struct.dim3, align 8
  %4 = alloca i64, align 8
  %5 = alloca ptr, align 8
  %6 = alloca ptr, align 16
  %7 = alloca %struct.Flash_fwd_params, align 8
  %8 = alloca %struct.Flash_fwd_params, align 8
  %9 = tail call noundef i32 @cudaFuncSetAttribute(ptr noundef nonnull @_Z31__device_stub__flash_fwd_kernelI23Flash_fwd_kernel_traitsILi256ELi128ELi64ELi8ELb0ELb0EN7cutlass10bfloat16_tE19Flash_kernel_traitsILi256ELi128ELi64ELi8ES2_EELb1ELb1ELb0ELb0ELb0ELb1ELb0ELb0EEv16Flash_fwd_params, i32 noundef 8, i32 noundef 131072)
  tail call void @_ZN3c104cuda29c10_cuda_check_implementationEiPKcS2_ib(i32 noundef %9, ptr noundef nonnull @.str, ptr noundef nonnull @__func__._ZZZZZZZZZZZZZ13run_flash_fwdI23Flash_fwd_kernel_traitsILi256ELi128ELi64ELi8ELb0ELb0EN7cutlass10bfloat16_tE19Flash_kernel_traitsILi256ELi128ELi64ELi8ES2_EELb1ELb1EEvR16Flash_fwd_paramsP11CUstream_stENKUlvE_clEvENKUlvE_clEvENKUlvE_clEvENKUlvE_clEvENKUlvE_clEvENKUlvE_clEvENKUlvE_clEvENKUlvE_clEvENKUlvE_clEvENKUlvE_clEvENKUlvE_clEvENKUlvE_clEv, i32 noundef 82, i1 noundef zeroext true)
  %10 = load ptr, ptr %0, align 8, !tbaa !70
  %11 = load i64, ptr %10, align 4, !tbaa.struct !42
  %12 = getelementptr inbounds i8, ptr %10, i64 8
  %13 = load i32, ptr %12, align 4, !tbaa.struct !43
  %14 = getelementptr inbounds %class.anon.52, ptr %0, i64 0, i32 1
  %15 = load ptr, ptr %14, align 8, !tbaa !72
  %16 = load ptr, ptr %15, align 8, !tbaa !18
  %17 = tail call i32 @__cudaPushCallConfiguration(i64 %11, i32 %13, i64 4294967552, i32 1, i64 noundef 131072, ptr noundef %16)
  %18 = icmp eq i32 %17, 0
  br i1 %18, label %19, label %32

19:                                               ; preds = %1
  %20 = getelementptr inbounds %class.anon.52, ptr %0, i64 0, i32 2
  %21 = load ptr, ptr %20, align 8, !tbaa !73
  call void @llvm.memcpy.p0.p0.i64(ptr noundef nonnull align 8 dereferenceable(464) %8, ptr noundef nonnull align 8 dereferenceable(464) %21, i64 464, i1 false)
  call void @llvm.lifetime.start.p0(i64 464, ptr nonnull %7)
  call void @llvm.lifetime.start.p0(i64 12, ptr nonnull %2)
  call void @llvm.lifetime.start.p0(i64 12, ptr nonnull %3)
  call void @llvm.lifetime.start.p0(i64 8, ptr nonnull %4)
  call void @llvm.lifetime.start.p0(i64 8, ptr nonnull %5)
  call void @llvm.lifetime.start.p0(i64 8, ptr nonnull %6)
  call void @llvm.memcpy.p0.p0.i64(ptr noundef nonnull align 8 dereferenceable(464) %7, ptr noundef nonnull align 8 dereferenceable(464) %8, i64 464, i1 false)
  store ptr %7, ptr %6, align 16
  %22 = call i32 @__cudaPopCallConfiguration(ptr nonnull %2, ptr nonnull %3, ptr nonnull %4, ptr nonnull %5)
  %23 = load i64, ptr %4, align 8
  %24 = load ptr, ptr %5, align 8
  %25 = load i64, ptr %2, align 8
  %26 = getelementptr inbounds i8, ptr %2, i64 8
  %27 = load i32, ptr %26, align 8
  %28 = load i64, ptr %3, align 8
  %29 = getelementptr inbounds i8, ptr %3, i64 8
  %30 = load i32, ptr %29, align 8
  %31 = call noundef i32 @cudaLaunchKernel(ptr noundef nonnull @_Z31__device_stub__flash_fwd_kernelI23Flash_fwd_kernel_traitsILi256ELi128ELi64ELi8ELb0ELb0EN7cutlass10bfloat16_tE19Flash_kernel_traitsILi256ELi128ELi64ELi8ES2_EELb1ELb1ELb0ELb0ELb0ELb1ELb0ELb0EEv16Flash_fwd_params, i64 %25, i32 %27, i64 %28, i32 %30, ptr noundef nonnull %6, i64 noundef %23, ptr noundef %24)
  call void @llvm.lifetime.end.p0(i64 464, ptr nonnull %7)
  call void @llvm.lifetime.end.p0(i64 12, ptr nonnull %2)
  call void @llvm.lifetime.end.p0(i64 12, ptr nonnull %3)
  call void @llvm.lifetime.end.p0(i64 8, ptr nonnull %4)
  call void @llvm.lifetime.end.p0(i64 8, ptr nonnull %5)
  call void @llvm.lifetime.end.p0(i64 8, ptr nonnull %6)
  br label %32

32:                                               ; preds = %1, %19
  %33 = call i32 @cudaGetLastError()
  call void @_ZN3c104cuda29c10_cuda_check_implementationEiPKcS2_ib(i32 noundef %33, ptr noundef nonnull @.str, ptr noundef nonnull @__func__._ZZZZZZZZZZZZZ13run_flash_fwdI23Flash_fwd_kernel_traitsILi256ELi128ELi64ELi8ELb0ELb0EN7cutlass10bfloat16_tE19Flash_kernel_traitsILi256ELi128ELi64ELi8ES2_EELb1ELb1EEvR16Flash_fwd_paramsP11CUstream_stENKUlvE_clEvENKUlvE_clEvENKUlvE_clEvENKUlvE_clEvENKUlvE_clEvENKUlvE_clEvENKUlvE_clEvENKUlvE_clEvENKUlvE_clEvENKUlvE_clEvENKUlvE_clEvENKUlvE_clEv, i32 noundef 89, i1 noundef zeroext true)
  ret void
}

; Function Attrs: mustprogress norecurse uwtable
define linkonce_odr dso_local void @_Z31__device_stub__flash_fwd_kernelI23Flash_fwd_kernel_traitsILi256ELi128ELi64ELi8ELb0ELb0EN7cutlass10bfloat16_tE19Flash_kernel_traitsILi256ELi128ELi64ELi8ES2_EELb0ELb1ELb0ELb1ELb0ELb0ELb1ELb0EEv16Flash_fwd_params(ptr noundef byval(%struct.Flash_fwd_params) align 8 %0) #5 comdat {
  %2 = alloca %struct.dim3, align 8
  %3 = alloca %struct.dim3, align 8
  %4 = alloca i64, align 8
  %5 = alloca ptr, align 8
  %6 = alloca ptr, align 16
  store ptr %0, ptr %6, align 16
  %7 = call i32 @__cudaPopCallConfiguration(ptr nonnull %2, ptr nonnull %3, ptr nonnull %4, ptr nonnull %5)
  %8 = load i64, ptr %4, align 8
  %9 = load ptr, ptr %5, align 8
  %10 = load i64, ptr %2, align 8
  %11 = getelementptr inbounds i8, ptr %2, i64 8
  %12 = load i32, ptr %11, align 8
  %13 = load i64, ptr %3, align 8
  %14 = getelementptr inbounds i8, ptr %3, i64 8
  %15 = load i32, ptr %14, align 8
  %16 = call noundef i32 @cudaLaunchKernel(ptr noundef nonnull @_Z31__device_stub__flash_fwd_kernelI23Flash_fwd_kernel_traitsILi256ELi128ELi64ELi8ELb0ELb0EN7cutlass10bfloat16_tE19Flash_kernel_traitsILi256ELi128ELi64ELi8ES2_EELb0ELb1ELb0ELb1ELb0ELb0ELb1ELb0EEv16Flash_fwd_params, i64 %10, i32 %12, i64 %13, i32 %15, ptr noundef nonnull %6, i64 noundef %8, ptr noundef %9)
  ret void
}

; Function Attrs: mustprogress norecurse uwtable
define linkonce_odr dso_local void @_Z31__device_stub__flash_fwd_kernelI23Flash_fwd_kernel_traitsILi256ELi128ELi64ELi8ELb0ELb0EN7cutlass10bfloat16_tE19Flash_kernel_traitsILi256ELi128ELi64ELi8ES2_EELb1ELb1ELb0ELb1ELb0ELb0ELb0ELb1EEv16Flash_fwd_params(ptr noundef byval(%struct.Flash_fwd_params) align 8 %0) #5 comdat {
  %2 = alloca %struct.dim3, align 8
  %3 = alloca %struct.dim3, align 8
  %4 = alloca i64, align 8
  %5 = alloca ptr, align 8
  %6 = alloca ptr, align 16
  store ptr %0, ptr %6, align 16
  %7 = call i32 @__cudaPopCallConfiguration(ptr nonnull %2, ptr nonnull %3, ptr nonnull %4, ptr nonnull %5)
  %8 = load i64, ptr %4, align 8
  %9 = load ptr, ptr %5, align 8
  %10 = load i64, ptr %2, align 8
  %11 = getelementptr inbounds i8, ptr %2, i64 8
  %12 = load i32, ptr %11, align 8
  %13 = load i64, ptr %3, align 8
  %14 = getelementptr inbounds i8, ptr %3, i64 8
  %15 = load i32, ptr %14, align 8
  %16 = call noundef i32 @cudaLaunchKernel(ptr noundef nonnull @_Z31__device_stub__flash_fwd_kernelI23Flash_fwd_kernel_traitsILi256ELi128ELi64ELi8ELb0ELb0EN7cutlass10bfloat16_tE19Flash_kernel_traitsILi256ELi128ELi64ELi8ES2_EELb1ELb1ELb0ELb1ELb0ELb0ELb0ELb1EEv16Flash_fwd_params, i64 %10, i32 %12, i64 %13, i32 %15, ptr noundef nonnull %6, i64 noundef %8, ptr noundef %9)
  ret void
}

; Function Attrs: mustprogress norecurse uwtable
define linkonce_odr dso_local void @_Z31__device_stub__flash_fwd_kernelI23Flash_fwd_kernel_traitsILi256ELi128ELi64ELi8ELb0ELb0EN7cutlass10bfloat16_tE19Flash_kernel_traitsILi256ELi128ELi64ELi8ES2_EELb0ELb1ELb0ELb0ELb0ELb0ELb1ELb0EEv16Flash_fwd_params(ptr noundef byval(%struct.Flash_fwd_params) align 8 %0) #5 comdat {
  %2 = alloca %struct.dim3, align 8
  %3 = alloca %struct.dim3, align 8
  %4 = alloca i64, align 8
  %5 = alloca ptr, align 8
  %6 = alloca ptr, align 16
  store ptr %0, ptr %6, align 16
  %7 = call i32 @__cudaPopCallConfiguration(ptr nonnull %2, ptr nonnull %3, ptr nonnull %4, ptr nonnull %5)
  %8 = load i64, ptr %4, align 8
  %9 = load ptr, ptr %5, align 8
  %10 = load i64, ptr %2, align 8
  %11 = getelementptr inbounds i8, ptr %2, i64 8
  %12 = load i32, ptr %11, align 8
  %13 = load i64, ptr %3, align 8
  %14 = getelementptr inbounds i8, ptr %3, i64 8
  %15 = load i32, ptr %14, align 8
  %16 = call noundef i32 @cudaLaunchKernel(ptr noundef nonnull @_Z31__device_stub__flash_fwd_kernelI23Flash_fwd_kernel_traitsILi256ELi128ELi64ELi8ELb0ELb0EN7cutlass10bfloat16_tE19Flash_kernel_traitsILi256ELi128ELi64ELi8ES2_EELb0ELb1ELb0ELb0ELb0ELb0ELb1ELb0EEv16Flash_fwd_params, i64 %10, i32 %12, i64 %13, i32 %15, ptr noundef nonnull %6, i64 noundef %8, ptr noundef %9)
  ret void
}

; Function Attrs: mustprogress norecurse uwtable
define linkonce_odr dso_local void @_Z31__device_stub__flash_fwd_kernelI23Flash_fwd_kernel_traitsILi256ELi128ELi64ELi8ELb0ELb0EN7cutlass10bfloat16_tE19Flash_kernel_traitsILi256ELi128ELi64ELi8ES2_EELb1ELb1ELb0ELb0ELb0ELb0ELb0ELb1EEv16Flash_fwd_params(ptr noundef byval(%struct.Flash_fwd_params) align 8 %0) #5 comdat {
  %2 = alloca %struct.dim3, align 8
  %3 = alloca %struct.dim3, align 8
  %4 = alloca i64, align 8
  %5 = alloca ptr, align 8
  %6 = alloca ptr, align 16
  store ptr %0, ptr %6, align 16
  %7 = call i32 @__cudaPopCallConfiguration(ptr nonnull %2, ptr nonnull %3, ptr nonnull %4, ptr nonnull %5)
  %8 = load i64, ptr %4, align 8
  %9 = load ptr, ptr %5, align 8
  %10 = load i64, ptr %2, align 8
  %11 = getelementptr inbounds i8, ptr %2, i64 8
  %12 = load i32, ptr %11, align 8
  %13 = load i64, ptr %3, align 8
  %14 = getelementptr inbounds i8, ptr %3, i64 8
  %15 = load i32, ptr %14, align 8
  %16 = call noundef i32 @cudaLaunchKernel(ptr noundef nonnull @_Z31__device_stub__flash_fwd_kernelI23Flash_fwd_kernel_traitsILi256ELi128ELi64ELi8ELb0ELb0EN7cutlass10bfloat16_tE19Flash_kernel_traitsILi256ELi128ELi64ELi8ES2_EELb1ELb1ELb0ELb0ELb0ELb0ELb0ELb1EEv16Flash_fwd_params, i64 %10, i32 %12, i64 %13, i32 %15, ptr noundef nonnull %6, i64 noundef %8, ptr noundef %9)
  ret void
}

; Function Attrs: mustprogress norecurse uwtable
define linkonce_odr dso_local void @_Z31__device_stub__flash_fwd_kernelI23Flash_fwd_kernel_traitsILi256ELi128ELi64ELi8ELb0ELb0EN7cutlass10bfloat16_tE19Flash_kernel_traitsILi256ELi128ELi64ELi8ES2_EELb1ELb1ELb0ELb1ELb0ELb0ELb0ELb0EEv16Flash_fwd_params(ptr noundef byval(%struct.Flash_fwd_params) align 8 %0) #5 comdat {
  %2 = alloca %struct.dim3, align 8
  %3 = alloca %struct.dim3, align 8
  %4 = alloca i64, align 8
  %5 = alloca ptr, align 8
  %6 = alloca ptr, align 16
  store ptr %0, ptr %6, align 16
  %7 = call i32 @__cudaPopCallConfiguration(ptr nonnull %2, ptr nonnull %3, ptr nonnull %4, ptr nonnull %5)
  %8 = load i64, ptr %4, align 8
  %9 = load ptr, ptr %5, align 8
  %10 = load i64, ptr %2, align 8
  %11 = getelementptr inbounds i8, ptr %2, i64 8
  %12 = load i32, ptr %11, align 8
  %13 = load i64, ptr %3, align 8
  %14 = getelementptr inbounds i8, ptr %3, i64 8
  %15 = load i32, ptr %14, align 8
  %16 = call noundef i32 @cudaLaunchKernel(ptr noundef nonnull @_Z31__device_stub__flash_fwd_kernelI23Flash_fwd_kernel_traitsILi256ELi128ELi64ELi8ELb0ELb0EN7cutlass10bfloat16_tE19Flash_kernel_traitsILi256ELi128ELi64ELi8ES2_EELb1ELb1ELb0ELb1ELb0ELb0ELb0ELb0EEv16Flash_fwd_params, i64 %10, i32 %12, i64 %13, i32 %15, ptr noundef nonnull %6, i64 noundef %8, ptr noundef %9)
  ret void
}

; Function Attrs: mustprogress norecurse uwtable
define linkonce_odr dso_local void @_Z31__device_stub__flash_fwd_kernelI23Flash_fwd_kernel_traitsILi256ELi128ELi64ELi8ELb0ELb0EN7cutlass10bfloat16_tE19Flash_kernel_traitsILi256ELi128ELi64ELi8ES2_EELb1ELb1ELb0ELb0ELb0ELb0ELb0ELb0EEv16Flash_fwd_params(ptr noundef byval(%struct.Flash_fwd_params) align 8 %0) #5 comdat {
  %2 = alloca %struct.dim3, align 8
  %3 = alloca %struct.dim3, align 8
  %4 = alloca i64, align 8
  %5 = alloca ptr, align 8
  %6 = alloca ptr, align 16
  store ptr %0, ptr %6, align 16
  %7 = call i32 @__cudaPopCallConfiguration(ptr nonnull %2, ptr nonnull %3, ptr nonnull %4, ptr nonnull %5)
  %8 = load i64, ptr %4, align 8
  %9 = load ptr, ptr %5, align 8
  %10 = load i64, ptr %2, align 8
  %11 = getelementptr inbounds i8, ptr %2, i64 8
  %12 = load i32, ptr %11, align 8
  %13 = load i64, ptr %3, align 8
  %14 = getelementptr inbounds i8, ptr %3, i64 8
  %15 = load i32, ptr %14, align 8
  %16 = call noundef i32 @cudaLaunchKernel(ptr noundef nonnull @_Z31__device_stub__flash_fwd_kernelI23Flash_fwd_kernel_traitsILi256ELi128ELi64ELi8ELb0ELb0EN7cutlass10bfloat16_tE19Flash_kernel_traitsILi256ELi128ELi64ELi8ES2_EELb1ELb1ELb0ELb0ELb0ELb0ELb0ELb0EEv16Flash_fwd_params, i64 %10, i32 %12, i64 %13, i32 %15, ptr noundef nonnull %6, i64 noundef %8, ptr noundef %9)
  ret void
}

; Function Attrs: inlinehint mustprogress uwtable
define linkonce_odr dso_local void @_ZZZZZZZZ13run_flash_fwdI23Flash_fwd_kernel_traitsILi256ELi128ELi64ELi8ELb0ELb0EN7cutlass10bfloat16_tE19Flash_kernel_traitsILi256ELi128ELi64ELi8ES2_EELb1ELb1EEvR16Flash_fwd_paramsP11CUstream_stENKUlvE_clEvENKUlvE_clEvENKUlvE_clEvENKUlvE0_clEvENKUlvE_clEvENKUlvE0_clEvENKUlvE_clEv(ptr noundef nonnull align 8 dereferenceable(32) %0) local_unnamed_addr #7 comdat align 2 {
  %2 = alloca %class.anon.96, align 8
  %3 = alloca %class.anon.97, align 8
  %4 = alloca %class.anon.93, align 8
  %5 = alloca %class.anon.94, align 8
  %6 = alloca %class.anon.87, align 8
  %7 = alloca %class.anon.88, align 8
  %8 = alloca %class.anon.84, align 8
  %9 = alloca %class.anon.85, align 8
  %10 = load ptr, ptr %0, align 8, !tbaa !74
  %11 = load i8, ptr %10, align 1, !tbaa !30, !range !33, !noundef !34
  %12 = icmp eq i8 %11, 0
  %13 = getelementptr inbounds %class.anon.77, ptr %0, i64 0, i32 1
  %14 = load ptr, ptr %13, align 8, !tbaa !76
  %15 = getelementptr inbounds %class.anon.77, ptr %0, i64 0, i32 2
  %16 = load ptr, ptr %15, align 8, !tbaa !77
  %17 = getelementptr inbounds %class.anon.77, ptr %0, i64 0, i32 3
  %18 = load ptr, ptr %17, align 8, !tbaa !78
  %19 = getelementptr inbounds %struct.Flash_fwd_params, ptr %14, i64 0, i32 55
  %20 = load ptr, ptr %19, align 8, !tbaa !38
  %21 = icmp eq ptr %20, null
  %22 = getelementptr inbounds %struct.Flash_fwd_params, ptr %14, i64 0, i32 47
  %23 = load float, ptr %22, align 4, !tbaa !39
  %24 = fcmp ogt float %23, 0.000000e+00
  br i1 %12, label %40, label %25

25:                                               ; preds = %1
  br i1 %21, label %33, label %26

26:                                               ; preds = %25
  br i1 %24, label %27, label %30

27:                                               ; preds = %26
  call void @llvm.lifetime.start.p0(i64 24, ptr nonnull %8) #9
  store ptr %16, ptr %8, align 8, !tbaa !18
  %28 = getelementptr inbounds %class.anon.84, ptr %8, i64 0, i32 1
  store ptr %18, ptr %28, align 8, !tbaa !18
  %29 = getelementptr inbounds %class.anon.84, ptr %8, i64 0, i32 2
  store ptr %14, ptr %29, align 8, !tbaa !18
  call void @_ZZZZZZZZZZZZZ13run_flash_fwdI23Flash_fwd_kernel_traitsILi256ELi128ELi64ELi8ELb0ELb0EN7cutlass10bfloat16_tE19Flash_kernel_traitsILi256ELi128ELi64ELi8ES2_EELb1ELb1EEvR16Flash_fwd_paramsP11CUstream_stENKUlvE_clEvENKUlvE_clEvENKUlvE_clEvENKUlvE0_clEvENKUlvE_clEvENKUlvE0_clEvENKUlvE_clEvENKUlvE_clEvENKUlvE_clEvENKUlvE_clEvENKUlvE_clEvENKUlvE_clEv(ptr noundef nonnull align 8 dereferenceable(24) %8)
  call void @llvm.lifetime.end.p0(i64 24, ptr nonnull %8) #9
  br label %55

30:                                               ; preds = %26
  call void @llvm.lifetime.start.p0(i64 24, ptr nonnull %9) #9
  store ptr %16, ptr %9, align 8, !tbaa !18
  %31 = getelementptr inbounds %class.anon.85, ptr %9, i64 0, i32 1
  store ptr %18, ptr %31, align 8, !tbaa !18
  %32 = getelementptr inbounds %class.anon.85, ptr %9, i64 0, i32 2
  store ptr %14, ptr %32, align 8, !tbaa !18
  call void @_ZZZZZZZZZZZZZ13run_flash_fwdI23Flash_fwd_kernel_traitsILi256ELi128ELi64ELi8ELb0ELb0EN7cutlass10bfloat16_tE19Flash_kernel_traitsILi256ELi128ELi64ELi8ES2_EELb1ELb1EEvR16Flash_fwd_paramsP11CUstream_stENKUlvE_clEvENKUlvE_clEvENKUlvE_clEvENKUlvE0_clEvENKUlvE_clEvENKUlvE0_clEvENKUlvE_clEvENKUlvE_clEvENKUlvE_clEvENKUlvE_clEvENKUlvE_clEvENKUlvE0_clEv(ptr noundef nonnull align 8 dereferenceable(24) %9)
  call void @llvm.lifetime.end.p0(i64 24, ptr nonnull %9) #9
  br label %55

33:                                               ; preds = %25
  br i1 %24, label %34, label %37

34:                                               ; preds = %33
  call void @llvm.lifetime.start.p0(i64 24, ptr nonnull %6) #9
  store ptr %16, ptr %6, align 8, !tbaa !18
  %35 = getelementptr inbounds %class.anon.87, ptr %6, i64 0, i32 1
  store ptr %18, ptr %35, align 8, !tbaa !18
  %36 = getelementptr inbounds %class.anon.87, ptr %6, i64 0, i32 2
  store ptr %14, ptr %36, align 8, !tbaa !18
  call void @_ZZZZZZZZZZZZZ13run_flash_fwdI23Flash_fwd_kernel_traitsILi256ELi128ELi64ELi8ELb0ELb0EN7cutlass10bfloat16_tE19Flash_kernel_traitsILi256ELi128ELi64ELi8ES2_EELb1ELb1EEvR16Flash_fwd_paramsP11CUstream_stENKUlvE_clEvENKUlvE_clEvENKUlvE_clEvENKUlvE0_clEvENKUlvE_clEvENKUlvE0_clEvENKUlvE_clEvENKUlvE_clEvENKUlvE_clEvENKUlvE0_clEvENKUlvE_clEvENKUlvE_clEv(ptr noundef nonnull align 8 dereferenceable(24) %6)
  call void @llvm.lifetime.end.p0(i64 24, ptr nonnull %6) #9
  br label %55

37:                                               ; preds = %33
  call void @llvm.lifetime.start.p0(i64 24, ptr nonnull %7) #9
  store ptr %16, ptr %7, align 8, !tbaa !18
  %38 = getelementptr inbounds %class.anon.88, ptr %7, i64 0, i32 1
  store ptr %18, ptr %38, align 8, !tbaa !18
  %39 = getelementptr inbounds %class.anon.88, ptr %7, i64 0, i32 2
  store ptr %14, ptr %39, align 8, !tbaa !18
  call void @_ZZZZZZZZZZZZZ13run_flash_fwdI23Flash_fwd_kernel_traitsILi256ELi128ELi64ELi8ELb0ELb0EN7cutlass10bfloat16_tE19Flash_kernel_traitsILi256ELi128ELi64ELi8ES2_EELb1ELb1EEvR16Flash_fwd_paramsP11CUstream_stENKUlvE_clEvENKUlvE_clEvENKUlvE_clEvENKUlvE0_clEvENKUlvE_clEvENKUlvE0_clEvENKUlvE_clEvENKUlvE_clEvENKUlvE_clEvENKUlvE0_clEvENKUlvE_clEvENKUlvE0_clEv(ptr noundef nonnull align 8 dereferenceable(24) %7)
  call void @llvm.lifetime.end.p0(i64 24, ptr nonnull %7) #9
  br label %55

40:                                               ; preds = %1
  br i1 %21, label %48, label %41

41:                                               ; preds = %40
  br i1 %24, label %42, label %45

42:                                               ; preds = %41
  call void @llvm.lifetime.start.p0(i64 24, ptr nonnull %4) #9
  store ptr %16, ptr %4, align 8, !tbaa !18
  %43 = getelementptr inbounds %class.anon.93, ptr %4, i64 0, i32 1
  store ptr %18, ptr %43, align 8, !tbaa !18
  %44 = getelementptr inbounds %class.anon.93, ptr %4, i64 0, i32 2
  store ptr %14, ptr %44, align 8, !tbaa !18
  call void @_ZZZZZZZZZZZZZ13run_flash_fwdI23Flash_fwd_kernel_traitsILi256ELi128ELi64ELi8ELb0ELb0EN7cutlass10bfloat16_tE19Flash_kernel_traitsILi256ELi128ELi64ELi8ES2_EELb1ELb1EEvR16Flash_fwd_paramsP11CUstream_stENKUlvE_clEvENKUlvE_clEvENKUlvE_clEvENKUlvE0_clEvENKUlvE_clEvENKUlvE0_clEvENKUlvE_clEvENKUlvE0_clEvENKUlvE_clEvENKUlvE_clEvENKUlvE_clEvENKUlvE_clEv(ptr noundef nonnull align 8 dereferenceable(24) %4)
  call void @llvm.lifetime.end.p0(i64 24, ptr nonnull %4) #9
  br label %55

45:                                               ; preds = %41
  call void @llvm.lifetime.start.p0(i64 24, ptr nonnull %5) #9
  store ptr %16, ptr %5, align 8, !tbaa !18
  %46 = getelementptr inbounds %class.anon.94, ptr %5, i64 0, i32 1
  store ptr %18, ptr %46, align 8, !tbaa !18
  %47 = getelementptr inbounds %class.anon.94, ptr %5, i64 0, i32 2
  store ptr %14, ptr %47, align 8, !tbaa !18
  call void @_ZZZZZZZZZZZZZ13run_flash_fwdI23Flash_fwd_kernel_traitsILi256ELi128ELi64ELi8ELb0ELb0EN7cutlass10bfloat16_tE19Flash_kernel_traitsILi256ELi128ELi64ELi8ES2_EELb1ELb1EEvR16Flash_fwd_paramsP11CUstream_stENKUlvE_clEvENKUlvE_clEvENKUlvE_clEvENKUlvE0_clEvENKUlvE_clEvENKUlvE0_clEvENKUlvE_clEvENKUlvE0_clEvENKUlvE_clEvENKUlvE_clEvENKUlvE_clEvENKUlvE0_clEv(ptr noundef nonnull align 8 dereferenceable(24) %5)
  call void @llvm.lifetime.end.p0(i64 24, ptr nonnull %5) #9
  br label %55

48:                                               ; preds = %40
  br i1 %24, label %49, label %52

49:                                               ; preds = %48
  call void @llvm.lifetime.start.p0(i64 24, ptr nonnull %2) #9
  store ptr %16, ptr %2, align 8, !tbaa !18
  %50 = getelementptr inbounds %class.anon.96, ptr %2, i64 0, i32 1
  store ptr %18, ptr %50, align 8, !tbaa !18
  %51 = getelementptr inbounds %class.anon.96, ptr %2, i64 0, i32 2
  store ptr %14, ptr %51, align 8, !tbaa !18
  call void @_ZZZZZZZZZZZZZ13run_flash_fwdI23Flash_fwd_kernel_traitsILi256ELi128ELi64ELi8ELb0ELb0EN7cutlass10bfloat16_tE19Flash_kernel_traitsILi256ELi128ELi64ELi8ES2_EELb1ELb1EEvR16Flash_fwd_paramsP11CUstream_stENKUlvE_clEvENKUlvE_clEvENKUlvE_clEvENKUlvE0_clEvENKUlvE_clEvENKUlvE0_clEvENKUlvE_clEvENKUlvE0_clEvENKUlvE_clEvENKUlvE0_clEvENKUlvE_clEvENKUlvE_clEv(ptr noundef nonnull align 8 dereferenceable(24) %2)
  call void @llvm.lifetime.end.p0(i64 24, ptr nonnull %2) #9
  br label %55

52:                                               ; preds = %48
  call void @llvm.lifetime.start.p0(i64 24, ptr nonnull %3) #9
  store ptr %16, ptr %3, align 8, !tbaa !18
  %53 = getelementptr inbounds %class.anon.97, ptr %3, i64 0, i32 1
  store ptr %18, ptr %53, align 8, !tbaa !18
  %54 = getelementptr inbounds %class.anon.97, ptr %3, i64 0, i32 2
  store ptr %14, ptr %54, align 8, !tbaa !18
  call void @_ZZZZZZZZZZZZZ13run_flash_fwdI23Flash_fwd_kernel_traitsILi256ELi128ELi64ELi8ELb0ELb0EN7cutlass10bfloat16_tE19Flash_kernel_traitsILi256ELi128ELi64ELi8ES2_EELb1ELb1EEvR16Flash_fwd_paramsP11CUstream_stENKUlvE_clEvENKUlvE_clEvENKUlvE_clEvENKUlvE0_clEvENKUlvE_clEvENKUlvE0_clEvENKUlvE_clEvENKUlvE0_clEvENKUlvE_clEvENKUlvE0_clEvENKUlvE_clEvENKUlvE0_clEv(ptr noundef nonnull align 8 dereferenceable(24) %3)
  call void @llvm.lifetime.end.p0(i64 24, ptr nonnull %3) #9
  br label %55

55:                                               ; preds = %52, %49, %45, %42, %37, %34, %30, %27
  ret void
}

; Function Attrs: inlinehint mustprogress uwtable
define linkonce_odr dso_local void @_ZZZZZZZZZZZZZ13run_flash_fwdI23Flash_fwd_kernel_traitsILi256ELi128ELi64ELi8ELb0ELb0EN7cutlass10bfloat16_tE19Flash_kernel_traitsILi256ELi128ELi64ELi8ES2_EELb1ELb1EEvR16Flash_fwd_paramsP11CUstream_stENKUlvE_clEvENKUlvE_clEvENKUlvE_clEvENKUlvE0_clEvENKUlvE_clEvENKUlvE0_clEvENKUlvE_clEvENKUlvE_clEvENKUlvE_clEvENKUlvE_clEvENKUlvE_clEvENKUlvE_clEv(ptr noundef nonnull align 8 dereferenceable(24) %0) local_unnamed_addr #7 comdat align 2 {
  %2 = alloca %struct.dim3, align 8
  %3 = alloca %struct.dim3, align 8
  %4 = alloca i64, align 8
  %5 = alloca ptr, align 8
  %6 = alloca ptr, align 16
  %7 = alloca %struct.Flash_fwd_params, align 8
  %8 = alloca %struct.Flash_fwd_params, align 8
  %9 = tail call noundef i32 @cudaFuncSetAttribute(ptr noundef nonnull @_Z31__device_stub__flash_fwd_kernelI23Flash_fwd_kernel_traitsILi256ELi128ELi64ELi8ELb0ELb0EN7cutlass10bfloat16_tE19Flash_kernel_traitsILi256ELi128ELi64ELi8ES2_EELb0ELb1ELb0ELb1ELb0ELb0ELb1ELb0EEv16Flash_fwd_params, i32 noundef 8, i32 noundef 131072)
  tail call void @_ZN3c104cuda29c10_cuda_check_implementationEiPKcS2_ib(i32 noundef %9, ptr noundef nonnull @.str, ptr noundef nonnull @__func__._ZZZZZZZZZZZZZ13run_flash_fwdI23Flash_fwd_kernel_traitsILi256ELi128ELi64ELi8ELb0ELb0EN7cutlass10bfloat16_tE19Flash_kernel_traitsILi256ELi128ELi64ELi8ES2_EELb1ELb1EEvR16Flash_fwd_paramsP11CUstream_stENKUlvE_clEvENKUlvE_clEvENKUlvE_clEvENKUlvE_clEvENKUlvE_clEvENKUlvE_clEvENKUlvE_clEvENKUlvE_clEvENKUlvE_clEvENKUlvE_clEvENKUlvE_clEvENKUlvE_clEv, i32 noundef 82, i1 noundef zeroext true)
  %10 = load ptr, ptr %0, align 8, !tbaa !79
  %11 = load i64, ptr %10, align 4, !tbaa.struct !42
  %12 = getelementptr inbounds i8, ptr %10, i64 8
  %13 = load i32, ptr %12, align 4, !tbaa.struct !43
  %14 = getelementptr inbounds %class.anon.84, ptr %0, i64 0, i32 1
  %15 = load ptr, ptr %14, align 8, !tbaa !81
  %16 = load ptr, ptr %15, align 8, !tbaa !18
  %17 = tail call i32 @__cudaPushCallConfiguration(i64 %11, i32 %13, i64 4294967552, i32 1, i64 noundef 131072, ptr noundef %16)
  %18 = icmp eq i32 %17, 0
  br i1 %18, label %19, label %32

19:                                               ; preds = %1
  %20 = getelementptr inbounds %class.anon.84, ptr %0, i64 0, i32 2
  %21 = load ptr, ptr %20, align 8, !tbaa !82
  call void @llvm.memcpy.p0.p0.i64(ptr noundef nonnull align 8 dereferenceable(464) %8, ptr noundef nonnull align 8 dereferenceable(464) %21, i64 464, i1 false)
  call void @llvm.lifetime.start.p0(i64 464, ptr nonnull %7)
  call void @llvm.lifetime.start.p0(i64 12, ptr nonnull %2)
  call void @llvm.lifetime.start.p0(i64 12, ptr nonnull %3)
  call void @llvm.lifetime.start.p0(i64 8, ptr nonnull %4)
  call void @llvm.lifetime.start.p0(i64 8, ptr nonnull %5)
  call void @llvm.lifetime.start.p0(i64 8, ptr nonnull %6)
  call void @llvm.memcpy.p0.p0.i64(ptr noundef nonnull align 8 dereferenceable(464) %7, ptr noundef nonnull align 8 dereferenceable(464) %8, i64 464, i1 false)
  store ptr %7, ptr %6, align 16
  %22 = call i32 @__cudaPopCallConfiguration(ptr nonnull %2, ptr nonnull %3, ptr nonnull %4, ptr nonnull %5)
  %23 = load i64, ptr %4, align 8
  %24 = load ptr, ptr %5, align 8
  %25 = load i64, ptr %2, align 8
  %26 = getelementptr inbounds i8, ptr %2, i64 8
  %27 = load i32, ptr %26, align 8
  %28 = load i64, ptr %3, align 8
  %29 = getelementptr inbounds i8, ptr %3, i64 8
  %30 = load i32, ptr %29, align 8
  %31 = call noundef i32 @cudaLaunchKernel(ptr noundef nonnull @_Z31__device_stub__flash_fwd_kernelI23Flash_fwd_kernel_traitsILi256ELi128ELi64ELi8ELb0ELb0EN7cutlass10bfloat16_tE19Flash_kernel_traitsILi256ELi128ELi64ELi8ES2_EELb0ELb1ELb0ELb1ELb0ELb0ELb1ELb0EEv16Flash_fwd_params, i64 %25, i32 %27, i64 %28, i32 %30, ptr noundef nonnull %6, i64 noundef %23, ptr noundef %24)
  call void @llvm.lifetime.end.p0(i64 464, ptr nonnull %7)
  call void @llvm.lifetime.end.p0(i64 12, ptr nonnull %2)
  call void @llvm.lifetime.end.p0(i64 12, ptr nonnull %3)
  call void @llvm.lifetime.end.p0(i64 8, ptr nonnull %4)
  call void @llvm.lifetime.end.p0(i64 8, ptr nonnull %5)
  call void @llvm.lifetime.end.p0(i64 8, ptr nonnull %6)
  br label %32

32:                                               ; preds = %1, %19
  %33 = call i32 @cudaGetLastError()
  call void @_ZN3c104cuda29c10_cuda_check_implementationEiPKcS2_ib(i32 noundef %33, ptr noundef nonnull @.str, ptr noundef nonnull @__func__._ZZZZZZZZZZZZZ13run_flash_fwdI23Flash_fwd_kernel_traitsILi256ELi128ELi64ELi8ELb0ELb0EN7cutlass10bfloat16_tE19Flash_kernel_traitsILi256ELi128ELi64ELi8ES2_EELb1ELb1EEvR16Flash_fwd_paramsP11CUstream_stENKUlvE_clEvENKUlvE_clEvENKUlvE_clEvENKUlvE_clEvENKUlvE_clEvENKUlvE_clEvENKUlvE_clEvENKUlvE_clEvENKUlvE_clEvENKUlvE_clEvENKUlvE_clEvENKUlvE_clEv, i32 noundef 89, i1 noundef zeroext true)
  ret void
}

; Function Attrs: inlinehint mustprogress uwtable
define linkonce_odr dso_local void @_ZZZZZZZZZZZZZ13run_flash_fwdI23Flash_fwd_kernel_traitsILi256ELi128ELi64ELi8ELb0ELb0EN7cutlass10bfloat16_tE19Flash_kernel_traitsILi256ELi128ELi64ELi8ES2_EELb1ELb1EEvR16Flash_fwd_paramsP11CUstream_stENKUlvE_clEvENKUlvE_clEvENKUlvE_clEvENKUlvE0_clEvENKUlvE_clEvENKUlvE0_clEvENKUlvE_clEvENKUlvE_clEvENKUlvE_clEvENKUlvE_clEvENKUlvE_clEvENKUlvE0_clEv(ptr noundef nonnull align 8 dereferenceable(24) %0) local_unnamed_addr #7 comdat align 2 {
  %2 = alloca %struct.dim3, align 8
  %3 = alloca %struct.dim3, align 8
  %4 = alloca i64, align 8
  %5 = alloca ptr, align 8
  %6 = alloca ptr, align 16
  %7 = alloca %struct.Flash_fwd_params, align 8
  %8 = alloca %struct.Flash_fwd_params, align 8
  %9 = tail call noundef i32 @cudaFuncSetAttribute(ptr noundef nonnull @_Z31__device_stub__flash_fwd_kernelI23Flash_fwd_kernel_traitsILi256ELi128ELi64ELi8ELb0ELb0EN7cutlass10bfloat16_tE19Flash_kernel_traitsILi256ELi128ELi64ELi8ES2_EELb1ELb1ELb0ELb1ELb0ELb0ELb0ELb1EEv16Flash_fwd_params, i32 noundef 8, i32 noundef 131072)
  tail call void @_ZN3c104cuda29c10_cuda_check_implementationEiPKcS2_ib(i32 noundef %9, ptr noundef nonnull @.str, ptr noundef nonnull @__func__._ZZZZZZZZZZZZZ13run_flash_fwdI23Flash_fwd_kernel_traitsILi256ELi128ELi64ELi8ELb0ELb0EN7cutlass10bfloat16_tE19Flash_kernel_traitsILi256ELi128ELi64ELi8ES2_EELb1ELb1EEvR16Flash_fwd_paramsP11CUstream_stENKUlvE_clEvENKUlvE_clEvENKUlvE_clEvENKUlvE_clEvENKUlvE_clEvENKUlvE_clEvENKUlvE_clEvENKUlvE_clEvENKUlvE_clEvENKUlvE_clEvENKUlvE_clEvENKUlvE_clEv, i32 noundef 82, i1 noundef zeroext true)
  %10 = load ptr, ptr %0, align 8, !tbaa !83
  %11 = load i64, ptr %10, align 4, !tbaa.struct !42
  %12 = getelementptr inbounds i8, ptr %10, i64 8
  %13 = load i32, ptr %12, align 4, !tbaa.struct !43
  %14 = getelementptr inbounds %class.anon.85, ptr %0, i64 0, i32 1
  %15 = load ptr, ptr %14, align 8, !tbaa !85
  %16 = load ptr, ptr %15, align 8, !tbaa !18
  %17 = tail call i32 @__cudaPushCallConfiguration(i64 %11, i32 %13, i64 4294967552, i32 1, i64 noundef 131072, ptr noundef %16)
  %18 = icmp eq i32 %17, 0
  br i1 %18, label %19, label %32

19:                                               ; preds = %1
  %20 = getelementptr inbounds %class.anon.85, ptr %0, i64 0, i32 2
  %21 = load ptr, ptr %20, align 8, !tbaa !86
  call void @llvm.memcpy.p0.p0.i64(ptr noundef nonnull align 8 dereferenceable(464) %8, ptr noundef nonnull align 8 dereferenceable(464) %21, i64 464, i1 false)
  call void @llvm.lifetime.start.p0(i64 464, ptr nonnull %7)
  call void @llvm.lifetime.start.p0(i64 12, ptr nonnull %2)
  call void @llvm.lifetime.start.p0(i64 12, ptr nonnull %3)
  call void @llvm.lifetime.start.p0(i64 8, ptr nonnull %4)
  call void @llvm.lifetime.start.p0(i64 8, ptr nonnull %5)
  call void @llvm.lifetime.start.p0(i64 8, ptr nonnull %6)
  call void @llvm.memcpy.p0.p0.i64(ptr noundef nonnull align 8 dereferenceable(464) %7, ptr noundef nonnull align 8 dereferenceable(464) %8, i64 464, i1 false)
  store ptr %7, ptr %6, align 16
  %22 = call i32 @__cudaPopCallConfiguration(ptr nonnull %2, ptr nonnull %3, ptr nonnull %4, ptr nonnull %5)
  %23 = load i64, ptr %4, align 8
  %24 = load ptr, ptr %5, align 8
  %25 = load i64, ptr %2, align 8
  %26 = getelementptr inbounds i8, ptr %2, i64 8
  %27 = load i32, ptr %26, align 8
  %28 = load i64, ptr %3, align 8
  %29 = getelementptr inbounds i8, ptr %3, i64 8
  %30 = load i32, ptr %29, align 8
  %31 = call noundef i32 @cudaLaunchKernel(ptr noundef nonnull @_Z31__device_stub__flash_fwd_kernelI23Flash_fwd_kernel_traitsILi256ELi128ELi64ELi8ELb0ELb0EN7cutlass10bfloat16_tE19Flash_kernel_traitsILi256ELi128ELi64ELi8ES2_EELb1ELb1ELb0ELb1ELb0ELb0ELb0ELb1EEv16Flash_fwd_params, i64 %25, i32 %27, i64 %28, i32 %30, ptr noundef nonnull %6, i64 noundef %23, ptr noundef %24)
  call void @llvm.lifetime.end.p0(i64 464, ptr nonnull %7)
  call void @llvm.lifetime.end.p0(i64 12, ptr nonnull %2)
  call void @llvm.lifetime.end.p0(i64 12, ptr nonnull %3)
  call void @llvm.lifetime.end.p0(i64 8, ptr nonnull %4)
  call void @llvm.lifetime.end.p0(i64 8, ptr nonnull %5)
  call void @llvm.lifetime.end.p0(i64 8, ptr nonnull %6)
  br label %32

32:                                               ; preds = %1, %19
  %33 = call i32 @cudaGetLastError()
  call void @_ZN3c104cuda29c10_cuda_check_implementationEiPKcS2_ib(i32 noundef %33, ptr noundef nonnull @.str, ptr noundef nonnull @__func__._ZZZZZZZZZZZZZ13run_flash_fwdI23Flash_fwd_kernel_traitsILi256ELi128ELi64ELi8ELb0ELb0EN7cutlass10bfloat16_tE19Flash_kernel_traitsILi256ELi128ELi64ELi8ES2_EELb1ELb1EEvR16Flash_fwd_paramsP11CUstream_stENKUlvE_clEvENKUlvE_clEvENKUlvE_clEvENKUlvE_clEvENKUlvE_clEvENKUlvE_clEvENKUlvE_clEvENKUlvE_clEvENKUlvE_clEvENKUlvE_clEvENKUlvE_clEvENKUlvE_clEv, i32 noundef 89, i1 noundef zeroext true)
  ret void
}

; Function Attrs: inlinehint mustprogress uwtable
define linkonce_odr dso_local void @_ZZZZZZZZZZZZZ13run_flash_fwdI23Flash_fwd_kernel_traitsILi256ELi128ELi64ELi8ELb0ELb0EN7cutlass10bfloat16_tE19Flash_kernel_traitsILi256ELi128ELi64ELi8ES2_EELb1ELb1EEvR16Flash_fwd_paramsP11CUstream_stENKUlvE_clEvENKUlvE_clEvENKUlvE_clEvENKUlvE0_clEvENKUlvE_clEvENKUlvE0_clEvENKUlvE_clEvENKUlvE_clEvENKUlvE_clEvENKUlvE0_clEvENKUlvE_clEvENKUlvE_clEv(ptr noundef nonnull align 8 dereferenceable(24) %0) local_unnamed_addr #7 comdat align 2 {
  %2 = alloca %struct.dim3, align 8
  %3 = alloca %struct.dim3, align 8
  %4 = alloca i64, align 8
  %5 = alloca ptr, align 8
  %6 = alloca ptr, align 16
  %7 = alloca %struct.Flash_fwd_params, align 8
  %8 = alloca %struct.Flash_fwd_params, align 8
  %9 = tail call noundef i32 @cudaFuncSetAttribute(ptr noundef nonnull @_Z31__device_stub__flash_fwd_kernelI23Flash_fwd_kernel_traitsILi256ELi128ELi64ELi8ELb0ELb0EN7cutlass10bfloat16_tE19Flash_kernel_traitsILi256ELi128ELi64ELi8ES2_EELb0ELb1ELb0ELb0ELb0ELb0ELb1ELb0EEv16Flash_fwd_params, i32 noundef 8, i32 noundef 131072)
  tail call void @_ZN3c104cuda29c10_cuda_check_implementationEiPKcS2_ib(i32 noundef %9, ptr noundef nonnull @.str, ptr noundef nonnull @__func__._ZZZZZZZZZZZZZ13run_flash_fwdI23Flash_fwd_kernel_traitsILi256ELi128ELi64ELi8ELb0ELb0EN7cutlass10bfloat16_tE19Flash_kernel_traitsILi256ELi128ELi64ELi8ES2_EELb1ELb1EEvR16Flash_fwd_paramsP11CUstream_stENKUlvE_clEvENKUlvE_clEvENKUlvE_clEvENKUlvE_clEvENKUlvE_clEvENKUlvE_clEvENKUlvE_clEvENKUlvE_clEvENKUlvE_clEvENKUlvE_clEvENKUlvE_clEvENKUlvE_clEv, i32 noundef 82, i1 noundef zeroext true)
  %10 = load ptr, ptr %0, align 8, !tbaa !87
  %11 = load i64, ptr %10, align 4, !tbaa.struct !42
  %12 = getelementptr inbounds i8, ptr %10, i64 8
  %13 = load i32, ptr %12, align 4, !tbaa.struct !43
  %14 = getelementptr inbounds %class.anon.87, ptr %0, i64 0, i32 1
  %15 = load ptr, ptr %14, align 8, !tbaa !89
  %16 = load ptr, ptr %15, align 8, !tbaa !18
  %17 = tail call i32 @__cudaPushCallConfiguration(i64 %11, i32 %13, i64 4294967552, i32 1, i64 noundef 131072, ptr noundef %16)
  %18 = icmp eq i32 %17, 0
  br i1 %18, label %19, label %32

19:                                               ; preds = %1
  %20 = getelementptr inbounds %class.anon.87, ptr %0, i64 0, i32 2
  %21 = load ptr, ptr %20, align 8, !tbaa !90
  call void @llvm.memcpy.p0.p0.i64(ptr noundef nonnull align 8 dereferenceable(464) %8, ptr noundef nonnull align 8 dereferenceable(464) %21, i64 464, i1 false)
  call void @llvm.lifetime.start.p0(i64 464, ptr nonnull %7)
  call void @llvm.lifetime.start.p0(i64 12, ptr nonnull %2)
  call void @llvm.lifetime.start.p0(i64 12, ptr nonnull %3)
  call void @llvm.lifetime.start.p0(i64 8, ptr nonnull %4)
  call void @llvm.lifetime.start.p0(i64 8, ptr nonnull %5)
  call void @llvm.lifetime.start.p0(i64 8, ptr nonnull %6)
  call void @llvm.memcpy.p0.p0.i64(ptr noundef nonnull align 8 dereferenceable(464) %7, ptr noundef nonnull align 8 dereferenceable(464) %8, i64 464, i1 false)
  store ptr %7, ptr %6, align 16
  %22 = call i32 @__cudaPopCallConfiguration(ptr nonnull %2, ptr nonnull %3, ptr nonnull %4, ptr nonnull %5)
  %23 = load i64, ptr %4, align 8
  %24 = load ptr, ptr %5, align 8
  %25 = load i64, ptr %2, align 8
  %26 = getelementptr inbounds i8, ptr %2, i64 8
  %27 = load i32, ptr %26, align 8
  %28 = load i64, ptr %3, align 8
  %29 = getelementptr inbounds i8, ptr %3, i64 8
  %30 = load i32, ptr %29, align 8
  %31 = call noundef i32 @cudaLaunchKernel(ptr noundef nonnull @_Z31__device_stub__flash_fwd_kernelI23Flash_fwd_kernel_traitsILi256ELi128ELi64ELi8ELb0ELb0EN7cutlass10bfloat16_tE19Flash_kernel_traitsILi256ELi128ELi64ELi8ES2_EELb0ELb1ELb0ELb0ELb0ELb0ELb1ELb0EEv16Flash_fwd_params, i64 %25, i32 %27, i64 %28, i32 %30, ptr noundef nonnull %6, i64 noundef %23, ptr noundef %24)
  call void @llvm.lifetime.end.p0(i64 464, ptr nonnull %7)
  call void @llvm.lifetime.end.p0(i64 12, ptr nonnull %2)
  call void @llvm.lifetime.end.p0(i64 12, ptr nonnull %3)
  call void @llvm.lifetime.end.p0(i64 8, ptr nonnull %4)
  call void @llvm.lifetime.end.p0(i64 8, ptr nonnull %5)
  call void @llvm.lifetime.end.p0(i64 8, ptr nonnull %6)
  br label %32

32:                                               ; preds = %1, %19
  %33 = call i32 @cudaGetLastError()
  call void @_ZN3c104cuda29c10_cuda_check_implementationEiPKcS2_ib(i32 noundef %33, ptr noundef nonnull @.str, ptr noundef nonnull @__func__._ZZZZZZZZZZZZZ13run_flash_fwdI23Flash_fwd_kernel_traitsILi256ELi128ELi64ELi8ELb0ELb0EN7cutlass10bfloat16_tE19Flash_kernel_traitsILi256ELi128ELi64ELi8ES2_EELb1ELb1EEvR16Flash_fwd_paramsP11CUstream_stENKUlvE_clEvENKUlvE_clEvENKUlvE_clEvENKUlvE_clEvENKUlvE_clEvENKUlvE_clEvENKUlvE_clEvENKUlvE_clEvENKUlvE_clEvENKUlvE_clEvENKUlvE_clEvENKUlvE_clEv, i32 noundef 89, i1 noundef zeroext true)
  ret void
}

; Function Attrs: inlinehint mustprogress uwtable
define linkonce_odr dso_local void @_ZZZZZZZZZZZZZ13run_flash_fwdI23Flash_fwd_kernel_traitsILi256ELi128ELi64ELi8ELb0ELb0EN7cutlass10bfloat16_tE19Flash_kernel_traitsILi256ELi128ELi64ELi8ES2_EELb1ELb1EEvR16Flash_fwd_paramsP11CUstream_stENKUlvE_clEvENKUlvE_clEvENKUlvE_clEvENKUlvE0_clEvENKUlvE_clEvENKUlvE0_clEvENKUlvE_clEvENKUlvE_clEvENKUlvE_clEvENKUlvE0_clEvENKUlvE_clEvENKUlvE0_clEv(ptr noundef nonnull align 8 dereferenceable(24) %0) local_unnamed_addr #7 comdat align 2 {
  %2 = alloca %struct.dim3, align 8
  %3 = alloca %struct.dim3, align 8
  %4 = alloca i64, align 8
  %5 = alloca ptr, align 8
  %6 = alloca ptr, align 16
  %7 = alloca %struct.Flash_fwd_params, align 8
  %8 = alloca %struct.Flash_fwd_params, align 8
  %9 = tail call noundef i32 @cudaFuncSetAttribute(ptr noundef nonnull @_Z31__device_stub__flash_fwd_kernelI23Flash_fwd_kernel_traitsILi256ELi128ELi64ELi8ELb0ELb0EN7cutlass10bfloat16_tE19Flash_kernel_traitsILi256ELi128ELi64ELi8ES2_EELb1ELb1ELb0ELb0ELb0ELb0ELb0ELb1EEv16Flash_fwd_params, i32 noundef 8, i32 noundef 131072)
  tail call void @_ZN3c104cuda29c10_cuda_check_implementationEiPKcS2_ib(i32 noundef %9, ptr noundef nonnull @.str, ptr noundef nonnull @__func__._ZZZZZZZZZZZZZ13run_flash_fwdI23Flash_fwd_kernel_traitsILi256ELi128ELi64ELi8ELb0ELb0EN7cutlass10bfloat16_tE19Flash_kernel_traitsILi256ELi128ELi64ELi8ES2_EELb1ELb1EEvR16Flash_fwd_paramsP11CUstream_stENKUlvE_clEvENKUlvE_clEvENKUlvE_clEvENKUlvE_clEvENKUlvE_clEvENKUlvE_clEvENKUlvE_clEvENKUlvE_clEvENKUlvE_clEvENKUlvE_clEvENKUlvE_clEvENKUlvE_clEv, i32 noundef 82, i1 noundef zeroext true)
  %10 = load ptr, ptr %0, align 8, !tbaa !91
  %11 = load i64, ptr %10, align 4, !tbaa.struct !42
  %12 = getelementptr inbounds i8, ptr %10, i64 8
  %13 = load i32, ptr %12, align 4, !tbaa.struct !43
  %14 = getelementptr inbounds %class.anon.88, ptr %0, i64 0, i32 1
  %15 = load ptr, ptr %14, align 8, !tbaa !93
  %16 = load ptr, ptr %15, align 8, !tbaa !18
  %17 = tail call i32 @__cudaPushCallConfiguration(i64 %11, i32 %13, i64 4294967552, i32 1, i64 noundef 131072, ptr noundef %16)
  %18 = icmp eq i32 %17, 0
  br i1 %18, label %19, label %32

19:                                               ; preds = %1
  %20 = getelementptr inbounds %class.anon.88, ptr %0, i64 0, i32 2
  %21 = load ptr, ptr %20, align 8, !tbaa !94
  call void @llvm.memcpy.p0.p0.i64(ptr noundef nonnull align 8 dereferenceable(464) %8, ptr noundef nonnull align 8 dereferenceable(464) %21, i64 464, i1 false)
  call void @llvm.lifetime.start.p0(i64 464, ptr nonnull %7)
  call void @llvm.lifetime.start.p0(i64 12, ptr nonnull %2)
  call void @llvm.lifetime.start.p0(i64 12, ptr nonnull %3)
  call void @llvm.lifetime.start.p0(i64 8, ptr nonnull %4)
  call void @llvm.lifetime.start.p0(i64 8, ptr nonnull %5)
  call void @llvm.lifetime.start.p0(i64 8, ptr nonnull %6)
  call void @llvm.memcpy.p0.p0.i64(ptr noundef nonnull align 8 dereferenceable(464) %7, ptr noundef nonnull align 8 dereferenceable(464) %8, i64 464, i1 false)
  store ptr %7, ptr %6, align 16
  %22 = call i32 @__cudaPopCallConfiguration(ptr nonnull %2, ptr nonnull %3, ptr nonnull %4, ptr nonnull %5)
  %23 = load i64, ptr %4, align 8
  %24 = load ptr, ptr %5, align 8
  %25 = load i64, ptr %2, align 8
  %26 = getelementptr inbounds i8, ptr %2, i64 8
  %27 = load i32, ptr %26, align 8
  %28 = load i64, ptr %3, align 8
  %29 = getelementptr inbounds i8, ptr %3, i64 8
  %30 = load i32, ptr %29, align 8
  %31 = call noundef i32 @cudaLaunchKernel(ptr noundef nonnull @_Z31__device_stub__flash_fwd_kernelI23Flash_fwd_kernel_traitsILi256ELi128ELi64ELi8ELb0ELb0EN7cutlass10bfloat16_tE19Flash_kernel_traitsILi256ELi128ELi64ELi8ES2_EELb1ELb1ELb0ELb0ELb0ELb0ELb0ELb1EEv16Flash_fwd_params, i64 %25, i32 %27, i64 %28, i32 %30, ptr noundef nonnull %6, i64 noundef %23, ptr noundef %24)
  call void @llvm.lifetime.end.p0(i64 464, ptr nonnull %7)
  call void @llvm.lifetime.end.p0(i64 12, ptr nonnull %2)
  call void @llvm.lifetime.end.p0(i64 12, ptr nonnull %3)
  call void @llvm.lifetime.end.p0(i64 8, ptr nonnull %4)
  call void @llvm.lifetime.end.p0(i64 8, ptr nonnull %5)
  call void @llvm.lifetime.end.p0(i64 8, ptr nonnull %6)
  br label %32

32:                                               ; preds = %1, %19
  %33 = call i32 @cudaGetLastError()
  call void @_ZN3c104cuda29c10_cuda_check_implementationEiPKcS2_ib(i32 noundef %33, ptr noundef nonnull @.str, ptr noundef nonnull @__func__._ZZZZZZZZZZZZZ13run_flash_fwdI23Flash_fwd_kernel_traitsILi256ELi128ELi64ELi8ELb0ELb0EN7cutlass10bfloat16_tE19Flash_kernel_traitsILi256ELi128ELi64ELi8ES2_EELb1ELb1EEvR16Flash_fwd_paramsP11CUstream_stENKUlvE_clEvENKUlvE_clEvENKUlvE_clEvENKUlvE_clEvENKUlvE_clEvENKUlvE_clEvENKUlvE_clEvENKUlvE_clEvENKUlvE_clEvENKUlvE_clEvENKUlvE_clEvENKUlvE_clEv, i32 noundef 89, i1 noundef zeroext true)
  ret void
}

; Function Attrs: inlinehint mustprogress uwtable
define linkonce_odr dso_local void @_ZZZZZZZZZZZZZ13run_flash_fwdI23Flash_fwd_kernel_traitsILi256ELi128ELi64ELi8ELb0ELb0EN7cutlass10bfloat16_tE19Flash_kernel_traitsILi256ELi128ELi64ELi8ES2_EELb1ELb1EEvR16Flash_fwd_paramsP11CUstream_stENKUlvE_clEvENKUlvE_clEvENKUlvE_clEvENKUlvE0_clEvENKUlvE_clEvENKUlvE0_clEvENKUlvE_clEvENKUlvE0_clEvENKUlvE_clEvENKUlvE_clEvENKUlvE_clEvENKUlvE_clEv(ptr noundef nonnull align 8 dereferenceable(24) %0) local_unnamed_addr #7 comdat align 2 {
  %2 = alloca %struct.dim3, align 8
  %3 = alloca %struct.dim3, align 8
  %4 = alloca i64, align 8
  %5 = alloca ptr, align 8
  %6 = alloca ptr, align 16
  %7 = alloca %struct.Flash_fwd_params, align 8
  %8 = alloca %struct.Flash_fwd_params, align 8
  %9 = tail call noundef i32 @cudaFuncSetAttribute(ptr noundef nonnull @_Z31__device_stub__flash_fwd_kernelI23Flash_fwd_kernel_traitsILi256ELi128ELi64ELi8ELb0ELb0EN7cutlass10bfloat16_tE19Flash_kernel_traitsILi256ELi128ELi64ELi8ES2_EELb0ELb1ELb0ELb1ELb0ELb0ELb1ELb0EEv16Flash_fwd_params, i32 noundef 8, i32 noundef 131072)
  tail call void @_ZN3c104cuda29c10_cuda_check_implementationEiPKcS2_ib(i32 noundef %9, ptr noundef nonnull @.str, ptr noundef nonnull @__func__._ZZZZZZZZZZZZZ13run_flash_fwdI23Flash_fwd_kernel_traitsILi256ELi128ELi64ELi8ELb0ELb0EN7cutlass10bfloat16_tE19Flash_kernel_traitsILi256ELi128ELi64ELi8ES2_EELb1ELb1EEvR16Flash_fwd_paramsP11CUstream_stENKUlvE_clEvENKUlvE_clEvENKUlvE_clEvENKUlvE_clEvENKUlvE_clEvENKUlvE_clEvENKUlvE_clEvENKUlvE_clEvENKUlvE_clEvENKUlvE_clEvENKUlvE_clEvENKUlvE_clEv, i32 noundef 82, i1 noundef zeroext true)
  %10 = load ptr, ptr %0, align 8, !tbaa !95
  %11 = load i64, ptr %10, align 4, !tbaa.struct !42
  %12 = getelementptr inbounds i8, ptr %10, i64 8
  %13 = load i32, ptr %12, align 4, !tbaa.struct !43
  %14 = getelementptr inbounds %class.anon.93, ptr %0, i64 0, i32 1
  %15 = load ptr, ptr %14, align 8, !tbaa !97
  %16 = load ptr, ptr %15, align 8, !tbaa !18
  %17 = tail call i32 @__cudaPushCallConfiguration(i64 %11, i32 %13, i64 4294967552, i32 1, i64 noundef 131072, ptr noundef %16)
  %18 = icmp eq i32 %17, 0
  br i1 %18, label %19, label %32

19:                                               ; preds = %1
  %20 = getelementptr inbounds %class.anon.93, ptr %0, i64 0, i32 2
  %21 = load ptr, ptr %20, align 8, !tbaa !98
  call void @llvm.memcpy.p0.p0.i64(ptr noundef nonnull align 8 dereferenceable(464) %8, ptr noundef nonnull align 8 dereferenceable(464) %21, i64 464, i1 false)
  call void @llvm.lifetime.start.p0(i64 464, ptr nonnull %7)
  call void @llvm.lifetime.start.p0(i64 12, ptr nonnull %2)
  call void @llvm.lifetime.start.p0(i64 12, ptr nonnull %3)
  call void @llvm.lifetime.start.p0(i64 8, ptr nonnull %4)
  call void @llvm.lifetime.start.p0(i64 8, ptr nonnull %5)
  call void @llvm.lifetime.start.p0(i64 8, ptr nonnull %6)
  call void @llvm.memcpy.p0.p0.i64(ptr noundef nonnull align 8 dereferenceable(464) %7, ptr noundef nonnull align 8 dereferenceable(464) %8, i64 464, i1 false)
  store ptr %7, ptr %6, align 16
  %22 = call i32 @__cudaPopCallConfiguration(ptr nonnull %2, ptr nonnull %3, ptr nonnull %4, ptr nonnull %5)
  %23 = load i64, ptr %4, align 8
  %24 = load ptr, ptr %5, align 8
  %25 = load i64, ptr %2, align 8
  %26 = getelementptr inbounds i8, ptr %2, i64 8
  %27 = load i32, ptr %26, align 8
  %28 = load i64, ptr %3, align 8
  %29 = getelementptr inbounds i8, ptr %3, i64 8
  %30 = load i32, ptr %29, align 8
  %31 = call noundef i32 @cudaLaunchKernel(ptr noundef nonnull @_Z31__device_stub__flash_fwd_kernelI23Flash_fwd_kernel_traitsILi256ELi128ELi64ELi8ELb0ELb0EN7cutlass10bfloat16_tE19Flash_kernel_traitsILi256ELi128ELi64ELi8ES2_EELb0ELb1ELb0ELb1ELb0ELb0ELb1ELb0EEv16Flash_fwd_params, i64 %25, i32 %27, i64 %28, i32 %30, ptr noundef nonnull %6, i64 noundef %23, ptr noundef %24)
  call void @llvm.lifetime.end.p0(i64 464, ptr nonnull %7)
  call void @llvm.lifetime.end.p0(i64 12, ptr nonnull %2)
  call void @llvm.lifetime.end.p0(i64 12, ptr nonnull %3)
  call void @llvm.lifetime.end.p0(i64 8, ptr nonnull %4)
  call void @llvm.lifetime.end.p0(i64 8, ptr nonnull %5)
  call void @llvm.lifetime.end.p0(i64 8, ptr nonnull %6)
  br label %32

32:                                               ; preds = %1, %19
  %33 = call i32 @cudaGetLastError()
  call void @_ZN3c104cuda29c10_cuda_check_implementationEiPKcS2_ib(i32 noundef %33, ptr noundef nonnull @.str, ptr noundef nonnull @__func__._ZZZZZZZZZZZZZ13run_flash_fwdI23Flash_fwd_kernel_traitsILi256ELi128ELi64ELi8ELb0ELb0EN7cutlass10bfloat16_tE19Flash_kernel_traitsILi256ELi128ELi64ELi8ES2_EELb1ELb1EEvR16Flash_fwd_paramsP11CUstream_stENKUlvE_clEvENKUlvE_clEvENKUlvE_clEvENKUlvE_clEvENKUlvE_clEvENKUlvE_clEvENKUlvE_clEvENKUlvE_clEvENKUlvE_clEvENKUlvE_clEvENKUlvE_clEvENKUlvE_clEv, i32 noundef 89, i1 noundef zeroext true)
  ret void
}

; Function Attrs: inlinehint mustprogress uwtable
define linkonce_odr dso_local void @_ZZZZZZZZZZZZZ13run_flash_fwdI23Flash_fwd_kernel_traitsILi256ELi128ELi64ELi8ELb0ELb0EN7cutlass10bfloat16_tE19Flash_kernel_traitsILi256ELi128ELi64ELi8ES2_EELb1ELb1EEvR16Flash_fwd_paramsP11CUstream_stENKUlvE_clEvENKUlvE_clEvENKUlvE_clEvENKUlvE0_clEvENKUlvE_clEvENKUlvE0_clEvENKUlvE_clEvENKUlvE0_clEvENKUlvE_clEvENKUlvE_clEvENKUlvE_clEvENKUlvE0_clEv(ptr noundef nonnull align 8 dereferenceable(24) %0) local_unnamed_addr #7 comdat align 2 {
  %2 = alloca %struct.dim3, align 8
  %3 = alloca %struct.dim3, align 8
  %4 = alloca i64, align 8
  %5 = alloca ptr, align 8
  %6 = alloca ptr, align 16
  %7 = alloca %struct.Flash_fwd_params, align 8
  %8 = alloca %struct.Flash_fwd_params, align 8
  %9 = tail call noundef i32 @cudaFuncSetAttribute(ptr noundef nonnull @_Z31__device_stub__flash_fwd_kernelI23Flash_fwd_kernel_traitsILi256ELi128ELi64ELi8ELb0ELb0EN7cutlass10bfloat16_tE19Flash_kernel_traitsILi256ELi128ELi64ELi8ES2_EELb1ELb1ELb0ELb1ELb0ELb0ELb0ELb0EEv16Flash_fwd_params, i32 noundef 8, i32 noundef 131072)
  tail call void @_ZN3c104cuda29c10_cuda_check_implementationEiPKcS2_ib(i32 noundef %9, ptr noundef nonnull @.str, ptr noundef nonnull @__func__._ZZZZZZZZZZZZZ13run_flash_fwdI23Flash_fwd_kernel_traitsILi256ELi128ELi64ELi8ELb0ELb0EN7cutlass10bfloat16_tE19Flash_kernel_traitsILi256ELi128ELi64ELi8ES2_EELb1ELb1EEvR16Flash_fwd_paramsP11CUstream_stENKUlvE_clEvENKUlvE_clEvENKUlvE_clEvENKUlvE_clEvENKUlvE_clEvENKUlvE_clEvENKUlvE_clEvENKUlvE_clEvENKUlvE_clEvENKUlvE_clEvENKUlvE_clEvENKUlvE_clEv, i32 noundef 82, i1 noundef zeroext true)
  %10 = load ptr, ptr %0, align 8, !tbaa !99
  %11 = load i64, ptr %10, align 4, !tbaa.struct !42
  %12 = getelementptr inbounds i8, ptr %10, i64 8
  %13 = load i32, ptr %12, align 4, !tbaa.struct !43
  %14 = getelementptr inbounds %class.anon.94, ptr %0, i64 0, i32 1
  %15 = load ptr, ptr %14, align 8, !tbaa !101
  %16 = load ptr, ptr %15, align 8, !tbaa !18
  %17 = tail call i32 @__cudaPushCallConfiguration(i64 %11, i32 %13, i64 4294967552, i32 1, i64 noundef 131072, ptr noundef %16)
  %18 = icmp eq i32 %17, 0
  br i1 %18, label %19, label %32

19:                                               ; preds = %1
  %20 = getelementptr inbounds %class.anon.94, ptr %0, i64 0, i32 2
  %21 = load ptr, ptr %20, align 8, !tbaa !102
  call void @llvm.memcpy.p0.p0.i64(ptr noundef nonnull align 8 dereferenceable(464) %8, ptr noundef nonnull align 8 dereferenceable(464) %21, i64 464, i1 false)
  call void @llvm.lifetime.start.p0(i64 464, ptr nonnull %7)
  call void @llvm.lifetime.start.p0(i64 12, ptr nonnull %2)
  call void @llvm.lifetime.start.p0(i64 12, ptr nonnull %3)
  call void @llvm.lifetime.start.p0(i64 8, ptr nonnull %4)
  call void @llvm.lifetime.start.p0(i64 8, ptr nonnull %5)
  call void @llvm.lifetime.start.p0(i64 8, ptr nonnull %6)
  call void @llvm.memcpy.p0.p0.i64(ptr noundef nonnull align 8 dereferenceable(464) %7, ptr noundef nonnull align 8 dereferenceable(464) %8, i64 464, i1 false)
  store ptr %7, ptr %6, align 16
  %22 = call i32 @__cudaPopCallConfiguration(ptr nonnull %2, ptr nonnull %3, ptr nonnull %4, ptr nonnull %5)
  %23 = load i64, ptr %4, align 8
  %24 = load ptr, ptr %5, align 8
  %25 = load i64, ptr %2, align 8
  %26 = getelementptr inbounds i8, ptr %2, i64 8
  %27 = load i32, ptr %26, align 8
  %28 = load i64, ptr %3, align 8
  %29 = getelementptr inbounds i8, ptr %3, i64 8
  %30 = load i32, ptr %29, align 8
  %31 = call noundef i32 @cudaLaunchKernel(ptr noundef nonnull @_Z31__device_stub__flash_fwd_kernelI23Flash_fwd_kernel_traitsILi256ELi128ELi64ELi8ELb0ELb0EN7cutlass10bfloat16_tE19Flash_kernel_traitsILi256ELi128ELi64ELi8ES2_EELb1ELb1ELb0ELb1ELb0ELb0ELb0ELb0EEv16Flash_fwd_params, i64 %25, i32 %27, i64 %28, i32 %30, ptr noundef nonnull %6, i64 noundef %23, ptr noundef %24)
  call void @llvm.lifetime.end.p0(i64 464, ptr nonnull %7)
  call void @llvm.lifetime.end.p0(i64 12, ptr nonnull %2)
  call void @llvm.lifetime.end.p0(i64 12, ptr nonnull %3)
  call void @llvm.lifetime.end.p0(i64 8, ptr nonnull %4)
  call void @llvm.lifetime.end.p0(i64 8, ptr nonnull %5)
  call void @llvm.lifetime.end.p0(i64 8, ptr nonnull %6)
  br label %32

32:                                               ; preds = %1, %19
  %33 = call i32 @cudaGetLastError()
  call void @_ZN3c104cuda29c10_cuda_check_implementationEiPKcS2_ib(i32 noundef %33, ptr noundef nonnull @.str, ptr noundef nonnull @__func__._ZZZZZZZZZZZZZ13run_flash_fwdI23Flash_fwd_kernel_traitsILi256ELi128ELi64ELi8ELb0ELb0EN7cutlass10bfloat16_tE19Flash_kernel_traitsILi256ELi128ELi64ELi8ES2_EELb1ELb1EEvR16Flash_fwd_paramsP11CUstream_stENKUlvE_clEvENKUlvE_clEvENKUlvE_clEvENKUlvE_clEvENKUlvE_clEvENKUlvE_clEvENKUlvE_clEvENKUlvE_clEvENKUlvE_clEvENKUlvE_clEvENKUlvE_clEvENKUlvE_clEv, i32 noundef 89, i1 noundef zeroext true)
  ret void
}

; Function Attrs: inlinehint mustprogress uwtable
define linkonce_odr dso_local void @_ZZZZZZZZZZZZZ13run_flash_fwdI23Flash_fwd_kernel_traitsILi256ELi128ELi64ELi8ELb0ELb0EN7cutlass10bfloat16_tE19Flash_kernel_traitsILi256ELi128ELi64ELi8ES2_EELb1ELb1EEvR16Flash_fwd_paramsP11CUstream_stENKUlvE_clEvENKUlvE_clEvENKUlvE_clEvENKUlvE0_clEvENKUlvE_clEvENKUlvE0_clEvENKUlvE_clEvENKUlvE0_clEvENKUlvE_clEvENKUlvE0_clEvENKUlvE_clEvENKUlvE_clEv(ptr noundef nonnull align 8 dereferenceable(24) %0) local_unnamed_addr #7 comdat align 2 {
  %2 = alloca %struct.dim3, align 8
  %3 = alloca %struct.dim3, align 8
  %4 = alloca i64, align 8
  %5 = alloca ptr, align 8
  %6 = alloca ptr, align 16
  %7 = alloca %struct.Flash_fwd_params, align 8
  %8 = alloca %struct.Flash_fwd_params, align 8
  %9 = tail call noundef i32 @cudaFuncSetAttribute(ptr noundef nonnull @_Z31__device_stub__flash_fwd_kernelI23Flash_fwd_kernel_traitsILi256ELi128ELi64ELi8ELb0ELb0EN7cutlass10bfloat16_tE19Flash_kernel_traitsILi256ELi128ELi64ELi8ES2_EELb0ELb1ELb0ELb0ELb0ELb0ELb1ELb0EEv16Flash_fwd_params, i32 noundef 8, i32 noundef 131072)
  tail call void @_ZN3c104cuda29c10_cuda_check_implementationEiPKcS2_ib(i32 noundef %9, ptr noundef nonnull @.str, ptr noundef nonnull @__func__._ZZZZZZZZZZZZZ13run_flash_fwdI23Flash_fwd_kernel_traitsILi256ELi128ELi64ELi8ELb0ELb0EN7cutlass10bfloat16_tE19Flash_kernel_traitsILi256ELi128ELi64ELi8ES2_EELb1ELb1EEvR16Flash_fwd_paramsP11CUstream_stENKUlvE_clEvENKUlvE_clEvENKUlvE_clEvENKUlvE_clEvENKUlvE_clEvENKUlvE_clEvENKUlvE_clEvENKUlvE_clEvENKUlvE_clEvENKUlvE_clEvENKUlvE_clEvENKUlvE_clEv, i32 noundef 82, i1 noundef zeroext true)
  %10 = load ptr, ptr %0, align 8, !tbaa !103
  %11 = load i64, ptr %10, align 4, !tbaa.struct !42
  %12 = getelementptr inbounds i8, ptr %10, i64 8
  %13 = load i32, ptr %12, align 4, !tbaa.struct !43
  %14 = getelementptr inbounds %class.anon.96, ptr %0, i64 0, i32 1
  %15 = load ptr, ptr %14, align 8, !tbaa !105
  %16 = load ptr, ptr %15, align 8, !tbaa !18
  %17 = tail call i32 @__cudaPushCallConfiguration(i64 %11, i32 %13, i64 4294967552, i32 1, i64 noundef 131072, ptr noundef %16)
  %18 = icmp eq i32 %17, 0
  br i1 %18, label %19, label %32

19:                                               ; preds = %1
  %20 = getelementptr inbounds %class.anon.96, ptr %0, i64 0, i32 2
  %21 = load ptr, ptr %20, align 8, !tbaa !106
  call void @llvm.memcpy.p0.p0.i64(ptr noundef nonnull align 8 dereferenceable(464) %8, ptr noundef nonnull align 8 dereferenceable(464) %21, i64 464, i1 false)
  call void @llvm.lifetime.start.p0(i64 464, ptr nonnull %7)
  call void @llvm.lifetime.start.p0(i64 12, ptr nonnull %2)
  call void @llvm.lifetime.start.p0(i64 12, ptr nonnull %3)
  call void @llvm.lifetime.start.p0(i64 8, ptr nonnull %4)
  call void @llvm.lifetime.start.p0(i64 8, ptr nonnull %5)
  call void @llvm.lifetime.start.p0(i64 8, ptr nonnull %6)
  call void @llvm.memcpy.p0.p0.i64(ptr noundef nonnull align 8 dereferenceable(464) %7, ptr noundef nonnull align 8 dereferenceable(464) %8, i64 464, i1 false)
  store ptr %7, ptr %6, align 16
  %22 = call i32 @__cudaPopCallConfiguration(ptr nonnull %2, ptr nonnull %3, ptr nonnull %4, ptr nonnull %5)
  %23 = load i64, ptr %4, align 8
  %24 = load ptr, ptr %5, align 8
  %25 = load i64, ptr %2, align 8
  %26 = getelementptr inbounds i8, ptr %2, i64 8
  %27 = load i32, ptr %26, align 8
  %28 = load i64, ptr %3, align 8
  %29 = getelementptr inbounds i8, ptr %3, i64 8
  %30 = load i32, ptr %29, align 8
  %31 = call noundef i32 @cudaLaunchKernel(ptr noundef nonnull @_Z31__device_stub__flash_fwd_kernelI23Flash_fwd_kernel_traitsILi256ELi128ELi64ELi8ELb0ELb0EN7cutlass10bfloat16_tE19Flash_kernel_traitsILi256ELi128ELi64ELi8ES2_EELb0ELb1ELb0ELb0ELb0ELb0ELb1ELb0EEv16Flash_fwd_params, i64 %25, i32 %27, i64 %28, i32 %30, ptr noundef nonnull %6, i64 noundef %23, ptr noundef %24)
  call void @llvm.lifetime.end.p0(i64 464, ptr nonnull %7)
  call void @llvm.lifetime.end.p0(i64 12, ptr nonnull %2)
  call void @llvm.lifetime.end.p0(i64 12, ptr nonnull %3)
  call void @llvm.lifetime.end.p0(i64 8, ptr nonnull %4)
  call void @llvm.lifetime.end.p0(i64 8, ptr nonnull %5)
  call void @llvm.lifetime.end.p0(i64 8, ptr nonnull %6)
  br label %32

32:                                               ; preds = %1, %19
  %33 = call i32 @cudaGetLastError()
  call void @_ZN3c104cuda29c10_cuda_check_implementationEiPKcS2_ib(i32 noundef %33, ptr noundef nonnull @.str, ptr noundef nonnull @__func__._ZZZZZZZZZZZZZ13run_flash_fwdI23Flash_fwd_kernel_traitsILi256ELi128ELi64ELi8ELb0ELb0EN7cutlass10bfloat16_tE19Flash_kernel_traitsILi256ELi128ELi64ELi8ES2_EELb1ELb1EEvR16Flash_fwd_paramsP11CUstream_stENKUlvE_clEvENKUlvE_clEvENKUlvE_clEvENKUlvE_clEvENKUlvE_clEvENKUlvE_clEvENKUlvE_clEvENKUlvE_clEvENKUlvE_clEvENKUlvE_clEvENKUlvE_clEvENKUlvE_clEv, i32 noundef 89, i1 noundef zeroext true)
  ret void
}

; Function Attrs: inlinehint mustprogress uwtable
define linkonce_odr dso_local void @_ZZZZZZZZZZZZZ13run_flash_fwdI23Flash_fwd_kernel_traitsILi256ELi128ELi64ELi8ELb0ELb0EN7cutlass10bfloat16_tE19Flash_kernel_traitsILi256ELi128ELi64ELi8ES2_EELb1ELb1EEvR16Flash_fwd_paramsP11CUstream_stENKUlvE_clEvENKUlvE_clEvENKUlvE_clEvENKUlvE0_clEvENKUlvE_clEvENKUlvE0_clEvENKUlvE_clEvENKUlvE0_clEvENKUlvE_clEvENKUlvE0_clEvENKUlvE_clEvENKUlvE0_clEv(ptr noundef nonnull align 8 dereferenceable(24) %0) local_unnamed_addr #7 comdat align 2 {
  %2 = alloca %struct.dim3, align 8
  %3 = alloca %struct.dim3, align 8
  %4 = alloca i64, align 8
  %5 = alloca ptr, align 8
  %6 = alloca ptr, align 16
  %7 = alloca %struct.Flash_fwd_params, align 8
  %8 = alloca %struct.Flash_fwd_params, align 8
  %9 = tail call noundef i32 @cudaFuncSetAttribute(ptr noundef nonnull @_Z31__device_stub__flash_fwd_kernelI23Flash_fwd_kernel_traitsILi256ELi128ELi64ELi8ELb0ELb0EN7cutlass10bfloat16_tE19Flash_kernel_traitsILi256ELi128ELi64ELi8ES2_EELb1ELb1ELb0ELb0ELb0ELb0ELb0ELb0EEv16Flash_fwd_params, i32 noundef 8, i32 noundef 131072)
  tail call void @_ZN3c104cuda29c10_cuda_check_implementationEiPKcS2_ib(i32 noundef %9, ptr noundef nonnull @.str, ptr noundef nonnull @__func__._ZZZZZZZZZZZZZ13run_flash_fwdI23Flash_fwd_kernel_traitsILi256ELi128ELi64ELi8ELb0ELb0EN7cutlass10bfloat16_tE19Flash_kernel_traitsILi256ELi128ELi64ELi8ES2_EELb1ELb1EEvR16Flash_fwd_paramsP11CUstream_stENKUlvE_clEvENKUlvE_clEvENKUlvE_clEvENKUlvE_clEvENKUlvE_clEvENKUlvE_clEvENKUlvE_clEvENKUlvE_clEvENKUlvE_clEvENKUlvE_clEvENKUlvE_clEvENKUlvE_clEv, i32 noundef 82, i1 noundef zeroext true)
  %10 = load ptr, ptr %0, align 8, !tbaa !107
  %11 = load i64, ptr %10, align 4, !tbaa.struct !42
  %12 = getelementptr inbounds i8, ptr %10, i64 8
  %13 = load i32, ptr %12, align 4, !tbaa.struct !43
  %14 = getelementptr inbounds %class.anon.97, ptr %0, i64 0, i32 1
  %15 = load ptr, ptr %14, align 8, !tbaa !109
  %16 = load ptr, ptr %15, align 8, !tbaa !18
  %17 = tail call i32 @__cudaPushCallConfiguration(i64 %11, i32 %13, i64 4294967552, i32 1, i64 noundef 131072, ptr noundef %16)
  %18 = icmp eq i32 %17, 0
  br i1 %18, label %19, label %32

19:                                               ; preds = %1
  %20 = getelementptr inbounds %class.anon.97, ptr %0, i64 0, i32 2
  %21 = load ptr, ptr %20, align 8, !tbaa !110
  call void @llvm.memcpy.p0.p0.i64(ptr noundef nonnull align 8 dereferenceable(464) %8, ptr noundef nonnull align 8 dereferenceable(464) %21, i64 464, i1 false)
  call void @llvm.lifetime.start.p0(i64 464, ptr nonnull %7)
  call void @llvm.lifetime.start.p0(i64 12, ptr nonnull %2)
  call void @llvm.lifetime.start.p0(i64 12, ptr nonnull %3)
  call void @llvm.lifetime.start.p0(i64 8, ptr nonnull %4)
  call void @llvm.lifetime.start.p0(i64 8, ptr nonnull %5)
  call void @llvm.lifetime.start.p0(i64 8, ptr nonnull %6)
  call void @llvm.memcpy.p0.p0.i64(ptr noundef nonnull align 8 dereferenceable(464) %7, ptr noundef nonnull align 8 dereferenceable(464) %8, i64 464, i1 false)
  store ptr %7, ptr %6, align 16
  %22 = call i32 @__cudaPopCallConfiguration(ptr nonnull %2, ptr nonnull %3, ptr nonnull %4, ptr nonnull %5)
  %23 = load i64, ptr %4, align 8
  %24 = load ptr, ptr %5, align 8
  %25 = load i64, ptr %2, align 8
  %26 = getelementptr inbounds i8, ptr %2, i64 8
  %27 = load i32, ptr %26, align 8
  %28 = load i64, ptr %3, align 8
  %29 = getelementptr inbounds i8, ptr %3, i64 8
  %30 = load i32, ptr %29, align 8
  %31 = call noundef i32 @cudaLaunchKernel(ptr noundef nonnull @_Z31__device_stub__flash_fwd_kernelI23Flash_fwd_kernel_traitsILi256ELi128ELi64ELi8ELb0ELb0EN7cutlass10bfloat16_tE19Flash_kernel_traitsILi256ELi128ELi64ELi8ES2_EELb1ELb1ELb0ELb0ELb0ELb0ELb0ELb0EEv16Flash_fwd_params, i64 %25, i32 %27, i64 %28, i32 %30, ptr noundef nonnull %6, i64 noundef %23, ptr noundef %24)
  call void @llvm.lifetime.end.p0(i64 464, ptr nonnull %7)
  call void @llvm.lifetime.end.p0(i64 12, ptr nonnull %2)
  call void @llvm.lifetime.end.p0(i64 12, ptr nonnull %3)
  call void @llvm.lifetime.end.p0(i64 8, ptr nonnull %4)
  call void @llvm.lifetime.end.p0(i64 8, ptr nonnull %5)
  call void @llvm.lifetime.end.p0(i64 8, ptr nonnull %6)
  br label %32

32:                                               ; preds = %1, %19
  %33 = call i32 @cudaGetLastError()
  call void @_ZN3c104cuda29c10_cuda_check_implementationEiPKcS2_ib(i32 noundef %33, ptr noundef nonnull @.str, ptr noundef nonnull @__func__._ZZZZZZZZZZZZZ13run_flash_fwdI23Flash_fwd_kernel_traitsILi256ELi128ELi64ELi8ELb0ELb0EN7cutlass10bfloat16_tE19Flash_kernel_traitsILi256ELi128ELi64ELi8ES2_EELb1ELb1EEvR16Flash_fwd_paramsP11CUstream_stENKUlvE_clEvENKUlvE_clEvENKUlvE_clEvENKUlvE_clEvENKUlvE_clEvENKUlvE_clEvENKUlvE_clEvENKUlvE_clEvENKUlvE_clEvENKUlvE_clEvENKUlvE_clEvENKUlvE_clEv, i32 noundef 89, i1 noundef zeroext true)
  ret void
}

; Function Attrs: inlinehint mustprogress uwtable
define linkonce_odr dso_local void @_ZZZZZZZZ13run_flash_fwdI23Flash_fwd_kernel_traitsILi256ELi128ELi64ELi8ELb0ELb0EN7cutlass10bfloat16_tE19Flash_kernel_traitsILi256ELi128ELi64ELi8ES2_EELb1ELb1EEvR16Flash_fwd_paramsP11CUstream_stENKUlvE_clEvENKUlvE0_clEvENKUlvE_clEvENKUlvE_clEvENKUlvE_clEvENKUlvE0_clEvENKUlvE_clEv(ptr noundef nonnull align 8 dereferenceable(32) %0) local_unnamed_addr #7 comdat align 2 {
  %2 = alloca %class.anon.144, align 8
  %3 = alloca %class.anon.145, align 8
  %4 = alloca %class.anon.141, align 8
  %5 = alloca %class.anon.142, align 8
  %6 = alloca %class.anon.135, align 8
  %7 = alloca %class.anon.136, align 8
  %8 = alloca %class.anon.132, align 8
  %9 = alloca %class.anon.133, align 8
  %10 = load ptr, ptr %0, align 8, !tbaa !111
  %11 = load i8, ptr %10, align 1, !tbaa !30, !range !33, !noundef !34
  %12 = icmp eq i8 %11, 0
  %13 = getelementptr inbounds %class.anon.125, ptr %0, i64 0, i32 1
  %14 = load ptr, ptr %13, align 8, !tbaa !113
  %15 = getelementptr inbounds %class.anon.125, ptr %0, i64 0, i32 2
  %16 = load ptr, ptr %15, align 8, !tbaa !114
  %17 = getelementptr inbounds %class.anon.125, ptr %0, i64 0, i32 3
  %18 = load ptr, ptr %17, align 8, !tbaa !115
  %19 = getelementptr inbounds %struct.Flash_fwd_params, ptr %14, i64 0, i32 55
  %20 = load ptr, ptr %19, align 8, !tbaa !38
  %21 = icmp eq ptr %20, null
  %22 = getelementptr inbounds %struct.Flash_fwd_params, ptr %14, i64 0, i32 47
  %23 = load float, ptr %22, align 4, !tbaa !39
  %24 = fcmp ogt float %23, 0.000000e+00
  br i1 %12, label %40, label %25

25:                                               ; preds = %1
  br i1 %21, label %33, label %26

26:                                               ; preds = %25
  br i1 %24, label %27, label %30

27:                                               ; preds = %26
  call void @llvm.lifetime.start.p0(i64 24, ptr nonnull %8) #9
  store ptr %16, ptr %8, align 8, !tbaa !18
  %28 = getelementptr inbounds %class.anon.132, ptr %8, i64 0, i32 1
  store ptr %18, ptr %28, align 8, !tbaa !18
  %29 = getelementptr inbounds %class.anon.132, ptr %8, i64 0, i32 2
  store ptr %14, ptr %29, align 8, !tbaa !18
  call void @_ZZZZZZZZZZZZZ13run_flash_fwdI23Flash_fwd_kernel_traitsILi256ELi128ELi64ELi8ELb0ELb0EN7cutlass10bfloat16_tE19Flash_kernel_traitsILi256ELi128ELi64ELi8ES2_EELb1ELb1EEvR16Flash_fwd_paramsP11CUstream_stENKUlvE_clEvENKUlvE0_clEvENKUlvE_clEvENKUlvE_clEvENKUlvE_clEvENKUlvE0_clEvENKUlvE_clEvENKUlvE_clEvENKUlvE_clEvENKUlvE_clEvENKUlvE_clEvENKUlvE_clEv(ptr noundef nonnull align 8 dereferenceable(24) %8)
  call void @llvm.lifetime.end.p0(i64 24, ptr nonnull %8) #9
  br label %55

30:                                               ; preds = %26
  call void @llvm.lifetime.start.p0(i64 24, ptr nonnull %9) #9
  store ptr %16, ptr %9, align 8, !tbaa !18
  %31 = getelementptr inbounds %class.anon.133, ptr %9, i64 0, i32 1
  store ptr %18, ptr %31, align 8, !tbaa !18
  %32 = getelementptr inbounds %class.anon.133, ptr %9, i64 0, i32 2
  store ptr %14, ptr %32, align 8, !tbaa !18
  call void @_ZZZZZZZZZZZZZ13run_flash_fwdI23Flash_fwd_kernel_traitsILi256ELi128ELi64ELi8ELb0ELb0EN7cutlass10bfloat16_tE19Flash_kernel_traitsILi256ELi128ELi64ELi8ES2_EELb1ELb1EEvR16Flash_fwd_paramsP11CUstream_stENKUlvE_clEvENKUlvE0_clEvENKUlvE_clEvENKUlvE_clEvENKUlvE_clEvENKUlvE0_clEvENKUlvE_clEvENKUlvE_clEvENKUlvE_clEvENKUlvE_clEvENKUlvE_clEvENKUlvE0_clEv(ptr noundef nonnull align 8 dereferenceable(24) %9)
  call void @llvm.lifetime.end.p0(i64 24, ptr nonnull %9) #9
  br label %55

33:                                               ; preds = %25
  br i1 %24, label %34, label %37

34:                                               ; preds = %33
  call void @llvm.lifetime.start.p0(i64 24, ptr nonnull %6) #9
  store ptr %16, ptr %6, align 8, !tbaa !18
  %35 = getelementptr inbounds %class.anon.135, ptr %6, i64 0, i32 1
  store ptr %18, ptr %35, align 8, !tbaa !18
  %36 = getelementptr inbounds %class.anon.135, ptr %6, i64 0, i32 2
  store ptr %14, ptr %36, align 8, !tbaa !18
  call void @_ZZZZZZZZZZZZZ13run_flash_fwdI23Flash_fwd_kernel_traitsILi256ELi128ELi64ELi8ELb0ELb0EN7cutlass10bfloat16_tE19Flash_kernel_traitsILi256ELi128ELi64ELi8ES2_EELb1ELb1EEvR16Flash_fwd_paramsP11CUstream_stENKUlvE_clEvENKUlvE0_clEvENKUlvE_clEvENKUlvE_clEvENKUlvE_clEvENKUlvE0_clEvENKUlvE_clEvENKUlvE_clEvENKUlvE_clEvENKUlvE0_clEvENKUlvE_clEvENKUlvE_clEv(ptr noundef nonnull align 8 dereferenceable(24) %6)
  call void @llvm.lifetime.end.p0(i64 24, ptr nonnull %6) #9
  br label %55

37:                                               ; preds = %33
  call void @llvm.lifetime.start.p0(i64 24, ptr nonnull %7) #9
  store ptr %16, ptr %7, align 8, !tbaa !18
  %38 = getelementptr inbounds %class.anon.136, ptr %7, i64 0, i32 1
  store ptr %18, ptr %38, align 8, !tbaa !18
  %39 = getelementptr inbounds %class.anon.136, ptr %7, i64 0, i32 2
  store ptr %14, ptr %39, align 8, !tbaa !18
  call void @_ZZZZZZZZZZZZZ13run_flash_fwdI23Flash_fwd_kernel_traitsILi256ELi128ELi64ELi8ELb0ELb0EN7cutlass10bfloat16_tE19Flash_kernel_traitsILi256ELi128ELi64ELi8ES2_EELb1ELb1EEvR16Flash_fwd_paramsP11CUstream_stENKUlvE_clEvENKUlvE0_clEvENKUlvE_clEvENKUlvE_clEvENKUlvE_clEvENKUlvE0_clEvENKUlvE_clEvENKUlvE_clEvENKUlvE_clEvENKUlvE0_clEvENKUlvE_clEvENKUlvE0_clEv(ptr noundef nonnull align 8 dereferenceable(24) %7)
  call void @llvm.lifetime.end.p0(i64 24, ptr nonnull %7) #9
  br label %55

40:                                               ; preds = %1
  br i1 %21, label %48, label %41

41:                                               ; preds = %40
  br i1 %24, label %42, label %45

42:                                               ; preds = %41
  call void @llvm.lifetime.start.p0(i64 24, ptr nonnull %4) #9
  store ptr %16, ptr %4, align 8, !tbaa !18
  %43 = getelementptr inbounds %class.anon.141, ptr %4, i64 0, i32 1
  store ptr %18, ptr %43, align 8, !tbaa !18
  %44 = getelementptr inbounds %class.anon.141, ptr %4, i64 0, i32 2
  store ptr %14, ptr %44, align 8, !tbaa !18
  call void @_ZZZZZZZZZZZZZ13run_flash_fwdI23Flash_fwd_kernel_traitsILi256ELi128ELi64ELi8ELb0ELb0EN7cutlass10bfloat16_tE19Flash_kernel_traitsILi256ELi128ELi64ELi8ES2_EELb1ELb1EEvR16Flash_fwd_paramsP11CUstream_stENKUlvE_clEvENKUlvE0_clEvENKUlvE_clEvENKUlvE_clEvENKUlvE_clEvENKUlvE0_clEvENKUlvE_clEvENKUlvE0_clEvENKUlvE_clEvENKUlvE_clEvENKUlvE_clEvENKUlvE_clEv(ptr noundef nonnull align 8 dereferenceable(24) %4)
  call void @llvm.lifetime.end.p0(i64 24, ptr nonnull %4) #9
  br label %55

45:                                               ; preds = %41
  call void @llvm.lifetime.start.p0(i64 24, ptr nonnull %5) #9
  store ptr %16, ptr %5, align 8, !tbaa !18
  %46 = getelementptr inbounds %class.anon.142, ptr %5, i64 0, i32 1
  store ptr %18, ptr %46, align 8, !tbaa !18
  %47 = getelementptr inbounds %class.anon.142, ptr %5, i64 0, i32 2
  store ptr %14, ptr %47, align 8, !tbaa !18
  call void @_ZZZZZZZZZZZZZ13run_flash_fwdI23Flash_fwd_kernel_traitsILi256ELi128ELi64ELi8ELb0ELb0EN7cutlass10bfloat16_tE19Flash_kernel_traitsILi256ELi128ELi64ELi8ES2_EELb1ELb1EEvR16Flash_fwd_paramsP11CUstream_stENKUlvE_clEvENKUlvE0_clEvENKUlvE_clEvENKUlvE_clEvENKUlvE_clEvENKUlvE0_clEvENKUlvE_clEvENKUlvE0_clEvENKUlvE_clEvENKUlvE_clEvENKUlvE_clEvENKUlvE0_clEv(ptr noundef nonnull align 8 dereferenceable(24) %5)
  call void @llvm.lifetime.end.p0(i64 24, ptr nonnull %5) #9
  br label %55

48:                                               ; preds = %40
  br i1 %24, label %49, label %52

49:                                               ; preds = %48
  call void @llvm.lifetime.start.p0(i64 24, ptr nonnull %2) #9
  store ptr %16, ptr %2, align 8, !tbaa !18
  %50 = getelementptr inbounds %class.anon.144, ptr %2, i64 0, i32 1
  store ptr %18, ptr %50, align 8, !tbaa !18
  %51 = getelementptr inbounds %class.anon.144, ptr %2, i64 0, i32 2
  store ptr %14, ptr %51, align 8, !tbaa !18
  call void @_ZZZZZZZZZZZZZ13run_flash_fwdI23Flash_fwd_kernel_traitsILi256ELi128ELi64ELi8ELb0ELb0EN7cutlass10bfloat16_tE19Flash_kernel_traitsILi256ELi128ELi64ELi8ES2_EELb1ELb1EEvR16Flash_fwd_paramsP11CUstream_stENKUlvE_clEvENKUlvE0_clEvENKUlvE_clEvENKUlvE_clEvENKUlvE_clEvENKUlvE0_clEvENKUlvE_clEvENKUlvE0_clEvENKUlvE_clEvENKUlvE0_clEvENKUlvE_clEvENKUlvE_clEv(ptr noundef nonnull align 8 dereferenceable(24) %2)
  call void @llvm.lifetime.end.p0(i64 24, ptr nonnull %2) #9
  br label %55

52:                                               ; preds = %48
  call void @llvm.lifetime.start.p0(i64 24, ptr nonnull %3) #9
  store ptr %16, ptr %3, align 8, !tbaa !18
  %53 = getelementptr inbounds %class.anon.145, ptr %3, i64 0, i32 1
  store ptr %18, ptr %53, align 8, !tbaa !18
  %54 = getelementptr inbounds %class.anon.145, ptr %3, i64 0, i32 2
  store ptr %14, ptr %54, align 8, !tbaa !18
  call void @_ZZZZZZZZZZZZZ13run_flash_fwdI23Flash_fwd_kernel_traitsILi256ELi128ELi64ELi8ELb0ELb0EN7cutlass10bfloat16_tE19Flash_kernel_traitsILi256ELi128ELi64ELi8ES2_EELb1ELb1EEvR16Flash_fwd_paramsP11CUstream_stENKUlvE_clEvENKUlvE0_clEvENKUlvE_clEvENKUlvE_clEvENKUlvE_clEvENKUlvE0_clEvENKUlvE_clEvENKUlvE0_clEvENKUlvE_clEvENKUlvE0_clEvENKUlvE_clEvENKUlvE0_clEv(ptr noundef nonnull align 8 dereferenceable(24) %3)
  call void @llvm.lifetime.end.p0(i64 24, ptr nonnull %3) #9
  br label %55

55:                                               ; preds = %52, %49, %45, %42, %37, %34, %30, %27
  ret void
}

; Function Attrs: inlinehint mustprogress uwtable
define linkonce_odr dso_local void @_ZZZZZZZZZZZZZ13run_flash_fwdI23Flash_fwd_kernel_traitsILi256ELi128ELi64ELi8ELb0ELb0EN7cutlass10bfloat16_tE19Flash_kernel_traitsILi256ELi128ELi64ELi8ES2_EELb1ELb1EEvR16Flash_fwd_paramsP11CUstream_stENKUlvE_clEvENKUlvE0_clEvENKUlvE_clEvENKUlvE_clEvENKUlvE_clEvENKUlvE0_clEvENKUlvE_clEvENKUlvE_clEvENKUlvE_clEvENKUlvE_clEvENKUlvE_clEvENKUlvE_clEv(ptr noundef nonnull align 8 dereferenceable(24) %0) local_unnamed_addr #7 comdat align 2 {
  %2 = alloca %struct.dim3, align 8
  %3 = alloca %struct.dim3, align 8
  %4 = alloca i64, align 8
  %5 = alloca ptr, align 8
  %6 = alloca ptr, align 16
  %7 = alloca %struct.Flash_fwd_params, align 8
  %8 = alloca %struct.Flash_fwd_params, align 8
  %9 = tail call noundef i32 @cudaFuncSetAttribute(ptr noundef nonnull @_Z31__device_stub__flash_fwd_kernelI23Flash_fwd_kernel_traitsILi256ELi128ELi64ELi8ELb0ELb0EN7cutlass10bfloat16_tE19Flash_kernel_traitsILi256ELi128ELi64ELi8ES2_EELb0ELb1ELb0ELb1ELb0ELb1ELb1ELb0EEv16Flash_fwd_params, i32 noundef 8, i32 noundef 131072)
  tail call void @_ZN3c104cuda29c10_cuda_check_implementationEiPKcS2_ib(i32 noundef %9, ptr noundef nonnull @.str, ptr noundef nonnull @__func__._ZZZZZZZZZZZZZ13run_flash_fwdI23Flash_fwd_kernel_traitsILi256ELi128ELi64ELi8ELb0ELb0EN7cutlass10bfloat16_tE19Flash_kernel_traitsILi256ELi128ELi64ELi8ES2_EELb1ELb1EEvR16Flash_fwd_paramsP11CUstream_stENKUlvE_clEvENKUlvE_clEvENKUlvE_clEvENKUlvE_clEvENKUlvE_clEvENKUlvE_clEvENKUlvE_clEvENKUlvE_clEvENKUlvE_clEvENKUlvE_clEvENKUlvE_clEvENKUlvE_clEv, i32 noundef 82, i1 noundef zeroext true)
  %10 = load ptr, ptr %0, align 8, !tbaa !116
  %11 = load i64, ptr %10, align 4, !tbaa.struct !42
  %12 = getelementptr inbounds i8, ptr %10, i64 8
  %13 = load i32, ptr %12, align 4, !tbaa.struct !43
  %14 = getelementptr inbounds %class.anon.132, ptr %0, i64 0, i32 1
  %15 = load ptr, ptr %14, align 8, !tbaa !118
  %16 = load ptr, ptr %15, align 8, !tbaa !18
  %17 = tail call i32 @__cudaPushCallConfiguration(i64 %11, i32 %13, i64 4294967552, i32 1, i64 noundef 131072, ptr noundef %16)
  %18 = icmp eq i32 %17, 0
  br i1 %18, label %19, label %32

19:                                               ; preds = %1
  %20 = getelementptr inbounds %class.anon.132, ptr %0, i64 0, i32 2
  %21 = load ptr, ptr %20, align 8, !tbaa !119
  call void @llvm.memcpy.p0.p0.i64(ptr noundef nonnull align 8 dereferenceable(464) %8, ptr noundef nonnull align 8 dereferenceable(464) %21, i64 464, i1 false)
  call void @llvm.lifetime.start.p0(i64 464, ptr nonnull %7)
  call void @llvm.lifetime.start.p0(i64 12, ptr nonnull %2)
  call void @llvm.lifetime.start.p0(i64 12, ptr nonnull %3)
  call void @llvm.lifetime.start.p0(i64 8, ptr nonnull %4)
  call void @llvm.lifetime.start.p0(i64 8, ptr nonnull %5)
  call void @llvm.lifetime.start.p0(i64 8, ptr nonnull %6)
  call void @llvm.memcpy.p0.p0.i64(ptr noundef nonnull align 8 dereferenceable(464) %7, ptr noundef nonnull align 8 dereferenceable(464) %8, i64 464, i1 false)
  store ptr %7, ptr %6, align 16
  %22 = call i32 @__cudaPopCallConfiguration(ptr nonnull %2, ptr nonnull %3, ptr nonnull %4, ptr nonnull %5)
  %23 = load i64, ptr %4, align 8
  %24 = load ptr, ptr %5, align 8
  %25 = load i64, ptr %2, align 8
  %26 = getelementptr inbounds i8, ptr %2, i64 8
  %27 = load i32, ptr %26, align 8
  %28 = load i64, ptr %3, align 8
  %29 = getelementptr inbounds i8, ptr %3, i64 8
  %30 = load i32, ptr %29, align 8
  %31 = call noundef i32 @cudaLaunchKernel(ptr noundef nonnull @_Z31__device_stub__flash_fwd_kernelI23Flash_fwd_kernel_traitsILi256ELi128ELi64ELi8ELb0ELb0EN7cutlass10bfloat16_tE19Flash_kernel_traitsILi256ELi128ELi64ELi8ES2_EELb0ELb1ELb0ELb1ELb0ELb1ELb1ELb0EEv16Flash_fwd_params, i64 %25, i32 %27, i64 %28, i32 %30, ptr noundef nonnull %6, i64 noundef %23, ptr noundef %24)
  call void @llvm.lifetime.end.p0(i64 464, ptr nonnull %7)
  call void @llvm.lifetime.end.p0(i64 12, ptr nonnull %2)
  call void @llvm.lifetime.end.p0(i64 12, ptr nonnull %3)
  call void @llvm.lifetime.end.p0(i64 8, ptr nonnull %4)
  call void @llvm.lifetime.end.p0(i64 8, ptr nonnull %5)
  call void @llvm.lifetime.end.p0(i64 8, ptr nonnull %6)
  br label %32

32:                                               ; preds = %1, %19
  %33 = call i32 @cudaGetLastError()
  call void @_ZN3c104cuda29c10_cuda_check_implementationEiPKcS2_ib(i32 noundef %33, ptr noundef nonnull @.str, ptr noundef nonnull @__func__._ZZZZZZZZZZZZZ13run_flash_fwdI23Flash_fwd_kernel_traitsILi256ELi128ELi64ELi8ELb0ELb0EN7cutlass10bfloat16_tE19Flash_kernel_traitsILi256ELi128ELi64ELi8ES2_EELb1ELb1EEvR16Flash_fwd_paramsP11CUstream_stENKUlvE_clEvENKUlvE_clEvENKUlvE_clEvENKUlvE_clEvENKUlvE_clEvENKUlvE_clEvENKUlvE_clEvENKUlvE_clEvENKUlvE_clEvENKUlvE_clEvENKUlvE_clEvENKUlvE_clEv, i32 noundef 89, i1 noundef zeroext true)
  ret void
}

; Function Attrs: inlinehint mustprogress uwtable
define linkonce_odr dso_local void @_ZZZZZZZZZZZZZ13run_flash_fwdI23Flash_fwd_kernel_traitsILi256ELi128ELi64ELi8ELb0ELb0EN7cutlass10bfloat16_tE19Flash_kernel_traitsILi256ELi128ELi64ELi8ES2_EELb1ELb1EEvR16Flash_fwd_paramsP11CUstream_stENKUlvE_clEvENKUlvE0_clEvENKUlvE_clEvENKUlvE_clEvENKUlvE_clEvENKUlvE0_clEvENKUlvE_clEvENKUlvE_clEvENKUlvE_clEvENKUlvE_clEvENKUlvE_clEvENKUlvE0_clEv(ptr noundef nonnull align 8 dereferenceable(24) %0) local_unnamed_addr #7 comdat align 2 {
  %2 = alloca %struct.dim3, align 8
  %3 = alloca %struct.dim3, align 8
  %4 = alloca i64, align 8
  %5 = alloca ptr, align 8
  %6 = alloca ptr, align 16
  %7 = alloca %struct.Flash_fwd_params, align 8
  %8 = alloca %struct.Flash_fwd_params, align 8
  %9 = tail call noundef i32 @cudaFuncSetAttribute(ptr noundef nonnull @_Z31__device_stub__flash_fwd_kernelI23Flash_fwd_kernel_traitsILi256ELi128ELi64ELi8ELb0ELb0EN7cutlass10bfloat16_tE19Flash_kernel_traitsILi256ELi128ELi64ELi8ES2_EELb1ELb1ELb0ELb1ELb0ELb1ELb0ELb1EEv16Flash_fwd_params, i32 noundef 8, i32 noundef 131072)
  tail call void @_ZN3c104cuda29c10_cuda_check_implementationEiPKcS2_ib(i32 noundef %9, ptr noundef nonnull @.str, ptr noundef nonnull @__func__._ZZZZZZZZZZZZZ13run_flash_fwdI23Flash_fwd_kernel_traitsILi256ELi128ELi64ELi8ELb0ELb0EN7cutlass10bfloat16_tE19Flash_kernel_traitsILi256ELi128ELi64ELi8ES2_EELb1ELb1EEvR16Flash_fwd_paramsP11CUstream_stENKUlvE_clEvENKUlvE_clEvENKUlvE_clEvENKUlvE_clEvENKUlvE_clEvENKUlvE_clEvENKUlvE_clEvENKUlvE_clEvENKUlvE_clEvENKUlvE_clEvENKUlvE_clEvENKUlvE_clEv, i32 noundef 82, i1 noundef zeroext true)
  %10 = load ptr, ptr %0, align 8, !tbaa !120
  %11 = load i64, ptr %10, align 4, !tbaa.struct !42
  %12 = getelementptr inbounds i8, ptr %10, i64 8
  %13 = load i32, ptr %12, align 4, !tbaa.struct !43
  %14 = getelementptr inbounds %class.anon.133, ptr %0, i64 0, i32 1
  %15 = load ptr, ptr %14, align 8, !tbaa !122
  %16 = load ptr, ptr %15, align 8, !tbaa !18
  %17 = tail call i32 @__cudaPushCallConfiguration(i64 %11, i32 %13, i64 4294967552, i32 1, i64 noundef 131072, ptr noundef %16)
  %18 = icmp eq i32 %17, 0
  br i1 %18, label %19, label %32

19:                                               ; preds = %1
  %20 = getelementptr inbounds %class.anon.133, ptr %0, i64 0, i32 2
  %21 = load ptr, ptr %20, align 8, !tbaa !123
  call void @llvm.memcpy.p0.p0.i64(ptr noundef nonnull align 8 dereferenceable(464) %8, ptr noundef nonnull align 8 dereferenceable(464) %21, i64 464, i1 false)
  call void @llvm.lifetime.start.p0(i64 464, ptr nonnull %7)
  call void @llvm.lifetime.start.p0(i64 12, ptr nonnull %2)
  call void @llvm.lifetime.start.p0(i64 12, ptr nonnull %3)
  call void @llvm.lifetime.start.p0(i64 8, ptr nonnull %4)
  call void @llvm.lifetime.start.p0(i64 8, ptr nonnull %5)
  call void @llvm.lifetime.start.p0(i64 8, ptr nonnull %6)
  call void @llvm.memcpy.p0.p0.i64(ptr noundef nonnull align 8 dereferenceable(464) %7, ptr noundef nonnull align 8 dereferenceable(464) %8, i64 464, i1 false)
  store ptr %7, ptr %6, align 16
  %22 = call i32 @__cudaPopCallConfiguration(ptr nonnull %2, ptr nonnull %3, ptr nonnull %4, ptr nonnull %5)
  %23 = load i64, ptr %4, align 8
  %24 = load ptr, ptr %5, align 8
  %25 = load i64, ptr %2, align 8
  %26 = getelementptr inbounds i8, ptr %2, i64 8
  %27 = load i32, ptr %26, align 8
  %28 = load i64, ptr %3, align 8
  %29 = getelementptr inbounds i8, ptr %3, i64 8
  %30 = load i32, ptr %29, align 8
  %31 = call noundef i32 @cudaLaunchKernel(ptr noundef nonnull @_Z31__device_stub__flash_fwd_kernelI23Flash_fwd_kernel_traitsILi256ELi128ELi64ELi8ELb0ELb0EN7cutlass10bfloat16_tE19Flash_kernel_traitsILi256ELi128ELi64ELi8ES2_EELb1ELb1ELb0ELb1ELb0ELb1ELb0ELb1EEv16Flash_fwd_params, i64 %25, i32 %27, i64 %28, i32 %30, ptr noundef nonnull %6, i64 noundef %23, ptr noundef %24)
  call void @llvm.lifetime.end.p0(i64 464, ptr nonnull %7)
  call void @llvm.lifetime.end.p0(i64 12, ptr nonnull %2)
  call void @llvm.lifetime.end.p0(i64 12, ptr nonnull %3)
  call void @llvm.lifetime.end.p0(i64 8, ptr nonnull %4)
  call void @llvm.lifetime.end.p0(i64 8, ptr nonnull %5)
  call void @llvm.lifetime.end.p0(i64 8, ptr nonnull %6)
  br label %32

32:                                               ; preds = %1, %19
  %33 = call i32 @cudaGetLastError()
  call void @_ZN3c104cuda29c10_cuda_check_implementationEiPKcS2_ib(i32 noundef %33, ptr noundef nonnull @.str, ptr noundef nonnull @__func__._ZZZZZZZZZZZZZ13run_flash_fwdI23Flash_fwd_kernel_traitsILi256ELi128ELi64ELi8ELb0ELb0EN7cutlass10bfloat16_tE19Flash_kernel_traitsILi256ELi128ELi64ELi8ES2_EELb1ELb1EEvR16Flash_fwd_paramsP11CUstream_stENKUlvE_clEvENKUlvE_clEvENKUlvE_clEvENKUlvE_clEvENKUlvE_clEvENKUlvE_clEvENKUlvE_clEvENKUlvE_clEvENKUlvE_clEvENKUlvE_clEvENKUlvE_clEvENKUlvE_clEv, i32 noundef 89, i1 noundef zeroext true)
  ret void
}

; Function Attrs: inlinehint mustprogress uwtable
define linkonce_odr dso_local void @_ZZZZZZZZZZZZZ13run_flash_fwdI23Flash_fwd_kernel_traitsILi256ELi128ELi64ELi8ELb0ELb0EN7cutlass10bfloat16_tE19Flash_kernel_traitsILi256ELi128ELi64ELi8ES2_EELb1ELb1EEvR16Flash_fwd_paramsP11CUstream_stENKUlvE_clEvENKUlvE0_clEvENKUlvE_clEvENKUlvE_clEvENKUlvE_clEvENKUlvE0_clEvENKUlvE_clEvENKUlvE_clEvENKUlvE_clEvENKUlvE0_clEvENKUlvE_clEvENKUlvE_clEv(ptr noundef nonnull align 8 dereferenceable(24) %0) local_unnamed_addr #7 comdat align 2 {
  %2 = alloca %struct.dim3, align 8
  %3 = alloca %struct.dim3, align 8
  %4 = alloca i64, align 8
  %5 = alloca ptr, align 8
  %6 = alloca ptr, align 16
  %7 = alloca %struct.Flash_fwd_params, align 8
  %8 = alloca %struct.Flash_fwd_params, align 8
  %9 = tail call noundef i32 @cudaFuncSetAttribute(ptr noundef nonnull @_Z31__device_stub__flash_fwd_kernelI23Flash_fwd_kernel_traitsILi256ELi128ELi64ELi8ELb0ELb0EN7cutlass10bfloat16_tE19Flash_kernel_traitsILi256ELi128ELi64ELi8ES2_EELb0ELb1ELb0ELb0ELb0ELb1ELb1ELb0EEv16Flash_fwd_params, i32 noundef 8, i32 noundef 131072)
  tail call void @_ZN3c104cuda29c10_cuda_check_implementationEiPKcS2_ib(i32 noundef %9, ptr noundef nonnull @.str, ptr noundef nonnull @__func__._ZZZZZZZZZZZZZ13run_flash_fwdI23Flash_fwd_kernel_traitsILi256ELi128ELi64ELi8ELb0ELb0EN7cutlass10bfloat16_tE19Flash_kernel_traitsILi256ELi128ELi64ELi8ES2_EELb1ELb1EEvR16Flash_fwd_paramsP11CUstream_stENKUlvE_clEvENKUlvE_clEvENKUlvE_clEvENKUlvE_clEvENKUlvE_clEvENKUlvE_clEvENKUlvE_clEvENKUlvE_clEvENKUlvE_clEvENKUlvE_clEvENKUlvE_clEvENKUlvE_clEv, i32 noundef 82, i1 noundef zeroext true)
  %10 = load ptr, ptr %0, align 8, !tbaa !124
  %11 = load i64, ptr %10, align 4, !tbaa.struct !42
  %12 = getelementptr inbounds i8, ptr %10, i64 8
  %13 = load i32, ptr %12, align 4, !tbaa.struct !43
  %14 = getelementptr inbounds %class.anon.135, ptr %0, i64 0, i32 1
  %15 = load ptr, ptr %14, align 8, !tbaa !126
  %16 = load ptr, ptr %15, align 8, !tbaa !18
  %17 = tail call i32 @__cudaPushCallConfiguration(i64 %11, i32 %13, i64 4294967552, i32 1, i64 noundef 131072, ptr noundef %16)
  %18 = icmp eq i32 %17, 0
  br i1 %18, label %19, label %32

19:                                               ; preds = %1
  %20 = getelementptr inbounds %class.anon.135, ptr %0, i64 0, i32 2
  %21 = load ptr, ptr %20, align 8, !tbaa !127
  call void @llvm.memcpy.p0.p0.i64(ptr noundef nonnull align 8 dereferenceable(464) %8, ptr noundef nonnull align 8 dereferenceable(464) %21, i64 464, i1 false)
  call void @llvm.lifetime.start.p0(i64 464, ptr nonnull %7)
  call void @llvm.lifetime.start.p0(i64 12, ptr nonnull %2)
  call void @llvm.lifetime.start.p0(i64 12, ptr nonnull %3)
  call void @llvm.lifetime.start.p0(i64 8, ptr nonnull %4)
  call void @llvm.lifetime.start.p0(i64 8, ptr nonnull %5)
  call void @llvm.lifetime.start.p0(i64 8, ptr nonnull %6)
  call void @llvm.memcpy.p0.p0.i64(ptr noundef nonnull align 8 dereferenceable(464) %7, ptr noundef nonnull align 8 dereferenceable(464) %8, i64 464, i1 false)
  store ptr %7, ptr %6, align 16
  %22 = call i32 @__cudaPopCallConfiguration(ptr nonnull %2, ptr nonnull %3, ptr nonnull %4, ptr nonnull %5)
  %23 = load i64, ptr %4, align 8
  %24 = load ptr, ptr %5, align 8
  %25 = load i64, ptr %2, align 8
  %26 = getelementptr inbounds i8, ptr %2, i64 8
  %27 = load i32, ptr %26, align 8
  %28 = load i64, ptr %3, align 8
  %29 = getelementptr inbounds i8, ptr %3, i64 8
  %30 = load i32, ptr %29, align 8
  %31 = call noundef i32 @cudaLaunchKernel(ptr noundef nonnull @_Z31__device_stub__flash_fwd_kernelI23Flash_fwd_kernel_traitsILi256ELi128ELi64ELi8ELb0ELb0EN7cutlass10bfloat16_tE19Flash_kernel_traitsILi256ELi128ELi64ELi8ES2_EELb0ELb1ELb0ELb0ELb0ELb1ELb1ELb0EEv16Flash_fwd_params, i64 %25, i32 %27, i64 %28, i32 %30, ptr noundef nonnull %6, i64 noundef %23, ptr noundef %24)
  call void @llvm.lifetime.end.p0(i64 464, ptr nonnull %7)
  call void @llvm.lifetime.end.p0(i64 12, ptr nonnull %2)
  call void @llvm.lifetime.end.p0(i64 12, ptr nonnull %3)
  call void @llvm.lifetime.end.p0(i64 8, ptr nonnull %4)
  call void @llvm.lifetime.end.p0(i64 8, ptr nonnull %5)
  call void @llvm.lifetime.end.p0(i64 8, ptr nonnull %6)
  br label %32

32:                                               ; preds = %1, %19
  %33 = call i32 @cudaGetLastError()
  call void @_ZN3c104cuda29c10_cuda_check_implementationEiPKcS2_ib(i32 noundef %33, ptr noundef nonnull @.str, ptr noundef nonnull @__func__._ZZZZZZZZZZZZZ13run_flash_fwdI23Flash_fwd_kernel_traitsILi256ELi128ELi64ELi8ELb0ELb0EN7cutlass10bfloat16_tE19Flash_kernel_traitsILi256ELi128ELi64ELi8ES2_EELb1ELb1EEvR16Flash_fwd_paramsP11CUstream_stENKUlvE_clEvENKUlvE_clEvENKUlvE_clEvENKUlvE_clEvENKUlvE_clEvENKUlvE_clEvENKUlvE_clEvENKUlvE_clEvENKUlvE_clEvENKUlvE_clEvENKUlvE_clEvENKUlvE_clEv, i32 noundef 89, i1 noundef zeroext true)
  ret void
}

; Function Attrs: inlinehint mustprogress uwtable
define linkonce_odr dso_local void @_ZZZZZZZZZZZZZ13run_flash_fwdI23Flash_fwd_kernel_traitsILi256ELi128ELi64ELi8ELb0ELb0EN7cutlass10bfloat16_tE19Flash_kernel_traitsILi256ELi128ELi64ELi8ES2_EELb1ELb1EEvR16Flash_fwd_paramsP11CUstream_stENKUlvE_clEvENKUlvE0_clEvENKUlvE_clEvENKUlvE_clEvENKUlvE_clEvENKUlvE0_clEvENKUlvE_clEvENKUlvE_clEvENKUlvE_clEvENKUlvE0_clEvENKUlvE_clEvENKUlvE0_clEv(ptr noundef nonnull align 8 dereferenceable(24) %0) local_unnamed_addr #7 comdat align 2 {
  %2 = alloca %struct.dim3, align 8
  %3 = alloca %struct.dim3, align 8
  %4 = alloca i64, align 8
  %5 = alloca ptr, align 8
  %6 = alloca ptr, align 16
  %7 = alloca %struct.Flash_fwd_params, align 8
  %8 = alloca %struct.Flash_fwd_params, align 8
  %9 = tail call noundef i32 @cudaFuncSetAttribute(ptr noundef nonnull @_Z31__device_stub__flash_fwd_kernelI23Flash_fwd_kernel_traitsILi256ELi128ELi64ELi8ELb0ELb0EN7cutlass10bfloat16_tE19Flash_kernel_traitsILi256ELi128ELi64ELi8ES2_EELb1ELb1ELb0ELb0ELb0ELb1ELb0ELb1EEv16Flash_fwd_params, i32 noundef 8, i32 noundef 131072)
  tail call void @_ZN3c104cuda29c10_cuda_check_implementationEiPKcS2_ib(i32 noundef %9, ptr noundef nonnull @.str, ptr noundef nonnull @__func__._ZZZZZZZZZZZZZ13run_flash_fwdI23Flash_fwd_kernel_traitsILi256ELi128ELi64ELi8ELb0ELb0EN7cutlass10bfloat16_tE19Flash_kernel_traitsILi256ELi128ELi64ELi8ES2_EELb1ELb1EEvR16Flash_fwd_paramsP11CUstream_stENKUlvE_clEvENKUlvE_clEvENKUlvE_clEvENKUlvE_clEvENKUlvE_clEvENKUlvE_clEvENKUlvE_clEvENKUlvE_clEvENKUlvE_clEvENKUlvE_clEvENKUlvE_clEvENKUlvE_clEv, i32 noundef 82, i1 noundef zeroext true)
  %10 = load ptr, ptr %0, align 8, !tbaa !128
  %11 = load i64, ptr %10, align 4, !tbaa.struct !42
  %12 = getelementptr inbounds i8, ptr %10, i64 8
  %13 = load i32, ptr %12, align 4, !tbaa.struct !43
  %14 = getelementptr inbounds %class.anon.136, ptr %0, i64 0, i32 1
  %15 = load ptr, ptr %14, align 8, !tbaa !130
  %16 = load ptr, ptr %15, align 8, !tbaa !18
  %17 = tail call i32 @__cudaPushCallConfiguration(i64 %11, i32 %13, i64 4294967552, i32 1, i64 noundef 131072, ptr noundef %16)
  %18 = icmp eq i32 %17, 0
  br i1 %18, label %19, label %32

19:                                               ; preds = %1
  %20 = getelementptr inbounds %class.anon.136, ptr %0, i64 0, i32 2
  %21 = load ptr, ptr %20, align 8, !tbaa !131
  call void @llvm.memcpy.p0.p0.i64(ptr noundef nonnull align 8 dereferenceable(464) %8, ptr noundef nonnull align 8 dereferenceable(464) %21, i64 464, i1 false)
  call void @llvm.lifetime.start.p0(i64 464, ptr nonnull %7)
  call void @llvm.lifetime.start.p0(i64 12, ptr nonnull %2)
  call void @llvm.lifetime.start.p0(i64 12, ptr nonnull %3)
  call void @llvm.lifetime.start.p0(i64 8, ptr nonnull %4)
  call void @llvm.lifetime.start.p0(i64 8, ptr nonnull %5)
  call void @llvm.lifetime.start.p0(i64 8, ptr nonnull %6)
  call void @llvm.memcpy.p0.p0.i64(ptr noundef nonnull align 8 dereferenceable(464) %7, ptr noundef nonnull align 8 dereferenceable(464) %8, i64 464, i1 false)
  store ptr %7, ptr %6, align 16
  %22 = call i32 @__cudaPopCallConfiguration(ptr nonnull %2, ptr nonnull %3, ptr nonnull %4, ptr nonnull %5)
  %23 = load i64, ptr %4, align 8
  %24 = load ptr, ptr %5, align 8
  %25 = load i64, ptr %2, align 8
  %26 = getelementptr inbounds i8, ptr %2, i64 8
  %27 = load i32, ptr %26, align 8
  %28 = load i64, ptr %3, align 8
  %29 = getelementptr inbounds i8, ptr %3, i64 8
  %30 = load i32, ptr %29, align 8
  %31 = call noundef i32 @cudaLaunchKernel(ptr noundef nonnull @_Z31__device_stub__flash_fwd_kernelI23Flash_fwd_kernel_traitsILi256ELi128ELi64ELi8ELb0ELb0EN7cutlass10bfloat16_tE19Flash_kernel_traitsILi256ELi128ELi64ELi8ES2_EELb1ELb1ELb0ELb0ELb0ELb1ELb0ELb1EEv16Flash_fwd_params, i64 %25, i32 %27, i64 %28, i32 %30, ptr noundef nonnull %6, i64 noundef %23, ptr noundef %24)
  call void @llvm.lifetime.end.p0(i64 464, ptr nonnull %7)
  call void @llvm.lifetime.end.p0(i64 12, ptr nonnull %2)
  call void @llvm.lifetime.end.p0(i64 12, ptr nonnull %3)
  call void @llvm.lifetime.end.p0(i64 8, ptr nonnull %4)
  call void @llvm.lifetime.end.p0(i64 8, ptr nonnull %5)
  call void @llvm.lifetime.end.p0(i64 8, ptr nonnull %6)
  br label %32

32:                                               ; preds = %1, %19
  %33 = call i32 @cudaGetLastError()
  call void @_ZN3c104cuda29c10_cuda_check_implementationEiPKcS2_ib(i32 noundef %33, ptr noundef nonnull @.str, ptr noundef nonnull @__func__._ZZZZZZZZZZZZZ13run_flash_fwdI23Flash_fwd_kernel_traitsILi256ELi128ELi64ELi8ELb0ELb0EN7cutlass10bfloat16_tE19Flash_kernel_traitsILi256ELi128ELi64ELi8ES2_EELb1ELb1EEvR16Flash_fwd_paramsP11CUstream_stENKUlvE_clEvENKUlvE_clEvENKUlvE_clEvENKUlvE_clEvENKUlvE_clEvENKUlvE_clEvENKUlvE_clEvENKUlvE_clEvENKUlvE_clEvENKUlvE_clEvENKUlvE_clEvENKUlvE_clEv, i32 noundef 89, i1 noundef zeroext true)
  ret void
}

; Function Attrs: inlinehint mustprogress uwtable
define linkonce_odr dso_local void @_ZZZZZZZZZZZZZ13run_flash_fwdI23Flash_fwd_kernel_traitsILi256ELi128ELi64ELi8ELb0ELb0EN7cutlass10bfloat16_tE19Flash_kernel_traitsILi256ELi128ELi64ELi8ES2_EELb1ELb1EEvR16Flash_fwd_paramsP11CUstream_stENKUlvE_clEvENKUlvE0_clEvENKUlvE_clEvENKUlvE_clEvENKUlvE_clEvENKUlvE0_clEvENKUlvE_clEvENKUlvE0_clEvENKUlvE_clEvENKUlvE_clEvENKUlvE_clEvENKUlvE_clEv(ptr noundef nonnull align 8 dereferenceable(24) %0) local_unnamed_addr #7 comdat align 2 {
  %2 = alloca %struct.dim3, align 8
  %3 = alloca %struct.dim3, align 8
  %4 = alloca i64, align 8
  %5 = alloca ptr, align 8
  %6 = alloca ptr, align 16
  %7 = alloca %struct.Flash_fwd_params, align 8
  %8 = alloca %struct.Flash_fwd_params, align 8
  %9 = tail call noundef i32 @cudaFuncSetAttribute(ptr noundef nonnull @_Z31__device_stub__flash_fwd_kernelI23Flash_fwd_kernel_traitsILi256ELi128ELi64ELi8ELb0ELb0EN7cutlass10bfloat16_tE19Flash_kernel_traitsILi256ELi128ELi64ELi8ES2_EELb0ELb1ELb0ELb1ELb0ELb1ELb1ELb0EEv16Flash_fwd_params, i32 noundef 8, i32 noundef 131072)
  tail call void @_ZN3c104cuda29c10_cuda_check_implementationEiPKcS2_ib(i32 noundef %9, ptr noundef nonnull @.str, ptr noundef nonnull @__func__._ZZZZZZZZZZZZZ13run_flash_fwdI23Flash_fwd_kernel_traitsILi256ELi128ELi64ELi8ELb0ELb0EN7cutlass10bfloat16_tE19Flash_kernel_traitsILi256ELi128ELi64ELi8ES2_EELb1ELb1EEvR16Flash_fwd_paramsP11CUstream_stENKUlvE_clEvENKUlvE_clEvENKUlvE_clEvENKUlvE_clEvENKUlvE_clEvENKUlvE_clEvENKUlvE_clEvENKUlvE_clEvENKUlvE_clEvENKUlvE_clEvENKUlvE_clEvENKUlvE_clEv, i32 noundef 82, i1 noundef zeroext true)
  %10 = load ptr, ptr %0, align 8, !tbaa !132
  %11 = load i64, ptr %10, align 4, !tbaa.struct !42
  %12 = getelementptr inbounds i8, ptr %10, i64 8
  %13 = load i32, ptr %12, align 4, !tbaa.struct !43
  %14 = getelementptr inbounds %class.anon.141, ptr %0, i64 0, i32 1
  %15 = load ptr, ptr %14, align 8, !tbaa !134
  %16 = load ptr, ptr %15, align 8, !tbaa !18
  %17 = tail call i32 @__cudaPushCallConfiguration(i64 %11, i32 %13, i64 4294967552, i32 1, i64 noundef 131072, ptr noundef %16)
  %18 = icmp eq i32 %17, 0
  br i1 %18, label %19, label %32

19:                                               ; preds = %1
  %20 = getelementptr inbounds %class.anon.141, ptr %0, i64 0, i32 2
  %21 = load ptr, ptr %20, align 8, !tbaa !135
  call void @llvm.memcpy.p0.p0.i64(ptr noundef nonnull align 8 dereferenceable(464) %8, ptr noundef nonnull align 8 dereferenceable(464) %21, i64 464, i1 false)
  call void @llvm.lifetime.start.p0(i64 464, ptr nonnull %7)
  call void @llvm.lifetime.start.p0(i64 12, ptr nonnull %2)
  call void @llvm.lifetime.start.p0(i64 12, ptr nonnull %3)
  call void @llvm.lifetime.start.p0(i64 8, ptr nonnull %4)
  call void @llvm.lifetime.start.p0(i64 8, ptr nonnull %5)
  call void @llvm.lifetime.start.p0(i64 8, ptr nonnull %6)
  call void @llvm.memcpy.p0.p0.i64(ptr noundef nonnull align 8 dereferenceable(464) %7, ptr noundef nonnull align 8 dereferenceable(464) %8, i64 464, i1 false)
  store ptr %7, ptr %6, align 16
  %22 = call i32 @__cudaPopCallConfiguration(ptr nonnull %2, ptr nonnull %3, ptr nonnull %4, ptr nonnull %5)
  %23 = load i64, ptr %4, align 8
  %24 = load ptr, ptr %5, align 8
  %25 = load i64, ptr %2, align 8
  %26 = getelementptr inbounds i8, ptr %2, i64 8
  %27 = load i32, ptr %26, align 8
  %28 = load i64, ptr %3, align 8
  %29 = getelementptr inbounds i8, ptr %3, i64 8
  %30 = load i32, ptr %29, align 8
  %31 = call noundef i32 @cudaLaunchKernel(ptr noundef nonnull @_Z31__device_stub__flash_fwd_kernelI23Flash_fwd_kernel_traitsILi256ELi128ELi64ELi8ELb0ELb0EN7cutlass10bfloat16_tE19Flash_kernel_traitsILi256ELi128ELi64ELi8ES2_EELb0ELb1ELb0ELb1ELb0ELb1ELb1ELb0EEv16Flash_fwd_params, i64 %25, i32 %27, i64 %28, i32 %30, ptr noundef nonnull %6, i64 noundef %23, ptr noundef %24)
  call void @llvm.lifetime.end.p0(i64 464, ptr nonnull %7)
  call void @llvm.lifetime.end.p0(i64 12, ptr nonnull %2)
  call void @llvm.lifetime.end.p0(i64 12, ptr nonnull %3)
  call void @llvm.lifetime.end.p0(i64 8, ptr nonnull %4)
  call void @llvm.lifetime.end.p0(i64 8, ptr nonnull %5)
  call void @llvm.lifetime.end.p0(i64 8, ptr nonnull %6)
  br label %32

32:                                               ; preds = %1, %19
  %33 = call i32 @cudaGetLastError()
  call void @_ZN3c104cuda29c10_cuda_check_implementationEiPKcS2_ib(i32 noundef %33, ptr noundef nonnull @.str, ptr noundef nonnull @__func__._ZZZZZZZZZZZZZ13run_flash_fwdI23Flash_fwd_kernel_traitsILi256ELi128ELi64ELi8ELb0ELb0EN7cutlass10bfloat16_tE19Flash_kernel_traitsILi256ELi128ELi64ELi8ES2_EELb1ELb1EEvR16Flash_fwd_paramsP11CUstream_stENKUlvE_clEvENKUlvE_clEvENKUlvE_clEvENKUlvE_clEvENKUlvE_clEvENKUlvE_clEvENKUlvE_clEvENKUlvE_clEvENKUlvE_clEvENKUlvE_clEvENKUlvE_clEvENKUlvE_clEv, i32 noundef 89, i1 noundef zeroext true)
  ret void
}

; Function Attrs: inlinehint mustprogress uwtable
define linkonce_odr dso_local void @_ZZZZZZZZZZZZZ13run_flash_fwdI23Flash_fwd_kernel_traitsILi256ELi128ELi64ELi8ELb0ELb0EN7cutlass10bfloat16_tE19Flash_kernel_traitsILi256ELi128ELi64ELi8ES2_EELb1ELb1EEvR16Flash_fwd_paramsP11CUstream_stENKUlvE_clEvENKUlvE0_clEvENKUlvE_clEvENKUlvE_clEvENKUlvE_clEvENKUlvE0_clEvENKUlvE_clEvENKUlvE0_clEvENKUlvE_clEvENKUlvE_clEvENKUlvE_clEvENKUlvE0_clEv(ptr noundef nonnull align 8 dereferenceable(24) %0) local_unnamed_addr #7 comdat align 2 {
  %2 = alloca %struct.dim3, align 8
  %3 = alloca %struct.dim3, align 8
  %4 = alloca i64, align 8
  %5 = alloca ptr, align 8
  %6 = alloca ptr, align 16
  %7 = alloca %struct.Flash_fwd_params, align 8
  %8 = alloca %struct.Flash_fwd_params, align 8
  %9 = tail call noundef i32 @cudaFuncSetAttribute(ptr noundef nonnull @_Z31__device_stub__flash_fwd_kernelI23Flash_fwd_kernel_traitsILi256ELi128ELi64ELi8ELb0ELb0EN7cutlass10bfloat16_tE19Flash_kernel_traitsILi256ELi128ELi64ELi8ES2_EELb1ELb1ELb0ELb1ELb0ELb1ELb0ELb0EEv16Flash_fwd_params, i32 noundef 8, i32 noundef 131072)
  tail call void @_ZN3c104cuda29c10_cuda_check_implementationEiPKcS2_ib(i32 noundef %9, ptr noundef nonnull @.str, ptr noundef nonnull @__func__._ZZZZZZZZZZZZZ13run_flash_fwdI23Flash_fwd_kernel_traitsILi256ELi128ELi64ELi8ELb0ELb0EN7cutlass10bfloat16_tE19Flash_kernel_traitsILi256ELi128ELi64ELi8ES2_EELb1ELb1EEvR16Flash_fwd_paramsP11CUstream_stENKUlvE_clEvENKUlvE_clEvENKUlvE_clEvENKUlvE_clEvENKUlvE_clEvENKUlvE_clEvENKUlvE_clEvENKUlvE_clEvENKUlvE_clEvENKUlvE_clEvENKUlvE_clEvENKUlvE_clEv, i32 noundef 82, i1 noundef zeroext true)
  %10 = load ptr, ptr %0, align 8, !tbaa !136
  %11 = load i64, ptr %10, align 4, !tbaa.struct !42
  %12 = getelementptr inbounds i8, ptr %10, i64 8
  %13 = load i32, ptr %12, align 4, !tbaa.struct !43
  %14 = getelementptr inbounds %class.anon.142, ptr %0, i64 0, i32 1
  %15 = load ptr, ptr %14, align 8, !tbaa !138
  %16 = load ptr, ptr %15, align 8, !tbaa !18
  %17 = tail call i32 @__cudaPushCallConfiguration(i64 %11, i32 %13, i64 4294967552, i32 1, i64 noundef 131072, ptr noundef %16)
  %18 = icmp eq i32 %17, 0
  br i1 %18, label %19, label %32

19:                                               ; preds = %1
  %20 = getelementptr inbounds %class.anon.142, ptr %0, i64 0, i32 2
  %21 = load ptr, ptr %20, align 8, !tbaa !139
  call void @llvm.memcpy.p0.p0.i64(ptr noundef nonnull align 8 dereferenceable(464) %8, ptr noundef nonnull align 8 dereferenceable(464) %21, i64 464, i1 false)
  call void @llvm.lifetime.start.p0(i64 464, ptr nonnull %7)
  call void @llvm.lifetime.start.p0(i64 12, ptr nonnull %2)
  call void @llvm.lifetime.start.p0(i64 12, ptr nonnull %3)
  call void @llvm.lifetime.start.p0(i64 8, ptr nonnull %4)
  call void @llvm.lifetime.start.p0(i64 8, ptr nonnull %5)
  call void @llvm.lifetime.start.p0(i64 8, ptr nonnull %6)
  call void @llvm.memcpy.p0.p0.i64(ptr noundef nonnull align 8 dereferenceable(464) %7, ptr noundef nonnull align 8 dereferenceable(464) %8, i64 464, i1 false)
  store ptr %7, ptr %6, align 16
  %22 = call i32 @__cudaPopCallConfiguration(ptr nonnull %2, ptr nonnull %3, ptr nonnull %4, ptr nonnull %5)
  %23 = load i64, ptr %4, align 8
  %24 = load ptr, ptr %5, align 8
  %25 = load i64, ptr %2, align 8
  %26 = getelementptr inbounds i8, ptr %2, i64 8
  %27 = load i32, ptr %26, align 8
  %28 = load i64, ptr %3, align 8
  %29 = getelementptr inbounds i8, ptr %3, i64 8
  %30 = load i32, ptr %29, align 8
  %31 = call noundef i32 @cudaLaunchKernel(ptr noundef nonnull @_Z31__device_stub__flash_fwd_kernelI23Flash_fwd_kernel_traitsILi256ELi128ELi64ELi8ELb0ELb0EN7cutlass10bfloat16_tE19Flash_kernel_traitsILi256ELi128ELi64ELi8ES2_EELb1ELb1ELb0ELb1ELb0ELb1ELb0ELb0EEv16Flash_fwd_params, i64 %25, i32 %27, i64 %28, i32 %30, ptr noundef nonnull %6, i64 noundef %23, ptr noundef %24)
  call void @llvm.lifetime.end.p0(i64 464, ptr nonnull %7)
  call void @llvm.lifetime.end.p0(i64 12, ptr nonnull %2)
  call void @llvm.lifetime.end.p0(i64 12, ptr nonnull %3)
  call void @llvm.lifetime.end.p0(i64 8, ptr nonnull %4)
  call void @llvm.lifetime.end.p0(i64 8, ptr nonnull %5)
  call void @llvm.lifetime.end.p0(i64 8, ptr nonnull %6)
  br label %32

32:                                               ; preds = %1, %19
  %33 = call i32 @cudaGetLastError()
  call void @_ZN3c104cuda29c10_cuda_check_implementationEiPKcS2_ib(i32 noundef %33, ptr noundef nonnull @.str, ptr noundef nonnull @__func__._ZZZZZZZZZZZZZ13run_flash_fwdI23Flash_fwd_kernel_traitsILi256ELi128ELi64ELi8ELb0ELb0EN7cutlass10bfloat16_tE19Flash_kernel_traitsILi256ELi128ELi64ELi8ES2_EELb1ELb1EEvR16Flash_fwd_paramsP11CUstream_stENKUlvE_clEvENKUlvE_clEvENKUlvE_clEvENKUlvE_clEvENKUlvE_clEvENKUlvE_clEvENKUlvE_clEvENKUlvE_clEvENKUlvE_clEvENKUlvE_clEvENKUlvE_clEvENKUlvE_clEv, i32 noundef 89, i1 noundef zeroext true)
  ret void
}

; Function Attrs: inlinehint mustprogress uwtable
define linkonce_odr dso_local void @_ZZZZZZZZZZZZZ13run_flash_fwdI23Flash_fwd_kernel_traitsILi256ELi128ELi64ELi8ELb0ELb0EN7cutlass10bfloat16_tE19Flash_kernel_traitsILi256ELi128ELi64ELi8ES2_EELb1ELb1EEvR16Flash_fwd_paramsP11CUstream_stENKUlvE_clEvENKUlvE0_clEvENKUlvE_clEvENKUlvE_clEvENKUlvE_clEvENKUlvE0_clEvENKUlvE_clEvENKUlvE0_clEvENKUlvE_clEvENKUlvE0_clEvENKUlvE_clEvENKUlvE_clEv(ptr noundef nonnull align 8 dereferenceable(24) %0) local_unnamed_addr #7 comdat align 2 {
  %2 = alloca %struct.dim3, align 8
  %3 = alloca %struct.dim3, align 8
  %4 = alloca i64, align 8
  %5 = alloca ptr, align 8
  %6 = alloca ptr, align 16
  %7 = alloca %struct.Flash_fwd_params, align 8
  %8 = alloca %struct.Flash_fwd_params, align 8
  %9 = tail call noundef i32 @cudaFuncSetAttribute(ptr noundef nonnull @_Z31__device_stub__flash_fwd_kernelI23Flash_fwd_kernel_traitsILi256ELi128ELi64ELi8ELb0ELb0EN7cutlass10bfloat16_tE19Flash_kernel_traitsILi256ELi128ELi64ELi8ES2_EELb0ELb1ELb0ELb0ELb0ELb1ELb1ELb0EEv16Flash_fwd_params, i32 noundef 8, i32 noundef 131072)
  tail call void @_ZN3c104cuda29c10_cuda_check_implementationEiPKcS2_ib(i32 noundef %9, ptr noundef nonnull @.str, ptr noundef nonnull @__func__._ZZZZZZZZZZZZZ13run_flash_fwdI23Flash_fwd_kernel_traitsILi256ELi128ELi64ELi8ELb0ELb0EN7cutlass10bfloat16_tE19Flash_kernel_traitsILi256ELi128ELi64ELi8ES2_EELb1ELb1EEvR16Flash_fwd_paramsP11CUstream_stENKUlvE_clEvENKUlvE_clEvENKUlvE_clEvENKUlvE_clEvENKUlvE_clEvENKUlvE_clEvENKUlvE_clEvENKUlvE_clEvENKUlvE_clEvENKUlvE_clEvENKUlvE_clEvENKUlvE_clEv, i32 noundef 82, i1 noundef zeroext true)
  %10 = load ptr, ptr %0, align 8, !tbaa !140
  %11 = load i64, ptr %10, align 4, !tbaa.struct !42
  %12 = getelementptr inbounds i8, ptr %10, i64 8
  %13 = load i32, ptr %12, align 4, !tbaa.struct !43
  %14 = getelementptr inbounds %class.anon.144, ptr %0, i64 0, i32 1
  %15 = load ptr, ptr %14, align 8, !tbaa !142
  %16 = load ptr, ptr %15, align 8, !tbaa !18
  %17 = tail call i32 @__cudaPushCallConfiguration(i64 %11, i32 %13, i64 4294967552, i32 1, i64 noundef 131072, ptr noundef %16)
  %18 = icmp eq i32 %17, 0
  br i1 %18, label %19, label %32

19:                                               ; preds = %1
  %20 = getelementptr inbounds %class.anon.144, ptr %0, i64 0, i32 2
  %21 = load ptr, ptr %20, align 8, !tbaa !143
  call void @llvm.memcpy.p0.p0.i64(ptr noundef nonnull align 8 dereferenceable(464) %8, ptr noundef nonnull align 8 dereferenceable(464) %21, i64 464, i1 false)
  call void @llvm.lifetime.start.p0(i64 464, ptr nonnull %7)
  call void @llvm.lifetime.start.p0(i64 12, ptr nonnull %2)
  call void @llvm.lifetime.start.p0(i64 12, ptr nonnull %3)
  call void @llvm.lifetime.start.p0(i64 8, ptr nonnull %4)
  call void @llvm.lifetime.start.p0(i64 8, ptr nonnull %5)
  call void @llvm.lifetime.start.p0(i64 8, ptr nonnull %6)
  call void @llvm.memcpy.p0.p0.i64(ptr noundef nonnull align 8 dereferenceable(464) %7, ptr noundef nonnull align 8 dereferenceable(464) %8, i64 464, i1 false)
  store ptr %7, ptr %6, align 16
  %22 = call i32 @__cudaPopCallConfiguration(ptr nonnull %2, ptr nonnull %3, ptr nonnull %4, ptr nonnull %5)
  %23 = load i64, ptr %4, align 8
  %24 = load ptr, ptr %5, align 8
  %25 = load i64, ptr %2, align 8
  %26 = getelementptr inbounds i8, ptr %2, i64 8
  %27 = load i32, ptr %26, align 8
  %28 = load i64, ptr %3, align 8
  %29 = getelementptr inbounds i8, ptr %3, i64 8
  %30 = load i32, ptr %29, align 8
  %31 = call noundef i32 @cudaLaunchKernel(ptr noundef nonnull @_Z31__device_stub__flash_fwd_kernelI23Flash_fwd_kernel_traitsILi256ELi128ELi64ELi8ELb0ELb0EN7cutlass10bfloat16_tE19Flash_kernel_traitsILi256ELi128ELi64ELi8ES2_EELb0ELb1ELb0ELb0ELb0ELb1ELb1ELb0EEv16Flash_fwd_params, i64 %25, i32 %27, i64 %28, i32 %30, ptr noundef nonnull %6, i64 noundef %23, ptr noundef %24)
  call void @llvm.lifetime.end.p0(i64 464, ptr nonnull %7)
  call void @llvm.lifetime.end.p0(i64 12, ptr nonnull %2)
  call void @llvm.lifetime.end.p0(i64 12, ptr nonnull %3)
  call void @llvm.lifetime.end.p0(i64 8, ptr nonnull %4)
  call void @llvm.lifetime.end.p0(i64 8, ptr nonnull %5)
  call void @llvm.lifetime.end.p0(i64 8, ptr nonnull %6)
  br label %32

32:                                               ; preds = %1, %19
  %33 = call i32 @cudaGetLastError()
  call void @_ZN3c104cuda29c10_cuda_check_implementationEiPKcS2_ib(i32 noundef %33, ptr noundef nonnull @.str, ptr noundef nonnull @__func__._ZZZZZZZZZZZZZ13run_flash_fwdI23Flash_fwd_kernel_traitsILi256ELi128ELi64ELi8ELb0ELb0EN7cutlass10bfloat16_tE19Flash_kernel_traitsILi256ELi128ELi64ELi8ES2_EELb1ELb1EEvR16Flash_fwd_paramsP11CUstream_stENKUlvE_clEvENKUlvE_clEvENKUlvE_clEvENKUlvE_clEvENKUlvE_clEvENKUlvE_clEvENKUlvE_clEvENKUlvE_clEvENKUlvE_clEvENKUlvE_clEvENKUlvE_clEvENKUlvE_clEv, i32 noundef 89, i1 noundef zeroext true)
  ret void
}

; Function Attrs: inlinehint mustprogress uwtable
define linkonce_odr dso_local void @_ZZZZZZZZZZZZZ13run_flash_fwdI23Flash_fwd_kernel_traitsILi256ELi128ELi64ELi8ELb0ELb0EN7cutlass10bfloat16_tE19Flash_kernel_traitsILi256ELi128ELi64ELi8ES2_EELb1ELb1EEvR16Flash_fwd_paramsP11CUstream_stENKUlvE_clEvENKUlvE0_clEvENKUlvE_clEvENKUlvE_clEvENKUlvE_clEvENKUlvE0_clEvENKUlvE_clEvENKUlvE0_clEvENKUlvE_clEvENKUlvE0_clEvENKUlvE_clEvENKUlvE0_clEv(ptr noundef nonnull align 8 dereferenceable(24) %0) local_unnamed_addr #7 comdat align 2 {
  %2 = alloca %struct.dim3, align 8
  %3 = alloca %struct.dim3, align 8
  %4 = alloca i64, align 8
  %5 = alloca ptr, align 8
  %6 = alloca ptr, align 16
  %7 = alloca %struct.Flash_fwd_params, align 8
  %8 = alloca %struct.Flash_fwd_params, align 8
  %9 = tail call noundef i32 @cudaFuncSetAttribute(ptr noundef nonnull @_Z31__device_stub__flash_fwd_kernelI23Flash_fwd_kernel_traitsILi256ELi128ELi64ELi8ELb0ELb0EN7cutlass10bfloat16_tE19Flash_kernel_traitsILi256ELi128ELi64ELi8ES2_EELb1ELb1ELb0ELb0ELb0ELb1ELb0ELb0EEv16Flash_fwd_params, i32 noundef 8, i32 noundef 131072)
  tail call void @_ZN3c104cuda29c10_cuda_check_implementationEiPKcS2_ib(i32 noundef %9, ptr noundef nonnull @.str, ptr noundef nonnull @__func__._ZZZZZZZZZZZZZ13run_flash_fwdI23Flash_fwd_kernel_traitsILi256ELi128ELi64ELi8ELb0ELb0EN7cutlass10bfloat16_tE19Flash_kernel_traitsILi256ELi128ELi64ELi8ES2_EELb1ELb1EEvR16Flash_fwd_paramsP11CUstream_stENKUlvE_clEvENKUlvE_clEvENKUlvE_clEvENKUlvE_clEvENKUlvE_clEvENKUlvE_clEvENKUlvE_clEvENKUlvE_clEvENKUlvE_clEvENKUlvE_clEvENKUlvE_clEvENKUlvE_clEv, i32 noundef 82, i1 noundef zeroext true)
  %10 = load ptr, ptr %0, align 8, !tbaa !144
  %11 = load i64, ptr %10, align 4, !tbaa.struct !42
  %12 = getelementptr inbounds i8, ptr %10, i64 8
  %13 = load i32, ptr %12, align 4, !tbaa.struct !43
  %14 = getelementptr inbounds %class.anon.145, ptr %0, i64 0, i32 1
  %15 = load ptr, ptr %14, align 8, !tbaa !146
  %16 = load ptr, ptr %15, align 8, !tbaa !18
  %17 = tail call i32 @__cudaPushCallConfiguration(i64 %11, i32 %13, i64 4294967552, i32 1, i64 noundef 131072, ptr noundef %16)
  %18 = icmp eq i32 %17, 0
  br i1 %18, label %19, label %32

19:                                               ; preds = %1
  %20 = getelementptr inbounds %class.anon.145, ptr %0, i64 0, i32 2
  %21 = load ptr, ptr %20, align 8, !tbaa !147
  call void @llvm.memcpy.p0.p0.i64(ptr noundef nonnull align 8 dereferenceable(464) %8, ptr noundef nonnull align 8 dereferenceable(464) %21, i64 464, i1 false)
  call void @llvm.lifetime.start.p0(i64 464, ptr nonnull %7)
  call void @llvm.lifetime.start.p0(i64 12, ptr nonnull %2)
  call void @llvm.lifetime.start.p0(i64 12, ptr nonnull %3)
  call void @llvm.lifetime.start.p0(i64 8, ptr nonnull %4)
  call void @llvm.lifetime.start.p0(i64 8, ptr nonnull %5)
  call void @llvm.lifetime.start.p0(i64 8, ptr nonnull %6)
  call void @llvm.memcpy.p0.p0.i64(ptr noundef nonnull align 8 dereferenceable(464) %7, ptr noundef nonnull align 8 dereferenceable(464) %8, i64 464, i1 false)
  store ptr %7, ptr %6, align 16
  %22 = call i32 @__cudaPopCallConfiguration(ptr nonnull %2, ptr nonnull %3, ptr nonnull %4, ptr nonnull %5)
  %23 = load i64, ptr %4, align 8
  %24 = load ptr, ptr %5, align 8
  %25 = load i64, ptr %2, align 8
  %26 = getelementptr inbounds i8, ptr %2, i64 8
  %27 = load i32, ptr %26, align 8
  %28 = load i64, ptr %3, align 8
  %29 = getelementptr inbounds i8, ptr %3, i64 8
  %30 = load i32, ptr %29, align 8
  %31 = call noundef i32 @cudaLaunchKernel(ptr noundef nonnull @_Z31__device_stub__flash_fwd_kernelI23Flash_fwd_kernel_traitsILi256ELi128ELi64ELi8ELb0ELb0EN7cutlass10bfloat16_tE19Flash_kernel_traitsILi256ELi128ELi64ELi8ES2_EELb1ELb1ELb0ELb0ELb0ELb1ELb0ELb0EEv16Flash_fwd_params, i64 %25, i32 %27, i64 %28, i32 %30, ptr noundef nonnull %6, i64 noundef %23, ptr noundef %24)
  call void @llvm.lifetime.end.p0(i64 464, ptr nonnull %7)
  call void @llvm.lifetime.end.p0(i64 12, ptr nonnull %2)
  call void @llvm.lifetime.end.p0(i64 12, ptr nonnull %3)
  call void @llvm.lifetime.end.p0(i64 8, ptr nonnull %4)
  call void @llvm.lifetime.end.p0(i64 8, ptr nonnull %5)
  call void @llvm.lifetime.end.p0(i64 8, ptr nonnull %6)
  br label %32

32:                                               ; preds = %1, %19
  %33 = call i32 @cudaGetLastError()
  call void @_ZN3c104cuda29c10_cuda_check_implementationEiPKcS2_ib(i32 noundef %33, ptr noundef nonnull @.str, ptr noundef nonnull @__func__._ZZZZZZZZZZZZZ13run_flash_fwdI23Flash_fwd_kernel_traitsILi256ELi128ELi64ELi8ELb0ELb0EN7cutlass10bfloat16_tE19Flash_kernel_traitsILi256ELi128ELi64ELi8ES2_EELb1ELb1EEvR16Flash_fwd_paramsP11CUstream_stENKUlvE_clEvENKUlvE_clEvENKUlvE_clEvENKUlvE_clEvENKUlvE_clEvENKUlvE_clEvENKUlvE_clEvENKUlvE_clEvENKUlvE_clEvENKUlvE_clEvENKUlvE_clEvENKUlvE_clEv, i32 noundef 89, i1 noundef zeroext true)
  ret void
}

; Function Attrs: inlinehint mustprogress uwtable
define linkonce_odr dso_local void @_ZZZZZZZZ13run_flash_fwdI23Flash_fwd_kernel_traitsILi256ELi128ELi64ELi8ELb0ELb0EN7cutlass10bfloat16_tE19Flash_kernel_traitsILi256ELi128ELi64ELi8ES2_EELb1ELb1EEvR16Flash_fwd_paramsP11CUstream_stENKUlvE_clEvENKUlvE0_clEvENKUlvE_clEvENKUlvE0_clEvENKUlvE_clEvENKUlvE0_clEvENKUlvE_clEv(ptr noundef nonnull align 8 dereferenceable(32) %0) local_unnamed_addr #7 comdat align 2 {
  %2 = alloca %class.anon.189, align 8
  %3 = alloca %class.anon.190, align 8
  %4 = alloca %class.anon.186, align 8
  %5 = alloca %class.anon.187, align 8
  %6 = alloca %class.anon.180, align 8
  %7 = alloca %class.anon.181, align 8
  %8 = alloca %class.anon.177, align 8
  %9 = alloca %class.anon.178, align 8
  %10 = load ptr, ptr %0, align 8, !tbaa !148
  %11 = load i8, ptr %10, align 1, !tbaa !30, !range !33, !noundef !34
  %12 = icmp eq i8 %11, 0
  %13 = getelementptr inbounds %class.anon.170, ptr %0, i64 0, i32 1
  %14 = load ptr, ptr %13, align 8, !tbaa !150
  %15 = getelementptr inbounds %class.anon.170, ptr %0, i64 0, i32 2
  %16 = load ptr, ptr %15, align 8, !tbaa !151
  %17 = getelementptr inbounds %class.anon.170, ptr %0, i64 0, i32 3
  %18 = load ptr, ptr %17, align 8, !tbaa !152
  %19 = getelementptr inbounds %struct.Flash_fwd_params, ptr %14, i64 0, i32 55
  %20 = load ptr, ptr %19, align 8, !tbaa !38
  %21 = icmp eq ptr %20, null
  %22 = getelementptr inbounds %struct.Flash_fwd_params, ptr %14, i64 0, i32 47
