; ModuleID = 'cuda_src/csrc/flash_attn/src/flash_fwd_hdim192_fp16_sm80.cu'
source_filename = "cuda_src/csrc/flash_attn/src/flash_fwd_hdim192_fp16_sm80.cu"
target datalayout = "e-m:e-p270:32:32-p271:32:32-p272:64:64-i64:64-i128:128-f80:128-n8:16:32:64-S128"
target triple = "x86_64-unknown-linux-gnu"

%"class.std::ios_base::Init" = type { i8 }
%class.anon = type { ptr, ptr }
%struct.dim3 = type { i32, i32, i32 }
%class.anon.191 = type { ptr, ptr, ptr, ptr, ptr, ptr }
%class.anon.2 = type { ptr, ptr, ptr, ptr, ptr, ptr }
%struct.Flash_fwd_params = type <{ %struct.Qkv_params, ptr, ptr, i64, i64, i64, ptr, ptr, ptr, i32, i32, i32, i32, i32, i32, i32, i32, i32, i32, float, float, ptr, ptr, ptr, ptr, ptr, ptr, ptr, i64, i64, i64, i64, i64, i64, ptr, ptr, ptr, ptr, i64, i32, float, i8, [3 x i8], float, float, i32, i32, float, %"struct.at::PhiloxCudaState", ptr, i8, i8, i8, i8, i32, ptr, i64, i8, i8, [6 x i8] }>
%struct.Qkv_params = type { ptr, ptr, ptr, i64, i64, i64, i64, i64, i64, i64, i64, i64, i32, i32, i32 }
%"struct.at::PhiloxCudaState" = type <{ %"union.at::PhiloxCudaState::Payload", %"union.at::PhiloxCudaState::Payload", i32, i8, [3 x i8] }>
%"union.at::PhiloxCudaState::Payload" = type { i64 }
%class.anon.170 = type { ptr, ptr, ptr, ptr }
%class.anon.149 = type { ptr, ptr, ptr, ptr }
%class.anon.125 = type { ptr, ptr, ptr, ptr }
%class.anon.104 = type { ptr, ptr, ptr, ptr }
%class.anon.77 = type { ptr, ptr, ptr, ptr }
%class.anon.56 = type { ptr, ptr, ptr, ptr }
%class.anon.32 = type { ptr, ptr, ptr, ptr }
%class.anon.11 = type { ptr, ptr, ptr, ptr }
%class.anon.30 = type { ptr, ptr, ptr }
%class.anon.31 = type { ptr, ptr, ptr }
%class.anon.27 = type { ptr, ptr, ptr }
%class.anon.28 = type { ptr, ptr, ptr }
%class.anon.21 = type { ptr, ptr, ptr }
%class.anon.22 = type { ptr, ptr, ptr }
%class.anon.18 = type { ptr, ptr, ptr }
%class.anon.19 = type { ptr, ptr, ptr }
%class.anon.51 = type { ptr, ptr, ptr }
%class.anon.52 = type { ptr, ptr, ptr }
%class.anon.48 = type { ptr, ptr, ptr }
%class.anon.49 = type { ptr, ptr, ptr }
%class.anon.42 = type { ptr, ptr, ptr }
%class.anon.43 = type { ptr, ptr, ptr }
%class.anon.39 = type { ptr, ptr, ptr }
%class.anon.40 = type { ptr, ptr, ptr }
%class.anon.75 = type { ptr, ptr, ptr }
%class.anon.76 = type { ptr, ptr, ptr }
%class.anon.72 = type { ptr, ptr, ptr }
%class.anon.73 = type { ptr, ptr, ptr }
%class.anon.66 = type { ptr, ptr, ptr }
%class.anon.67 = type { ptr, ptr, ptr }
%class.anon.63 = type { ptr, ptr, ptr }
%class.anon.64 = type { ptr, ptr, ptr }
%class.anon.96 = type { ptr, ptr, ptr }
%class.anon.97 = type { ptr, ptr, ptr }
%class.anon.93 = type { ptr, ptr, ptr }
%class.anon.94 = type { ptr, ptr, ptr }
%class.anon.87 = type { ptr, ptr, ptr }
%class.anon.88 = type { ptr, ptr, ptr }
%class.anon.84 = type { ptr, ptr, ptr }
%class.anon.85 = type { ptr, ptr, ptr }
%class.anon.123 = type { ptr, ptr, ptr }
%class.anon.124 = type { ptr, ptr, ptr }
%class.anon.120 = type { ptr, ptr, ptr }
%class.anon.121 = type { ptr, ptr, ptr }
%class.anon.114 = type { ptr, ptr, ptr }
%class.anon.115 = type { ptr, ptr, ptr }
%class.anon.111 = type { ptr, ptr, ptr }
%class.anon.112 = type { ptr, ptr, ptr }
%class.anon.144 = type { ptr, ptr, ptr }
%class.anon.145 = type { ptr, ptr, ptr }
%class.anon.141 = type { ptr, ptr, ptr }
%class.anon.142 = type { ptr, ptr, ptr }
%class.anon.135 = type { ptr, ptr, ptr }
%class.anon.136 = type { ptr, ptr, ptr }
%class.anon.132 = type { ptr, ptr, ptr }
%class.anon.133 = type { ptr, ptr, ptr }
%class.anon.168 = type { ptr, ptr, ptr }
%class.anon.169 = type { ptr, ptr, ptr }
%class.anon.165 = type { ptr, ptr, ptr }
%class.anon.166 = type { ptr, ptr, ptr }
%class.anon.159 = type { ptr, ptr, ptr }
%class.anon.160 = type { ptr, ptr, ptr }
%class.anon.156 = type { ptr, ptr, ptr }
%class.anon.157 = type { ptr, ptr, ptr }
%class.anon.189 = type { ptr, ptr, ptr }
%class.anon.190 = type { ptr, ptr, ptr }
%class.anon.186 = type { ptr, ptr, ptr }
%class.anon.187 = type { ptr, ptr, ptr }
%class.anon.180 = type { ptr, ptr, ptr }
%class.anon.181 = type { ptr, ptr, ptr }
%class.anon.177 = type { ptr, ptr, ptr }
%class.anon.178 = type { ptr, ptr, ptr }
%class.anon.359 = type { ptr, ptr, ptr, ptr }
%class.anon.338 = type { ptr, ptr, ptr, ptr }
%class.anon.314 = type { ptr, ptr, ptr, ptr }
%class.anon.293 = type { ptr, ptr, ptr, ptr }
%class.anon.266 = type { ptr, ptr, ptr, ptr }
%class.anon.245 = type { ptr, ptr, ptr, ptr }
%class.anon.221 = type { ptr, ptr, ptr, ptr }
%class.anon.200 = type { ptr, ptr, ptr, ptr }
%class.anon.219 = type { ptr, ptr, ptr }
%class.anon.220 = type { ptr, ptr, ptr }
%class.anon.216 = type { ptr, ptr, ptr }
%class.anon.217 = type { ptr, ptr, ptr }
%class.anon.210 = type { ptr, ptr, ptr }
%class.anon.211 = type { ptr, ptr, ptr }
%class.anon.207 = type { ptr, ptr, ptr }
%class.anon.208 = type { ptr, ptr, ptr }
%class.anon.240 = type { ptr, ptr, ptr }
%class.anon.241 = type { ptr, ptr, ptr }
%class.anon.237 = type { ptr, ptr, ptr }
%class.anon.238 = type { ptr, ptr, ptr }
%class.anon.231 = type { ptr, ptr, ptr }
%class.anon.232 = type { ptr, ptr, ptr }
%class.anon.228 = type { ptr, ptr, ptr }
%class.anon.229 = type { ptr, ptr, ptr }
%class.anon.264 = type { ptr, ptr, ptr }
%class.anon.265 = type { ptr, ptr, ptr }
%class.anon.261 = type { ptr, ptr, ptr }
%class.anon.262 = type { ptr, ptr, ptr }
%class.anon.255 = type { ptr, ptr, ptr }
%class.anon.256 = type { ptr, ptr, ptr }
%class.anon.252 = type { ptr, ptr, ptr }
%class.anon.253 = type { ptr, ptr, ptr }
%class.anon.285 = type { ptr, ptr, ptr }
%class.anon.286 = type { ptr, ptr, ptr }
%class.anon.282 = type { ptr, ptr, ptr }
%class.anon.283 = type { ptr, ptr, ptr }
%class.anon.276 = type { ptr, ptr, ptr }
%class.anon.277 = type { ptr, ptr, ptr }
%class.anon.273 = type { ptr, ptr, ptr }
%class.anon.274 = type { ptr, ptr, ptr }
%class.anon.312 = type { ptr, ptr, ptr }
%class.anon.313 = type { ptr, ptr, ptr }
%class.anon.309 = type { ptr, ptr, ptr }
%class.anon.310 = type { ptr, ptr, ptr }
%class.anon.303 = type { ptr, ptr, ptr }
%class.anon.304 = type { ptr, ptr, ptr }
%class.anon.300 = type { ptr, ptr, ptr }
%class.anon.301 = type { ptr, ptr, ptr }
%class.anon.333 = type { ptr, ptr, ptr }
%class.anon.334 = type { ptr, ptr, ptr }
%class.anon.330 = type { ptr, ptr, ptr }
%class.anon.331 = type { ptr, ptr, ptr }
%class.anon.324 = type { ptr, ptr, ptr }
%class.anon.325 = type { ptr, ptr, ptr }
%class.anon.321 = type { ptr, ptr, ptr }
%class.anon.322 = type { ptr, ptr, ptr }
%class.anon.357 = type { ptr, ptr, ptr }
%class.anon.358 = type { ptr, ptr, ptr }
%class.anon.354 = type { ptr, ptr, ptr }
%class.anon.355 = type { ptr, ptr, ptr }
%class.anon.348 = type { ptr, ptr, ptr }
%class.anon.349 = type { ptr, ptr, ptr }
%class.anon.345 = type { ptr, ptr, ptr }
%class.anon.346 = type { ptr, ptr, ptr }
%class.anon.378 = type { ptr, ptr, ptr }
%class.anon.379 = type { ptr, ptr, ptr }
%class.anon.375 = type { ptr, ptr, ptr }
%class.anon.376 = type { ptr, ptr, ptr }
%class.anon.369 = type { ptr, ptr, ptr }
%class.anon.370 = type { ptr, ptr, ptr }
%class.anon.366 = type { ptr, ptr, ptr }
%class.anon.367 = type { ptr, ptr, ptr }

$_ZZ19run_mha_fwd_hdim192IN7cutlass6half_tELb0EEvR16Flash_fwd_paramsP11CUstream_stENKUlvE_clEv = comdat any

$_ZZ13run_flash_fwdI23Flash_fwd_kernel_traitsILi192ELi64ELi64ELi4ELb0ELb0EN7cutlass6half_tE19Flash_kernel_traitsILi192ELi64ELi64ELi4ES2_EELb1ELb0EEvR16Flash_fwd_paramsP11CUstream_stENKUlvE_clEv = comdat any

$_ZZZZZZZZ13run_flash_fwdI23Flash_fwd_kernel_traitsILi192ELi64ELi64ELi4ELb0ELb0EN7cutlass6half_tE19Flash_kernel_traitsILi192ELi64ELi64ELi4ES2_EELb1ELb0EEvR16Flash_fwd_paramsP11CUstream_stENKUlvE_clEvENKUlvE_clEvENKUlvE_clEvENKUlvE_clEvENKUlvE_clEvENKUlvE_clEvENKUlvE_clEv = comdat any

$_ZZZZZZZZZZZZZ13run_flash_fwdI23Flash_fwd_kernel_traitsILi192ELi64ELi64ELi4ELb0ELb0EN7cutlass6half_tE19Flash_kernel_traitsILi192ELi64ELi64ELi4ES2_EELb1ELb0EEvR16Flash_fwd_paramsP11CUstream_stENKUlvE_clEvENKUlvE_clEvENKUlvE_clEvENKUlvE_clEvENKUlvE_clEvENKUlvE_clEvENKUlvE_clEvENKUlvE_clEvENKUlvE_clEvENKUlvE_clEvENKUlvE_clEvENKUlvE_clEv = comdat any

$_ZZZZZZZZZZZZZ13run_flash_fwdI23Flash_fwd_kernel_traitsILi192ELi64ELi64ELi4ELb0ELb0EN7cutlass6half_tE19Flash_kernel_traitsILi192ELi64ELi64ELi4ES2_EELb1ELb0EEvR16Flash_fwd_paramsP11CUstream_stENKUlvE_clEvENKUlvE_clEvENKUlvE_clEvENKUlvE_clEvENKUlvE_clEvENKUlvE_clEvENKUlvE_clEvENKUlvE_clEvENKUlvE_clEvENKUlvE_clEvENKUlvE_clEvENKUlvE0_clEv = comdat any

$_Z31__device_stub__flash_fwd_kernelI23Flash_fwd_kernel_traitsILi192ELi64ELi64ELi4ELb0ELb0EN7cutlass6half_tE19Flash_kernel_traitsILi192ELi64ELi64ELi4ES2_EELb0ELb0ELb1ELb1ELb0ELb1ELb1ELb0EEv16Flash_fwd_params = comdat any

$_Z31__device_stub__flash_fwd_kernelI23Flash_fwd_kernel_traitsILi192ELi64ELi64ELi4ELb0ELb0EN7cutlass6half_tE19Flash_kernel_traitsILi192ELi64ELi64ELi4ES2_EELb1ELb0ELb1ELb1ELb0ELb1ELb0ELb1EEv16Flash_fwd_params = comdat any

$_ZZZZZZZZZZZZZ13run_flash_fwdI23Flash_fwd_kernel_traitsILi192ELi64ELi64ELi4ELb0ELb0EN7cutlass6half_tE19Flash_kernel_traitsILi192ELi64ELi64ELi4ES2_EELb1ELb0EEvR16Flash_fwd_paramsP11CUstream_stENKUlvE_clEvENKUlvE_clEvENKUlvE_clEvENKUlvE_clEvENKUlvE_clEvENKUlvE_clEvENKUlvE_clEvENKUlvE_clEvENKUlvE_clEvENKUlvE0_clEvENKUlvE_clEvENKUlvE_clEv = comdat any

$_ZZZZZZZZZZZZZ13run_flash_fwdI23Flash_fwd_kernel_traitsILi192ELi64ELi64ELi4ELb0ELb0EN7cutlass6half_tE19Flash_kernel_traitsILi192ELi64ELi64ELi4ES2_EELb1ELb0EEvR16Flash_fwd_paramsP11CUstream_stENKUlvE_clEvENKUlvE_clEvENKUlvE_clEvENKUlvE_clEvENKUlvE_clEvENKUlvE_clEvENKUlvE_clEvENKUlvE_clEvENKUlvE_clEvENKUlvE0_clEvENKUlvE_clEvENKUlvE0_clEv = comdat any

$_Z31__device_stub__flash_fwd_kernelI23Flash_fwd_kernel_traitsILi192ELi64ELi64ELi4ELb0ELb0EN7cutlass6half_tE19Flash_kernel_traitsILi192ELi64ELi64ELi4ES2_EELb0ELb0ELb1ELb0ELb0ELb1ELb1ELb0EEv16Flash_fwd_params = comdat any

$_Z31__device_stub__flash_fwd_kernelI23Flash_fwd_kernel_traitsILi192ELi64ELi64ELi4ELb0ELb0EN7cutlass6half_tE19Flash_kernel_traitsILi192ELi64ELi64ELi4ES2_EELb1ELb0ELb1ELb0ELb0ELb1ELb0ELb1EEv16Flash_fwd_params = comdat any

$_ZZZZZZZZZZZZZ13run_flash_fwdI23Flash_fwd_kernel_traitsILi192ELi64ELi64ELi4ELb0ELb0EN7cutlass6half_tE19Flash_kernel_traitsILi192ELi64ELi64ELi4ES2_EELb1ELb0EEvR16Flash_fwd_paramsP11CUstream_stENKUlvE_clEvENKUlvE_clEvENKUlvE_clEvENKUlvE_clEvENKUlvE_clEvENKUlvE_clEvENKUlvE_clEvENKUlvE0_clEvENKUlvE_clEvENKUlvE_clEvENKUlvE_clEvENKUlvE_clEv = comdat any

$_ZZZZZZZZZZZZZ13run_flash_fwdI23Flash_fwd_kernel_traitsILi192ELi64ELi64ELi4ELb0ELb0EN7cutlass6half_tE19Flash_kernel_traitsILi192ELi64ELi64ELi4ES2_EELb1ELb0EEvR16Flash_fwd_paramsP11CUstream_stENKUlvE_clEvENKUlvE_clEvENKUlvE_clEvENKUlvE_clEvENKUlvE_clEvENKUlvE_clEvENKUlvE_clEvENKUlvE0_clEvENKUlvE_clEvENKUlvE_clEvENKUlvE_clEvENKUlvE0_clEv = comdat any

$_Z31__device_stub__flash_fwd_kernelI23Flash_fwd_kernel_traitsILi192ELi64ELi64ELi4ELb0ELb0EN7cutlass6half_tE19Flash_kernel_traitsILi192ELi64ELi64ELi4ES2_EELb1ELb0ELb1ELb1ELb0ELb1ELb0ELb0EEv16Flash_fwd_params = comdat any

$_ZZZZZZZZZZZZZ13run_flash_fwdI23Flash_fwd_kernel_traitsILi192ELi64ELi64ELi4ELb0ELb0EN7cutlass6half_tE19Flash_kernel_traitsILi192ELi64ELi64ELi4ES2_EELb1ELb0EEvR16Flash_fwd_paramsP11CUstream_stENKUlvE_clEvENKUlvE_clEvENKUlvE_clEvENKUlvE_clEvENKUlvE_clEvENKUlvE_clEvENKUlvE_clEvENKUlvE0_clEvENKUlvE_clEvENKUlvE0_clEvENKUlvE_clEvENKUlvE_clEv = comdat any

$_ZZZZZZZZZZZZZ13run_flash_fwdI23Flash_fwd_kernel_traitsILi192ELi64ELi64ELi4ELb0ELb0EN7cutlass6half_tE19Flash_kernel_traitsILi192ELi64ELi64ELi4ES2_EELb1ELb0EEvR16Flash_fwd_paramsP11CUstream_stENKUlvE_clEvENKUlvE_clEvENKUlvE_clEvENKUlvE_clEvENKUlvE_clEvENKUlvE_clEvENKUlvE_clEvENKUlvE0_clEvENKUlvE_clEvENKUlvE0_clEvENKUlvE_clEvENKUlvE0_clEv = comdat any

$_Z31__device_stub__flash_fwd_kernelI23Flash_fwd_kernel_traitsILi192ELi64ELi64ELi4ELb0ELb0EN7cutlass6half_tE19Flash_kernel_traitsILi192ELi64ELi64ELi4ES2_EELb1ELb0ELb1ELb0ELb0ELb1ELb0ELb0EEv16Flash_fwd_params = comdat any

$_ZZZZZZZZ13run_flash_fwdI23Flash_fwd_kernel_traitsILi192ELi64ELi64ELi4ELb0ELb0EN7cutlass6half_tE19Flash_kernel_traitsILi192ELi64ELi64ELi4ES2_EELb1ELb0EEvR16Flash_fwd_paramsP11CUstream_stENKUlvE_clEvENKUlvE_clEvENKUlvE_clEvENKUlvE_clEvENKUlvE_clEvENKUlvE0_clEvENKUlvE_clEv = comdat any

$_ZZZZZZZZZZZZZ13run_flash_fwdI23Flash_fwd_kernel_traitsILi192ELi64ELi64ELi4ELb0ELb0EN7cutlass6half_tE19Flash_kernel_traitsILi192ELi64ELi64ELi4ES2_EELb1ELb0EEvR16Flash_fwd_paramsP11CUstream_stENKUlvE_clEvENKUlvE_clEvENKUlvE_clEvENKUlvE_clEvENKUlvE_clEvENKUlvE0_clEvENKUlvE_clEvENKUlvE_clEvENKUlvE_clEvENKUlvE_clEvENKUlvE_clEvENKUlvE_clEv = comdat any

$_ZZZZZZZZZZZZZ13run_flash_fwdI23Flash_fwd_kernel_traitsILi192ELi64ELi64ELi4ELb0ELb0EN7cutlass6half_tE19Flash_kernel_traitsILi192ELi64ELi64ELi4ES2_EELb1ELb0EEvR16Flash_fwd_paramsP11CUstream_stENKUlvE_clEvENKUlvE_clEvENKUlvE_clEvENKUlvE_clEvENKUlvE_clEvENKUlvE0_clEvENKUlvE_clEvENKUlvE_clEvENKUlvE_clEvENKUlvE_clEvENKUlvE_clEvENKUlvE0_clEv = comdat any

$_Z31__device_stub__flash_fwd_kernelI23Flash_fwd_kernel_traitsILi192ELi64ELi64ELi4ELb0ELb0EN7cutlass6half_tE19Flash_kernel_traitsILi192ELi64ELi64ELi4ES2_EELb0ELb0ELb0ELb1ELb0ELb1ELb1ELb0EEv16Flash_fwd_params = comdat any

$_Z31__device_stub__flash_fwd_kernelI23Flash_fwd_kernel_traitsILi192ELi64ELi64ELi4ELb0ELb0EN7cutlass6half_tE19Flash_kernel_traitsILi192ELi64ELi64ELi4ES2_EELb1ELb0ELb0ELb1ELb0ELb1ELb0ELb1EEv16Flash_fwd_params = comdat any

$_ZZZZZZZZZZZZZ13run_flash_fwdI23Flash_fwd_kernel_traitsILi192ELi64ELi64ELi4ELb0ELb0EN7cutlass6half_tE19Flash_kernel_traitsILi192ELi64ELi64ELi4ES2_EELb1ELb0EEvR16Flash_fwd_paramsP11CUstream_stENKUlvE_clEvENKUlvE_clEvENKUlvE_clEvENKUlvE_clEvENKUlvE_clEvENKUlvE0_clEvENKUlvE_clEvENKUlvE_clEvENKUlvE_clEvENKUlvE0_clEvENKUlvE_clEvENKUlvE_clEv = comdat any

$_ZZZZZZZZZZZZZ13run_flash_fwdI23Flash_fwd_kernel_traitsILi192ELi64ELi64ELi4ELb0ELb0EN7cutlass6half_tE19Flash_kernel_traitsILi192ELi64ELi64ELi4ES2_EELb1ELb0EEvR16Flash_fwd_paramsP11CUstream_stENKUlvE_clEvENKUlvE_clEvENKUlvE_clEvENKUlvE_clEvENKUlvE_clEvENKUlvE0_clEvENKUlvE_clEvENKUlvE_clEvENKUlvE_clEvENKUlvE0_clEvENKUlvE_clEvENKUlvE0_clEv = comdat any

$_Z31__device_stub__flash_fwd_kernelI23Flash_fwd_kernel_traitsILi192ELi64ELi64ELi4ELb0ELb0EN7cutlass6half_tE19Flash_kernel_traitsILi192ELi64ELi64ELi4ES2_EELb0ELb0ELb0ELb0ELb0ELb1ELb1ELb0EEv16Flash_fwd_params = comdat any

$_Z31__device_stub__flash_fwd_kernelI23Flash_fwd_kernel_traitsILi192ELi64ELi64ELi4ELb0ELb0EN7cutlass6half_tE19Flash_kernel_traitsILi192ELi64ELi64ELi4ES2_EELb1ELb0ELb0ELb0ELb0ELb1ELb0ELb1EEv16Flash_fwd_params = comdat any

$_ZZZZZZZZZZZZZ13run_flash_fwdI23Flash_fwd_kernel_traitsILi192ELi64ELi64ELi4ELb0ELb0EN7cutlass6half_tE19Flash_kernel_traitsILi192ELi64ELi64ELi4ES2_EELb1ELb0EEvR16Flash_fwd_paramsP11CUstream_stENKUlvE_clEvENKUlvE_clEvENKUlvE_clEvENKUlvE_clEvENKUlvE_clEvENKUlvE0_clEvENKUlvE_clEvENKUlvE0_clEvENKUlvE_clEvENKUlvE_clEvENKUlvE_clEvENKUlvE_clEv = comdat any

$_ZZZZZZZZZZZZZ13run_flash_fwdI23Flash_fwd_kernel_traitsILi192ELi64ELi64ELi4ELb0ELb0EN7cutlass6half_tE19Flash_kernel_traitsILi192ELi64ELi64ELi4ES2_EELb1ELb0EEvR16Flash_fwd_paramsP11CUstream_stENKUlvE_clEvENKUlvE_clEvENKUlvE_clEvENKUlvE_clEvENKUlvE_clEvENKUlvE0_clEvENKUlvE_clEvENKUlvE0_clEvENKUlvE_clEvENKUlvE_clEvENKUlvE_clEvENKUlvE0_clEv = comdat any

$_Z31__device_stub__flash_fwd_kernelI23Flash_fwd_kernel_traitsILi192ELi64ELi64ELi4ELb0ELb0EN7cutlass6half_tE19Flash_kernel_traitsILi192ELi64ELi64ELi4ES2_EELb1ELb0ELb0ELb1ELb0ELb1ELb0ELb0EEv16Flash_fwd_params = comdat any

$_ZZZZZZZZZZZZZ13run_flash_fwdI23Flash_fwd_kernel_traitsILi192ELi64ELi64ELi4ELb0ELb0EN7cutlass6half_tE19Flash_kernel_traitsILi192ELi64ELi64ELi4ES2_EELb1ELb0EEvR16Flash_fwd_paramsP11CUstream_stENKUlvE_clEvENKUlvE_clEvENKUlvE_clEvENKUlvE_clEvENKUlvE_clEvENKUlvE0_clEvENKUlvE_clEvENKUlvE0_clEvENKUlvE_clEvENKUlvE0_clEvENKUlvE_clEvENKUlvE_clEv = comdat any

$_ZZZZZZZZZZZZZ13run_flash_fwdI23Flash_fwd_kernel_traitsILi192ELi64ELi64ELi4ELb0ELb0EN7cutlass6half_tE19Flash_kernel_traitsILi192ELi64ELi64ELi4ES2_EELb1ELb0EEvR16Flash_fwd_paramsP11CUstream_stENKUlvE_clEvENKUlvE_clEvENKUlvE_clEvENKUlvE_clEvENKUlvE_clEvENKUlvE0_clEvENKUlvE_clEvENKUlvE0_clEvENKUlvE_clEvENKUlvE0_clEvENKUlvE_clEvENKUlvE0_clEv = comdat any

$_Z31__device_stub__flash_fwd_kernelI23Flash_fwd_kernel_traitsILi192ELi64ELi64ELi4ELb0ELb0EN7cutlass6half_tE19Flash_kernel_traitsILi192ELi64ELi64ELi4ES2_EELb1ELb0ELb0ELb0ELb0ELb1ELb0ELb0EEv16Flash_fwd_params = comdat any

$_ZZZZZZZZ13run_flash_fwdI23Flash_fwd_kernel_traitsILi192ELi64ELi64ELi4ELb0ELb0EN7cutlass6half_tE19Flash_kernel_traitsILi192ELi64ELi64ELi4ES2_EELb1ELb0EEvR16Flash_fwd_paramsP11CUstream_stENKUlvE_clEvENKUlvE_clEvENKUlvE_clEvENKUlvE0_clEvENKUlvE_clEvENKUlvE_clEvENKUlvE_clEv = comdat any

$_ZZZZZZZZZZZZZ13run_flash_fwdI23Flash_fwd_kernel_traitsILi192ELi64ELi64ELi4ELb0ELb0EN7cutlass6half_tE19Flash_kernel_traitsILi192ELi64ELi64ELi4ES2_EELb1ELb0EEvR16Flash_fwd_paramsP11CUstream_stENKUlvE_clEvENKUlvE_clEvENKUlvE_clEvENKUlvE0_clEvENKUlvE_clEvENKUlvE_clEvENKUlvE_clEvENKUlvE_clEvENKUlvE_clEvENKUlvE_clEvENKUlvE_clEvENKUlvE_clEv = comdat any

$_ZZZZZZZZZZZZZ13run_flash_fwdI23Flash_fwd_kernel_traitsILi192ELi64ELi64ELi4ELb0ELb0EN7cutlass6half_tE19Flash_kernel_traitsILi192ELi64ELi64ELi4ES2_EELb1ELb0EEvR16Flash_fwd_paramsP11CUstream_stENKUlvE_clEvENKUlvE_clEvENKUlvE_clEvENKUlvE0_clEvENKUlvE_clEvENKUlvE_clEvENKUlvE_clEvENKUlvE_clEvENKUlvE_clEvENKUlvE_clEvENKUlvE_clEvENKUlvE0_clEv = comdat any

$_Z31__device_stub__flash_fwd_kernelI23Flash_fwd_kernel_traitsILi192ELi64ELi64ELi4ELb0ELb0EN7cutlass6half_tE19Flash_kernel_traitsILi192ELi64ELi64ELi4ES2_EELb0ELb0ELb1ELb1ELb0ELb0ELb1ELb0EEv16Flash_fwd_params = comdat any

$_Z31__device_stub__flash_fwd_kernelI23Flash_fwd_kernel_traitsILi192ELi64ELi64ELi4ELb0ELb0EN7cutlass6half_tE19Flash_kernel_traitsILi192ELi64ELi64ELi4ES2_EELb1ELb0ELb1ELb1ELb0ELb0ELb0ELb1EEv16Flash_fwd_params = comdat any

$_ZZZZZZZZZZZZZ13run_flash_fwdI23Flash_fwd_kernel_traitsILi192ELi64ELi64ELi4ELb0ELb0EN7cutlass6half_tE19Flash_kernel_traitsILi192ELi64ELi64ELi4ES2_EELb1ELb0EEvR16Flash_fwd_paramsP11CUstream_stENKUlvE_clEvENKUlvE_clEvENKUlvE_clEvENKUlvE0_clEvENKUlvE_clEvENKUlvE_clEvENKUlvE_clEvENKUlvE_clEvENKUlvE_clEvENKUlvE0_clEvENKUlvE_clEvENKUlvE_clEv = comdat any

$_ZZZZZZZZZZZZZ13run_flash_fwdI23Flash_fwd_kernel_traitsILi192ELi64ELi64ELi4ELb0ELb0EN7cutlass6half_tE19Flash_kernel_traitsILi192ELi64ELi64ELi4ES2_EELb1ELb0EEvR16Flash_fwd_paramsP11CUstream_stENKUlvE_clEvENKUlvE_clEvENKUlvE_clEvENKUlvE0_clEvENKUlvE_clEvENKUlvE_clEvENKUlvE_clEvENKUlvE_clEvENKUlvE_clEvENKUlvE0_clEvENKUlvE_clEvENKUlvE0_clEv = comdat any

$_Z31__device_stub__flash_fwd_kernelI23Flash_fwd_kernel_traitsILi192ELi64ELi64ELi4ELb0ELb0EN7cutlass6half_tE19Flash_kernel_traitsILi192ELi64ELi64ELi4ES2_EELb0ELb0ELb1ELb0ELb0ELb0ELb1ELb0EEv16Flash_fwd_params = comdat any

$_Z31__device_stub__flash_fwd_kernelI23Flash_fwd_kernel_traitsILi192ELi64ELi64ELi4ELb0ELb0EN7cutlass6half_tE19Flash_kernel_traitsILi192ELi64ELi64ELi4ES2_EELb1ELb0ELb1ELb0ELb0ELb0ELb0ELb1EEv16Flash_fwd_params = comdat any

$_ZZZZZZZZZZZZZ13run_flash_fwdI23Flash_fwd_kernel_traitsILi192ELi64ELi64ELi4ELb0ELb0EN7cutlass6half_tE19Flash_kernel_traitsILi192ELi64ELi64ELi4ES2_EELb1ELb0EEvR16Flash_fwd_paramsP11CUstream_stENKUlvE_clEvENKUlvE_clEvENKUlvE_clEvENKUlvE0_clEvENKUlvE_clEvENKUlvE_clEvENKUlvE_clEvENKUlvE0_clEvENKUlvE_clEvENKUlvE_clEvENKUlvE_clEvENKUlvE_clEv = comdat any

$_ZZZZZZZZZZZZZ13run_flash_fwdI23Flash_fwd_kernel_traitsILi192ELi64ELi64ELi4ELb0ELb0EN7cutlass6half_tE19Flash_kernel_traitsILi192ELi64ELi64ELi4ES2_EELb1ELb0EEvR16Flash_fwd_paramsP11CUstream_stENKUlvE_clEvENKUlvE_clEvENKUlvE_clEvENKUlvE0_clEvENKUlvE_clEvENKUlvE_clEvENKUlvE_clEvENKUlvE0_clEvENKUlvE_clEvENKUlvE_clEvENKUlvE_clEvENKUlvE0_clEv = comdat any

$_Z31__device_stub__flash_fwd_kernelI23Flash_fwd_kernel_traitsILi192ELi64ELi64ELi4ELb0ELb0EN7cutlass6half_tE19Flash_kernel_traitsILi192ELi64ELi64ELi4ES2_EELb1ELb0ELb1ELb1ELb0ELb0ELb0ELb0EEv16Flash_fwd_params = comdat any

$_ZZZZZZZZZZZZZ13run_flash_fwdI23Flash_fwd_kernel_traitsILi192ELi64ELi64ELi4ELb0ELb0EN7cutlass6half_tE19Flash_kernel_traitsILi192ELi64ELi64ELi4ES2_EELb1ELb0EEvR16Flash_fwd_paramsP11CUstream_stENKUlvE_clEvENKUlvE_clEvENKUlvE_clEvENKUlvE0_clEvENKUlvE_clEvENKUlvE_clEvENKUlvE_clEvENKUlvE0_clEvENKUlvE_clEvENKUlvE0_clEvENKUlvE_clEvENKUlvE_clEv = comdat any

$_ZZZZZZZZZZZZZ13run_flash_fwdI23Flash_fwd_kernel_traitsILi192ELi64ELi64ELi4ELb0ELb0EN7cutlass6half_tE19Flash_kernel_traitsILi192ELi64ELi64ELi4ES2_EELb1ELb0EEvR16Flash_fwd_paramsP11CUstream_stENKUlvE_clEvENKUlvE_clEvENKUlvE_clEvENKUlvE0_clEvENKUlvE_clEvENKUlvE_clEvENKUlvE_clEvENKUlvE0_clEvENKUlvE_clEvENKUlvE0_clEvENKUlvE_clEvENKUlvE0_clEv = comdat any

$_Z31__device_stub__flash_fwd_kernelI23Flash_fwd_kernel_traitsILi192ELi64ELi64ELi4ELb0ELb0EN7cutlass6half_tE19Flash_kernel_traitsILi192ELi64ELi64ELi4ES2_EELb1ELb0ELb1ELb0ELb0ELb0ELb0ELb0EEv16Flash_fwd_params = comdat any

$_ZZZZZZZZ13run_flash_fwdI23Flash_fwd_kernel_traitsILi192ELi64ELi64ELi4ELb0ELb0EN7cutlass6half_tE19Flash_kernel_traitsILi192ELi64ELi64ELi4ES2_EELb1ELb0EEvR16Flash_fwd_paramsP11CUstream_stENKUlvE_clEvENKUlvE_clEvENKUlvE_clEvENKUlvE0_clEvENKUlvE_clEvENKUlvE0_clEvENKUlvE_clEv = comdat any

$_ZZZZZZZZZZZZZ13run_flash_fwdI23Flash_fwd_kernel_traitsILi192ELi64ELi64ELi4ELb0ELb0EN7cutlass6half_tE19Flash_kernel_traitsILi192ELi64ELi64ELi4ES2_EELb1ELb0EEvR16Flash_fwd_paramsP11CUstream_stENKUlvE_clEvENKUlvE_clEvENKUlvE_clEvENKUlvE0_clEvENKUlvE_clEvENKUlvE0_clEvENKUlvE_clEvENKUlvE_clEvENKUlvE_clEvENKUlvE_clEvENKUlvE_clEvENKUlvE_clEv = comdat any

$_ZZZZZZZZZZZZZ13run_flash_fwdI23Flash_fwd_kernel_traitsILi192ELi64ELi64ELi4ELb0ELb0EN7cutlass6half_tE19Flash_kernel_traitsILi192ELi64ELi64ELi4ES2_EELb1ELb0EEvR16Flash_fwd_paramsP11CUstream_stENKUlvE_clEvENKUlvE_clEvENKUlvE_clEvENKUlvE0_clEvENKUlvE_clEvENKUlvE0_clEvENKUlvE_clEvENKUlvE_clEvENKUlvE_clEvENKUlvE_clEvENKUlvE_clEvENKUlvE0_clEv = comdat any

$_Z31__device_stub__flash_fwd_kernelI23Flash_fwd_kernel_traitsILi192ELi64ELi64ELi4ELb0ELb0EN7cutlass6half_tE19Flash_kernel_traitsILi192ELi64ELi64ELi4ES2_EELb0ELb0ELb0ELb1ELb0ELb0ELb1ELb0EEv16Flash_fwd_params = comdat any

$_Z31__device_stub__flash_fwd_kernelI23Flash_fwd_kernel_traitsILi192ELi64ELi64ELi4ELb0ELb0EN7cutlass6half_tE19Flash_kernel_traitsILi192ELi64ELi64ELi4ES2_EELb1ELb0ELb0ELb1ELb0ELb0ELb0ELb1EEv16Flash_fwd_params = comdat any

$_ZZZZZZZZZZZZZ13run_flash_fwdI23Flash_fwd_kernel_traitsILi192ELi64ELi64ELi4ELb0ELb0EN7cutlass6half_tE19Flash_kernel_traitsILi192ELi64ELi64ELi4ES2_EELb1ELb0EEvR16Flash_fwd_paramsP11CUstream_stENKUlvE_clEvENKUlvE_clEvENKUlvE_clEvENKUlvE0_clEvENKUlvE_clEvENKUlvE0_clEvENKUlvE_clEvENKUlvE_clEvENKUlvE_clEvENKUlvE0_clEvENKUlvE_clEvENKUlvE_clEv = comdat any

$_ZZZZZZZZZZZZZ13run_flash_fwdI23Flash_fwd_kernel_traitsILi192ELi64ELi64ELi4ELb0ELb0EN7cutlass6half_tE19Flash_kernel_traitsILi192ELi64ELi64ELi4ES2_EELb1ELb0EEvR16Flash_fwd_paramsP11CUstream_stENKUlvE_clEvENKUlvE_clEvENKUlvE_clEvENKUlvE0_clEvENKUlvE_clEvENKUlvE0_clEvENKUlvE_clEvENKUlvE_clEvENKUlvE_clEvENKUlvE0_clEvENKUlvE_clEvENKUlvE0_clEv = comdat any

$_Z31__device_stub__flash_fwd_kernelI23Flash_fwd_kernel_traitsILi192ELi64ELi64ELi4ELb0ELb0EN7cutlass6half_tE19Flash_kernel_traitsILi192ELi64ELi64ELi4ES2_EELb0ELb0ELb0ELb0ELb0ELb0ELb1ELb0EEv16Flash_fwd_params = comdat any

$_Z31__device_stub__flash_fwd_kernelI23Flash_fwd_kernel_traitsILi192ELi64ELi64ELi4ELb0ELb0EN7cutlass6half_tE19Flash_kernel_traitsILi192ELi64ELi64ELi4ES2_EELb1ELb0ELb0ELb0ELb0ELb0ELb0ELb1EEv16Flash_fwd_params = comdat any

$_ZZZZZZZZZZZZZ13run_flash_fwdI23Flash_fwd_kernel_traitsILi192ELi64ELi64ELi4ELb0ELb0EN7cutlass6half_tE19Flash_kernel_traitsILi192ELi64ELi64ELi4ES2_EELb1ELb0EEvR16Flash_fwd_paramsP11CUstream_stENKUlvE_clEvENKUlvE_clEvENKUlvE_clEvENKUlvE0_clEvENKUlvE_clEvENKUlvE0_clEvENKUlvE_clEvENKUlvE0_clEvENKUlvE_clEvENKUlvE_clEvENKUlvE_clEvENKUlvE_clEv = comdat any

$_ZZZZZZZZZZZZZ13run_flash_fwdI23Flash_fwd_kernel_traitsILi192ELi64ELi64ELi4ELb0ELb0EN7cutlass6half_tE19Flash_kernel_traitsILi192ELi64ELi64ELi4ES2_EELb1ELb0EEvR16Flash_fwd_paramsP11CUstream_stENKUlvE_clEvENKUlvE_clEvENKUlvE_clEvENKUlvE0_clEvENKUlvE_clEvENKUlvE0_clEvENKUlvE_clEvENKUlvE0_clEvENKUlvE_clEvENKUlvE_clEvENKUlvE_clEvENKUlvE0_clEv = comdat any

$_Z31__device_stub__flash_fwd_kernelI23Flash_fwd_kernel_traitsILi192ELi64ELi64ELi4ELb0ELb0EN7cutlass6half_tE19Flash_kernel_traitsILi192ELi64ELi64ELi4ES2_EELb1ELb0ELb0ELb1ELb0ELb0ELb0ELb0EEv16Flash_fwd_params = comdat any

$_ZZZZZZZZZZZZZ13run_flash_fwdI23Flash_fwd_kernel_traitsILi192ELi64ELi64ELi4ELb0ELb0EN7cutlass6half_tE19Flash_kernel_traitsILi192ELi64ELi64ELi4ES2_EELb1ELb0EEvR16Flash_fwd_paramsP11CUstream_stENKUlvE_clEvENKUlvE_clEvENKUlvE_clEvENKUlvE0_clEvENKUlvE_clEvENKUlvE0_clEvENKUlvE_clEvENKUlvE0_clEvENKUlvE_clEvENKUlvE0_clEvENKUlvE_clEvENKUlvE_clEv = comdat any

$_ZZZZZZZZZZZZZ13run_flash_fwdI23Flash_fwd_kernel_traitsILi192ELi64ELi64ELi4ELb0ELb0EN7cutlass6half_tE19Flash_kernel_traitsILi192ELi64ELi64ELi4ES2_EELb1ELb0EEvR16Flash_fwd_paramsP11CUstream_stENKUlvE_clEvENKUlvE_clEvENKUlvE_clEvENKUlvE0_clEvENKUlvE_clEvENKUlvE0_clEvENKUlvE_clEvENKUlvE0_clEvENKUlvE_clEvENKUlvE0_clEvENKUlvE_clEvENKUlvE0_clEv = comdat any

$_Z31__device_stub__flash_fwd_kernelI23Flash_fwd_kernel_traitsILi192ELi64ELi64ELi4ELb0ELb0EN7cutlass6half_tE19Flash_kernel_traitsILi192ELi64ELi64ELi4ES2_EELb1ELb0ELb0ELb0ELb0ELb0ELb0ELb0EEv16Flash_fwd_params = comdat any

$_ZZZZZZZZ13run_flash_fwdI23Flash_fwd_kernel_traitsILi192ELi64ELi64ELi4ELb0ELb0EN7cutlass6half_tE19Flash_kernel_traitsILi192ELi64ELi64ELi4ES2_EELb1ELb0EEvR16Flash_fwd_paramsP11CUstream_stENKUlvE_clEvENKUlvE0_clEvENKUlvE_clEvENKUlvE_clEvENKUlvE_clEvENKUlvE_clEvENKUlvE_clEv = comdat any

$_ZZZZZZZZZZZZZ13run_flash_fwdI23Flash_fwd_kernel_traitsILi192ELi64ELi64ELi4ELb0ELb0EN7cutlass6half_tE19Flash_kernel_traitsILi192ELi64ELi64ELi4ES2_EELb1ELb0EEvR16Flash_fwd_paramsP11CUstream_stENKUlvE_clEvENKUlvE0_clEvENKUlvE_clEvENKUlvE_clEvENKUlvE_clEvENKUlvE_clEvENKUlvE_clEvENKUlvE_clEvENKUlvE_clEvENKUlvE_clEvENKUlvE_clEvENKUlvE_clEv = comdat any

$_ZZZZZZZZZZZZZ13run_flash_fwdI23Flash_fwd_kernel_traitsILi192ELi64ELi64ELi4ELb0ELb0EN7cutlass6half_tE19Flash_kernel_traitsILi192ELi64ELi64ELi4ES2_EELb1ELb0EEvR16Flash_fwd_paramsP11CUstream_stENKUlvE_clEvENKUlvE0_clEvENKUlvE_clEvENKUlvE_clEvENKUlvE_clEvENKUlvE_clEvENKUlvE_clEvENKUlvE_clEvENKUlvE_clEvENKUlvE_clEvENKUlvE_clEvENKUlvE0_clEv = comdat any

$_ZZZZZZZZZZZZZ13run_flash_fwdI23Flash_fwd_kernel_traitsILi192ELi64ELi64ELi4ELb0ELb0EN7cutlass6half_tE19Flash_kernel_traitsILi192ELi64ELi64ELi4ES2_EELb1ELb0EEvR16Flash_fwd_paramsP11CUstream_stENKUlvE_clEvENKUlvE0_clEvENKUlvE_clEvENKUlvE_clEvENKUlvE_clEvENKUlvE_clEvENKUlvE_clEvENKUlvE_clEvENKUlvE_clEvENKUlvE0_clEvENKUlvE_clEvENKUlvE_clEv = comdat any

$_ZZZZZZZZZZZZZ13run_flash_fwdI23Flash_fwd_kernel_traitsILi192ELi64ELi64ELi4ELb0ELb0EN7cutlass6half_tE19Flash_kernel_traitsILi192ELi64ELi64ELi4ES2_EELb1ELb0EEvR16Flash_fwd_paramsP11CUstream_stENKUlvE_clEvENKUlvE0_clEvENKUlvE_clEvENKUlvE_clEvENKUlvE_clEvENKUlvE_clEvENKUlvE_clEvENKUlvE_clEvENKUlvE_clEvENKUlvE0_clEvENKUlvE_clEvENKUlvE0_clEv = comdat any

$_ZZZZZZZZZZZZZ13run_flash_fwdI23Flash_fwd_kernel_traitsILi192ELi64ELi64ELi4ELb0ELb0EN7cutlass6half_tE19Flash_kernel_traitsILi192ELi64ELi64ELi4ES2_EELb1ELb0EEvR16Flash_fwd_paramsP11CUstream_stENKUlvE_clEvENKUlvE0_clEvENKUlvE_clEvENKUlvE_clEvENKUlvE_clEvENKUlvE_clEvENKUlvE_clEvENKUlvE0_clEvENKUlvE_clEvENKUlvE_clEvENKUlvE_clEvENKUlvE_clEv = comdat any

$_ZZZZZZZZZZZZZ13run_flash_fwdI23Flash_fwd_kernel_traitsILi192ELi64ELi64ELi4ELb0ELb0EN7cutlass6half_tE19Flash_kernel_traitsILi192ELi64ELi64ELi4ES2_EELb1ELb0EEvR16Flash_fwd_paramsP11CUstream_stENKUlvE_clEvENKUlvE0_clEvENKUlvE_clEvENKUlvE_clEvENKUlvE_clEvENKUlvE_clEvENKUlvE_clEvENKUlvE0_clEvENKUlvE_clEvENKUlvE_clEvENKUlvE_clEvENKUlvE0_clEv = comdat any

$_ZZZZZZZZZZZZZ13run_flash_fwdI23Flash_fwd_kernel_traitsILi192ELi64ELi64ELi4ELb0ELb0EN7cutlass6half_tE19Flash_kernel_traitsILi192ELi64ELi64ELi4ES2_EELb1ELb0EEvR16Flash_fwd_paramsP11CUstream_stENKUlvE_clEvENKUlvE0_clEvENKUlvE_clEvENKUlvE_clEvENKUlvE_clEvENKUlvE_clEvENKUlvE_clEvENKUlvE0_clEvENKUlvE_clEvENKUlvE0_clEvENKUlvE_clEvENKUlvE_clEv = comdat any

$_ZZZZZZZZZZZZZ13run_flash_fwdI23Flash_fwd_kernel_traitsILi192ELi64ELi64ELi4ELb0ELb0EN7cutlass6half_tE19Flash_kernel_traitsILi192ELi64ELi64ELi4ES2_EELb1ELb0EEvR16Flash_fwd_paramsP11CUstream_stENKUlvE_clEvENKUlvE0_clEvENKUlvE_clEvENKUlvE_clEvENKUlvE_clEvENKUlvE_clEvENKUlvE_clEvENKUlvE0_clEvENKUlvE_clEvENKUlvE0_clEvENKUlvE_clEvENKUlvE0_clEv = comdat any

$_ZZZZZZZZ13run_flash_fwdI23Flash_fwd_kernel_traitsILi192ELi64ELi64ELi4ELb0ELb0EN7cutlass6half_tE19Flash_kernel_traitsILi192ELi64ELi64ELi4ES2_EELb1ELb0EEvR16Flash_fwd_paramsP11CUstream_stENKUlvE_clEvENKUlvE0_clEvENKUlvE_clEvENKUlvE_clEvENKUlvE_clEvENKUlvE0_clEvENKUlvE_clEv = comdat any

$_ZZZZZZZZZZZZZ13run_flash_fwdI23Flash_fwd_kernel_traitsILi192ELi64ELi64ELi4ELb0ELb0EN7cutlass6half_tE19Flash_kernel_traitsILi192ELi64ELi64ELi4ES2_EELb1ELb0EEvR16Flash_fwd_paramsP11CUstream_stENKUlvE_clEvENKUlvE0_clEvENKUlvE_clEvENKUlvE_clEvENKUlvE_clEvENKUlvE0_clEvENKUlvE_clEvENKUlvE_clEvENKUlvE_clEvENKUlvE_clEvENKUlvE_clEvENKUlvE_clEv = comdat any

$_ZZZZZZZZZZZZZ13run_flash_fwdI23Flash_fwd_kernel_traitsILi192ELi64ELi64ELi4ELb0ELb0EN7cutlass6half_tE19Flash_kernel_traitsILi192ELi64ELi64ELi4ES2_EELb1ELb0EEvR16Flash_fwd_paramsP11CUstream_stENKUlvE_clEvENKUlvE0_clEvENKUlvE_clEvENKUlvE_clEvENKUlvE_clEvENKUlvE0_clEvENKUlvE_clEvENKUlvE_clEvENKUlvE_clEvENKUlvE_clEvENKUlvE_clEvENKUlvE0_clEv = comdat any

$_ZZZZZZZZZZZZZ13run_flash_fwdI23Flash_fwd_kernel_traitsILi192ELi64ELi64ELi4ELb0ELb0EN7cutlass6half_tE19Flash_kernel_traitsILi192ELi64ELi64ELi4ES2_EELb1ELb0EEvR16Flash_fwd_paramsP11CUstream_stENKUlvE_clEvENKUlvE0_clEvENKUlvE_clEvENKUlvE_clEvENKUlvE_clEvENKUlvE0_clEvENKUlvE_clEvENKUlvE_clEvENKUlvE_clEvENKUlvE0_clEvENKUlvE_clEvENKUlvE_clEv = comdat any

$_ZZZZZZZZZZZZZ13run_flash_fwdI23Flash_fwd_kernel_traitsILi192ELi64ELi64ELi4ELb0ELb0EN7cutlass6half_tE19Flash_kernel_traitsILi192ELi64ELi64ELi4ES2_EELb1ELb0EEvR16Flash_fwd_paramsP11CUstream_stENKUlvE_clEvENKUlvE0_clEvENKUlvE_clEvENKUlvE_clEvENKUlvE_clEvENKUlvE0_clEvENKUlvE_clEvENKUlvE_clEvENKUlvE_clEvENKUlvE0_clEvENKUlvE_clEvENKUlvE0_clEv = comdat any

$_ZZZZZZZZZZZZZ13run_flash_fwdI23Flash_fwd_kernel_traitsILi192ELi64ELi64ELi4ELb0ELb0EN7cutlass6half_tE19Flash_kernel_traitsILi192ELi64ELi64ELi4ES2_EELb1ELb0EEvR16Flash_fwd_paramsP11CUstream_stENKUlvE_clEvENKUlvE0_clEvENKUlvE_clEvENKUlvE_clEvENKUlvE_clEvENKUlvE0_clEvENKUlvE_clEvENKUlvE0_clEvENKUlvE_clEvENKUlvE_clEvENKUlvE_clEvENKUlvE_clEv = comdat any

$_ZZZZZZZZZZZZZ13run_flash_fwdI23Flash_fwd_kernel_traitsILi192ELi64ELi64ELi4ELb0ELb0EN7cutlass6half_tE19Flash_kernel_traitsILi192ELi64ELi64ELi4ES2_EELb1ELb0EEvR16Flash_fwd_paramsP11CUstream_stENKUlvE_clEvENKUlvE0_clEvENKUlvE_clEvENKUlvE_clEvENKUlvE_clEvENKUlvE0_clEvENKUlvE_clEvENKUlvE0_clEvENKUlvE_clEvENKUlvE_clEvENKUlvE_clEvENKUlvE0_clEv = comdat any

$_ZZZZZZZZZZZZZ13run_flash_fwdI23Flash_fwd_kernel_traitsILi192ELi64ELi64ELi4ELb0ELb0EN7cutlass6half_tE19Flash_kernel_traitsILi192ELi64ELi64ELi4ES2_EELb1ELb0EEvR16Flash_fwd_paramsP11CUstream_stENKUlvE_clEvENKUlvE0_clEvENKUlvE_clEvENKUlvE_clEvENKUlvE_clEvENKUlvE0_clEvENKUlvE_clEvENKUlvE0_clEvENKUlvE_clEvENKUlvE0_clEvENKUlvE_clEvENKUlvE_clEv = comdat any

$_ZZZZZZZZZZZZZ13run_flash_fwdI23Flash_fwd_kernel_traitsILi192ELi64ELi64ELi4ELb0ELb0EN7cutlass6half_tE19Flash_kernel_traitsILi192ELi64ELi64ELi4ES2_EELb1ELb0EEvR16Flash_fwd_paramsP11CUstream_stENKUlvE_clEvENKUlvE0_clEvENKUlvE_clEvENKUlvE_clEvENKUlvE_clEvENKUlvE0_clEvENKUlvE_clEvENKUlvE0_clEvENKUlvE_clEvENKUlvE0_clEvENKUlvE_clEvENKUlvE0_clEv = comdat any

$_ZZZZZZZZ13run_flash_fwdI23Flash_fwd_kernel_traitsILi192ELi64ELi64ELi4ELb0ELb0EN7cutlass6half_tE19Flash_kernel_traitsILi192ELi64ELi64ELi4ES2_EELb1ELb0EEvR16Flash_fwd_paramsP11CUstream_stENKUlvE_clEvENKUlvE0_clEvENKUlvE_clEvENKUlvE0_clEvENKUlvE_clEvENKUlvE_clEvENKUlvE_clEv = comdat any

$_ZZZZZZZZZZZZZ13run_flash_fwdI23Flash_fwd_kernel_traitsILi192ELi64ELi64ELi4ELb0ELb0EN7cutlass6half_tE19Flash_kernel_traitsILi192ELi64ELi64ELi4ES2_EELb1ELb0EEvR16Flash_fwd_paramsP11CUstream_stENKUlvE_clEvENKUlvE0_clEvENKUlvE_clEvENKUlvE0_clEvENKUlvE_clEvENKUlvE_clEvENKUlvE_clEvENKUlvE_clEvENKUlvE_clEvENKUlvE_clEvENKUlvE_clEvENKUlvE_clEv = comdat any

$_ZZZZZZZZZZZZZ13run_flash_fwdI23Flash_fwd_kernel_traitsILi192ELi64ELi64ELi4ELb0ELb0EN7cutlass6half_tE19Flash_kernel_traitsILi192ELi64ELi64ELi4ES2_EELb1ELb0EEvR16Flash_fwd_paramsP11CUstream_stENKUlvE_clEvENKUlvE0_clEvENKUlvE_clEvENKUlvE0_clEvENKUlvE_clEvENKUlvE_clEvENKUlvE_clEvENKUlvE_clEvENKUlvE_clEvENKUlvE_clEvENKUlvE_clEvENKUlvE0_clEv = comdat any

$_ZZZZZZZZZZZZZ13run_flash_fwdI23Flash_fwd_kernel_traitsILi192ELi64ELi64ELi4ELb0ELb0EN7cutlass6half_tE19Flash_kernel_traitsILi192ELi64ELi64ELi4ES2_EELb1ELb0EEvR16Flash_fwd_paramsP11CUstream_stENKUlvE_clEvENKUlvE0_clEvENKUlvE_clEvENKUlvE0_clEvENKUlvE_clEvENKUlvE_clEvENKUlvE_clEvENKUlvE_clEvENKUlvE_clEvENKUlvE0_clEvENKUlvE_clEvENKUlvE_clEv = comdat any

$_ZZZZZZZZZZZZZ13run_flash_fwdI23Flash_fwd_kernel_traitsILi192ELi64ELi64ELi4ELb0ELb0EN7cutlass6half_tE19Flash_kernel_traitsILi192ELi64ELi64ELi4ES2_EELb1ELb0EEvR16Flash_fwd_paramsP11CUstream_stENKUlvE_clEvENKUlvE0_clEvENKUlvE_clEvENKUlvE0_clEvENKUlvE_clEvENKUlvE_clEvENKUlvE_clEvENKUlvE_clEvENKUlvE_clEvENKUlvE0_clEvENKUlvE_clEvENKUlvE0_clEv = comdat any

$_ZZZZZZZZZZZZZ13run_flash_fwdI23Flash_fwd_kernel_traitsILi192ELi64ELi64ELi4ELb0ELb0EN7cutlass6half_tE19Flash_kernel_traitsILi192ELi64ELi64ELi4ES2_EELb1ELb0EEvR16Flash_fwd_paramsP11CUstream_stENKUlvE_clEvENKUlvE0_clEvENKUlvE_clEvENKUlvE0_clEvENKUlvE_clEvENKUlvE_clEvENKUlvE_clEvENKUlvE0_clEvENKUlvE_clEvENKUlvE_clEvENKUlvE_clEvENKUlvE_clEv = comdat any

$_ZZZZZZZZZZZZZ13run_flash_fwdI23Flash_fwd_kernel_traitsILi192ELi64ELi64ELi4ELb0ELb0EN7cutlass6half_tE19Flash_kernel_traitsILi192ELi64ELi64ELi4ES2_EELb1ELb0EEvR16Flash_fwd_paramsP11CUstream_stENKUlvE_clEvENKUlvE0_clEvENKUlvE_clEvENKUlvE0_clEvENKUlvE_clEvENKUlvE_clEvENKUlvE_clEvENKUlvE0_clEvENKUlvE_clEvENKUlvE_clEvENKUlvE_clEvENKUlvE0_clEv = comdat any

$_ZZZZZZZZZZZZZ13run_flash_fwdI23Flash_fwd_kernel_traitsILi192ELi64ELi64ELi4ELb0ELb0EN7cutlass6half_tE19Flash_kernel_traitsILi192ELi64ELi64ELi4ES2_EELb1ELb0EEvR16Flash_fwd_paramsP11CUstream_stENKUlvE_clEvENKUlvE0_clEvENKUlvE_clEvENKUlvE0_clEvENKUlvE_clEvENKUlvE_clEvENKUlvE_clEvENKUlvE0_clEvENKUlvE_clEvENKUlvE0_clEvENKUlvE_clEvENKUlvE_clEv = comdat any

$_ZZZZZZZZZZZZZ13run_flash_fwdI23Flash_fwd_kernel_traitsILi192ELi64ELi64ELi4ELb0ELb0EN7cutlass6half_tE19Flash_kernel_traitsILi192ELi64ELi64ELi4ES2_EELb1ELb0EEvR16Flash_fwd_paramsP11CUstream_stENKUlvE_clEvENKUlvE0_clEvENKUlvE_clEvENKUlvE0_clEvENKUlvE_clEvENKUlvE_clEvENKUlvE_clEvENKUlvE0_clEvENKUlvE_clEvENKUlvE0_clEvENKUlvE_clEvENKUlvE0_clEv = comdat any

$_ZZZZZZZZ13run_flash_fwdI23Flash_fwd_kernel_traitsILi192ELi64ELi64ELi4ELb0ELb0EN7cutlass6half_tE19Flash_kernel_traitsILi192ELi64ELi64ELi4ES2_EELb1ELb0EEvR16Flash_fwd_paramsP11CUstream_stENKUlvE_clEvENKUlvE0_clEvENKUlvE_clEvENKUlvE0_clEvENKUlvE_clEvENKUlvE0_clEvENKUlvE_clEv = comdat any

$_ZZZZZZZZZZZZZ13run_flash_fwdI23Flash_fwd_kernel_traitsILi192ELi64ELi64ELi4ELb0ELb0EN7cutlass6half_tE19Flash_kernel_traitsILi192ELi64ELi64ELi4ES2_EELb1ELb0EEvR16Flash_fwd_paramsP11CUstream_stENKUlvE_clEvENKUlvE0_clEvENKUlvE_clEvENKUlvE0_clEvENKUlvE_clEvENKUlvE0_clEvENKUlvE_clEvENKUlvE_clEvENKUlvE_clEvENKUlvE_clEvENKUlvE_clEvENKUlvE_clEv = comdat any

$_ZZZZZZZZZZZZZ13run_flash_fwdI23Flash_fwd_kernel_traitsILi192ELi64ELi64ELi4ELb0ELb0EN7cutlass6half_tE19Flash_kernel_traitsILi192ELi64ELi64ELi4ES2_EELb1ELb0EEvR16Flash_fwd_paramsP11CUstream_stENKUlvE_clEvENKUlvE0_clEvENKUlvE_clEvENKUlvE0_clEvENKUlvE_clEvENKUlvE0_clEvENKUlvE_clEvENKUlvE_clEvENKUlvE_clEvENKUlvE_clEvENKUlvE_clEvENKUlvE0_clEv = comdat any

$_ZZZZZZZZZZZZZ13run_flash_fwdI23Flash_fwd_kernel_traitsILi192ELi64ELi64ELi4ELb0ELb0EN7cutlass6half_tE19Flash_kernel_traitsILi192ELi64ELi64ELi4ES2_EELb1ELb0EEvR16Flash_fwd_paramsP11CUstream_stENKUlvE_clEvENKUlvE0_clEvENKUlvE_clEvENKUlvE0_clEvENKUlvE_clEvENKUlvE0_clEvENKUlvE_clEvENKUlvE_clEvENKUlvE_clEvENKUlvE0_clEvENKUlvE_clEvENKUlvE_clEv = comdat any

$_ZZZZZZZZZZZZZ13run_flash_fwdI23Flash_fwd_kernel_traitsILi192ELi64ELi64ELi4ELb0ELb0EN7cutlass6half_tE19Flash_kernel_traitsILi192ELi64ELi64ELi4ES2_EELb1ELb0EEvR16Flash_fwd_paramsP11CUstream_stENKUlvE_clEvENKUlvE0_clEvENKUlvE_clEvENKUlvE0_clEvENKUlvE_clEvENKUlvE0_clEvENKUlvE_clEvENKUlvE_clEvENKUlvE_clEvENKUlvE0_clEvENKUlvE_clEvENKUlvE0_clEv = comdat any

$_ZZZZZZZZZZZZZ13run_flash_fwdI23Flash_fwd_kernel_traitsILi192ELi64ELi64ELi4ELb0ELb0EN7cutlass6half_tE19Flash_kernel_traitsILi192ELi64ELi64ELi4ES2_EELb1ELb0EEvR16Flash_fwd_paramsP11CUstream_stENKUlvE_clEvENKUlvE0_clEvENKUlvE_clEvENKUlvE0_clEvENKUlvE_clEvENKUlvE0_clEvENKUlvE_clEvENKUlvE0_clEvENKUlvE_clEvENKUlvE_clEvENKUlvE_clEvENKUlvE_clEv = comdat any

$_ZZZZZZZZZZZZZ13run_flash_fwdI23Flash_fwd_kernel_traitsILi192ELi64ELi64ELi4ELb0ELb0EN7cutlass6half_tE19Flash_kernel_traitsILi192ELi64ELi64ELi4ES2_EELb1ELb0EEvR16Flash_fwd_paramsP11CUstream_stENKUlvE_clEvENKUlvE0_clEvENKUlvE_clEvENKUlvE0_clEvENKUlvE_clEvENKUlvE0_clEvENKUlvE_clEvENKUlvE0_clEvENKUlvE_clEvENKUlvE_clEvENKUlvE_clEvENKUlvE0_clEv = comdat any

$_ZZZZZZZZZZZZZ13run_flash_fwdI23Flash_fwd_kernel_traitsILi192ELi64ELi64ELi4ELb0ELb0EN7cutlass6half_tE19Flash_kernel_traitsILi192ELi64ELi64ELi4ES2_EELb1ELb0EEvR16Flash_fwd_paramsP11CUstream_stENKUlvE_clEvENKUlvE0_clEvENKUlvE_clEvENKUlvE0_clEvENKUlvE_clEvENKUlvE0_clEvENKUlvE_clEvENKUlvE0_clEvENKUlvE_clEvENKUlvE0_clEvENKUlvE_clEvENKUlvE_clEv = comdat any

$_ZZZZZZZZZZZZZ13run_flash_fwdI23Flash_fwd_kernel_traitsILi192ELi64ELi64ELi4ELb0ELb0EN7cutlass6half_tE19Flash_kernel_traitsILi192ELi64ELi64ELi4ES2_EELb1ELb0EEvR16Flash_fwd_paramsP11CUstream_stENKUlvE_clEvENKUlvE0_clEvENKUlvE_clEvENKUlvE0_clEvENKUlvE_clEvENKUlvE0_clEvENKUlvE_clEvENKUlvE0_clEvENKUlvE_clEvENKUlvE0_clEvENKUlvE_clEvENKUlvE0_clEv = comdat any

$_ZZ13run_flash_fwdI23Flash_fwd_kernel_traitsILi192ELi128ELi64ELi8ELb0ELb0EN7cutlass6half_tE19Flash_kernel_traitsILi192ELi128ELi64ELi8ES2_EELb0ELb0EEvR16Flash_fwd_paramsP11CUstream_stENKUlvE_clEv = comdat any

$_ZZZZZZZZ13run_flash_fwdI23Flash_fwd_kernel_traitsILi192ELi128ELi64ELi8ELb0ELb0EN7cutlass6half_tE19Flash_kernel_traitsILi192ELi128ELi64ELi8ES2_EELb0ELb0EEvR16Flash_fwd_paramsP11CUstream_stENKUlvE_clEvENKUlvE_clEvENKUlvE_clEvENKUlvE_clEvENKUlvE_clEvENKUlvE_clEvENKUlvE_clEv = comdat any

$_ZZZZZZZZZZZZZ13run_flash_fwdI23Flash_fwd_kernel_traitsILi192ELi128ELi64ELi8ELb0ELb0EN7cutlass6half_tE19Flash_kernel_traitsILi192ELi128ELi64ELi8ES2_EELb0ELb0EEvR16Flash_fwd_paramsP11CUstream_stENKUlvE_clEvENKUlvE_clEvENKUlvE_clEvENKUlvE_clEvENKUlvE_clEvENKUlvE_clEvENKUlvE_clEvENKUlvE_clEvENKUlvE_clEvENKUlvE_clEvENKUlvE_clEvENKUlvE_clEv = comdat any

$_ZZZZZZZZZZZZZ13run_flash_fwdI23Flash_fwd_kernel_traitsILi192ELi128ELi64ELi8ELb0ELb0EN7cutlass6half_tE19Flash_kernel_traitsILi192ELi128ELi64ELi8ES2_EELb0ELb0EEvR16Flash_fwd_paramsP11CUstream_stENKUlvE_clEvENKUlvE_clEvENKUlvE_clEvENKUlvE_clEvENKUlvE_clEvENKUlvE_clEvENKUlvE_clEvENKUlvE_clEvENKUlvE_clEvENKUlvE_clEvENKUlvE_clEvENKUlvE0_clEv = comdat any

$_Z31__device_stub__flash_fwd_kernelI23Flash_fwd_kernel_traitsILi192ELi128ELi64ELi8ELb0ELb0EN7cutlass6half_tE19Flash_kernel_traitsILi192ELi128ELi64ELi8ES2_EELb0ELb0ELb1ELb1ELb0ELb1ELb1ELb0EEv16Flash_fwd_params = comdat any

$_Z31__device_stub__flash_fwd_kernelI23Flash_fwd_kernel_traitsILi192ELi128ELi64ELi8ELb0ELb0EN7cutlass6half_tE19Flash_kernel_traitsILi192ELi128ELi64ELi8ES2_EELb0ELb0ELb1ELb1ELb0ELb1ELb0ELb0EEv16Flash_fwd_params = comdat any

$_ZZZZZZZZZZZZZ13run_flash_fwdI23Flash_fwd_kernel_traitsILi192ELi128ELi64ELi8ELb0ELb0EN7cutlass6half_tE19Flash_kernel_traitsILi192ELi128ELi64ELi8ES2_EELb0ELb0EEvR16Flash_fwd_paramsP11CUstream_stENKUlvE_clEvENKUlvE_clEvENKUlvE_clEvENKUlvE_clEvENKUlvE_clEvENKUlvE_clEvENKUlvE_clEvENKUlvE_clEvENKUlvE_clEvENKUlvE0_clEvENKUlvE_clEvENKUlvE_clEv = comdat any

$_ZZZZZZZZZZZZZ13run_flash_fwdI23Flash_fwd_kernel_traitsILi192ELi128ELi64ELi8ELb0ELb0EN7cutlass6half_tE19Flash_kernel_traitsILi192ELi128ELi64ELi8ES2_EELb0ELb0EEvR16Flash_fwd_paramsP11CUstream_stENKUlvE_clEvENKUlvE_clEvENKUlvE_clEvENKUlvE_clEvENKUlvE_clEvENKUlvE_clEvENKUlvE_clEvENKUlvE_clEvENKUlvE_clEvENKUlvE0_clEvENKUlvE_clEvENKUlvE0_clEv = comdat any

$_Z31__device_stub__flash_fwd_kernelI23Flash_fwd_kernel_traitsILi192ELi128ELi64ELi8ELb0ELb0EN7cutlass6half_tE19Flash_kernel_traitsILi192ELi128ELi64ELi8ES2_EELb0ELb0ELb1ELb0ELb0ELb1ELb1ELb0EEv16Flash_fwd_params = comdat any

$_Z31__device_stub__flash_fwd_kernelI23Flash_fwd_kernel_traitsILi192ELi128ELi64ELi8ELb0ELb0EN7cutlass6half_tE19Flash_kernel_traitsILi192ELi128ELi64ELi8ES2_EELb0ELb0ELb1ELb0ELb0ELb1ELb0ELb0EEv16Flash_fwd_params = comdat any

$_ZZZZZZZZZZZZZ13run_flash_fwdI23Flash_fwd_kernel_traitsILi192ELi128ELi64ELi8ELb0ELb0EN7cutlass6half_tE19Flash_kernel_traitsILi192ELi128ELi64ELi8ES2_EELb0ELb0EEvR16Flash_fwd_paramsP11CUstream_stENKUlvE_clEvENKUlvE_clEvENKUlvE_clEvENKUlvE_clEvENKUlvE_clEvENKUlvE_clEvENKUlvE_clEvENKUlvE0_clEvENKUlvE_clEvENKUlvE_clEvENKUlvE_clEvENKUlvE_clEv = comdat any

$_ZZZZZZZZZZZZZ13run_flash_fwdI23Flash_fwd_kernel_traitsILi192ELi128ELi64ELi8ELb0ELb0EN7cutlass6half_tE19Flash_kernel_traitsILi192ELi128ELi64ELi8ES2_EELb0ELb0EEvR16Flash_fwd_paramsP11CUstream_stENKUlvE_clEvENKUlvE_clEvENKUlvE_clEvENKUlvE_clEvENKUlvE_clEvENKUlvE_clEvENKUlvE_clEvENKUlvE0_clEvENKUlvE_clEvENKUlvE_clEvENKUlvE_clEvENKUlvE0_clEv = comdat any

$_ZZZZZZZZZZZZZ13run_flash_fwdI23Flash_fwd_kernel_traitsILi192ELi128ELi64ELi8ELb0ELb0EN7cutlass6half_tE19Flash_kernel_traitsILi192ELi128ELi64ELi8ES2_EELb0ELb0EEvR16Flash_fwd_paramsP11CUstream_stENKUlvE_clEvENKUlvE_clEvENKUlvE_clEvENKUlvE_clEvENKUlvE_clEvENKUlvE_clEvENKUlvE_clEvENKUlvE0_clEvENKUlvE_clEvENKUlvE0_clEvENKUlvE_clEvENKUlvE_clEv = comdat any

$_ZZZZZZZZZZZZZ13run_flash_fwdI23Flash_fwd_kernel_traitsILi192ELi128ELi64ELi8ELb0ELb0EN7cutlass6half_tE19Flash_kernel_traitsILi192ELi128ELi64ELi8ES2_EELb0ELb0EEvR16Flash_fwd_paramsP11CUstream_stENKUlvE_clEvENKUlvE_clEvENKUlvE_clEvENKUlvE_clEvENKUlvE_clEvENKUlvE_clEvENKUlvE_clEvENKUlvE0_clEvENKUlvE_clEvENKUlvE0_clEvENKUlvE_clEvENKUlvE0_clEv = comdat any

$_ZZZZZZZZ13run_flash_fwdI23Flash_fwd_kernel_traitsILi192ELi128ELi64ELi8ELb0ELb0EN7cutlass6half_tE19Flash_kernel_traitsILi192ELi128ELi64ELi8ES2_EELb0ELb0EEvR16Flash_fwd_paramsP11CUstream_stENKUlvE_clEvENKUlvE_clEvENKUlvE_clEvENKUlvE_clEvENKUlvE_clEvENKUlvE0_clEvENKUlvE_clEv = comdat any

$_ZZZZZZZZZZZZZ13run_flash_fwdI23Flash_fwd_kernel_traitsILi192ELi128ELi64ELi8ELb0ELb0EN7cutlass6half_tE19Flash_kernel_traitsILi192ELi128ELi64ELi8ES2_EELb0ELb0EEvR16Flash_fwd_paramsP11CUstream_stENKUlvE_clEvENKUlvE_clEvENKUlvE_clEvENKUlvE_clEvENKUlvE_clEvENKUlvE0_clEvENKUlvE_clEvENKUlvE_clEvENKUlvE_clEvENKUlvE_clEvENKUlvE_clEvENKUlvE_clEv = comdat any

$_ZZZZZZZZZZZZZ13run_flash_fwdI23Flash_fwd_kernel_traitsILi192ELi128ELi64ELi8ELb0ELb0EN7cutlass6half_tE19Flash_kernel_traitsILi192ELi128ELi64ELi8ES2_EELb0ELb0EEvR16Flash_fwd_paramsP11CUstream_stENKUlvE_clEvENKUlvE_clEvENKUlvE_clEvENKUlvE_clEvENKUlvE_clEvENKUlvE0_clEvENKUlvE_clEvENKUlvE_clEvENKUlvE_clEvENKUlvE_clEvENKUlvE_clEvENKUlvE0_clEv = comdat any

$_Z31__device_stub__flash_fwd_kernelI23Flash_fwd_kernel_traitsILi192ELi128ELi64ELi8ELb0ELb0EN7cutlass6half_tE19Flash_kernel_traitsILi192ELi128ELi64ELi8ES2_EELb0ELb0ELb0ELb1ELb0ELb1ELb1ELb0EEv16Flash_fwd_params = comdat any

$_Z31__device_stub__flash_fwd_kernelI23Flash_fwd_kernel_traitsILi192ELi128ELi64ELi8ELb0ELb0EN7cutlass6half_tE19Flash_kernel_traitsILi192ELi128ELi64ELi8ES2_EELb0ELb0ELb0ELb1ELb0ELb1ELb0ELb0EEv16Flash_fwd_params = comdat any

$_ZZZZZZZZZZZZZ13run_flash_fwdI23Flash_fwd_kernel_traitsILi192ELi128ELi64ELi8ELb0ELb0EN7cutlass6half_tE19Flash_kernel_traitsILi192ELi128ELi64ELi8ES2_EELb0ELb0EEvR16Flash_fwd_paramsP11CUstream_stENKUlvE_clEvENKUlvE_clEvENKUlvE_clEvENKUlvE_clEvENKUlvE_clEvENKUlvE0_clEvENKUlvE_clEvENKUlvE_clEvENKUlvE_clEvENKUlvE0_clEvENKUlvE_clEvENKUlvE_clEv = comdat any

$_ZZZZZZZZZZZZZ13run_flash_fwdI23Flash_fwd_kernel_traitsILi192ELi128ELi64ELi8ELb0ELb0EN7cutlass6half_tE19Flash_kernel_traitsILi192ELi128ELi64ELi8ES2_EELb0ELb0EEvR16Flash_fwd_paramsP11CUstream_stENKUlvE_clEvENKUlvE_clEvENKUlvE_clEvENKUlvE_clEvENKUlvE_clEvENKUlvE0_clEvENKUlvE_clEvENKUlvE_clEvENKUlvE_clEvENKUlvE0_clEvENKUlvE_clEvENKUlvE0_clEv = comdat any

$_Z31__device_stub__flash_fwd_kernelI23Flash_fwd_kernel_traitsILi192ELi128ELi64ELi8ELb0ELb0EN7cutlass6half_tE19Flash_kernel_traitsILi192ELi128ELi64ELi8ES2_EELb0ELb0ELb0ELb0ELb0ELb1ELb1ELb0EEv16Flash_fwd_params = comdat any

$_Z31__device_stub__flash_fwd_kernelI23Flash_fwd_kernel_traitsILi192ELi128ELi64ELi8ELb0ELb0EN7cutlass6half_tE19Flash_kernel_traitsILi192ELi128ELi64ELi8ES2_EELb0ELb0ELb0ELb0ELb0ELb1ELb0ELb0EEv16Flash_fwd_params = comdat any

$_ZZZZZZZZZZZZZ13run_flash_fwdI23Flash_fwd_kernel_traitsILi192ELi128ELi64ELi8ELb0ELb0EN7cutlass6half_tE19Flash_kernel_traitsILi192ELi128ELi64ELi8ES2_EELb0ELb0EEvR16Flash_fwd_paramsP11CUstream_stENKUlvE_clEvENKUlvE_clEvENKUlvE_clEvENKUlvE_clEvENKUlvE_clEvENKUlvE0_clEvENKUlvE_clEvENKUlvE0_clEvENKUlvE_clEvENKUlvE_clEvENKUlvE_clEvENKUlvE_clEv = comdat any

$_ZZZZZZZZZZZZZ13run_flash_fwdI23Flash_fwd_kernel_traitsILi192ELi128ELi64ELi8ELb0ELb0EN7cutlass6half_tE19Flash_kernel_traitsILi192ELi128ELi64ELi8ES2_EELb0ELb0EEvR16Flash_fwd_paramsP11CUstream_stENKUlvE_clEvENKUlvE_clEvENKUlvE_clEvENKUlvE_clEvENKUlvE_clEvENKUlvE0_clEvENKUlvE_clEvENKUlvE0_clEvENKUlvE_clEvENKUlvE_clEvENKUlvE_clEvENKUlvE0_clEv = comdat any

$_ZZZZZZZZZZZZZ13run_flash_fwdI23Flash_fwd_kernel_traitsILi192ELi128ELi64ELi8ELb0ELb0EN7cutlass6half_tE19Flash_kernel_traitsILi192ELi128ELi64ELi8ES2_EELb0ELb0EEvR16Flash_fwd_paramsP11CUstream_stENKUlvE_clEvENKUlvE_clEvENKUlvE_clEvENKUlvE_clEvENKUlvE_clEvENKUlvE0_clEvENKUlvE_clEvENKUlvE0_clEvENKUlvE_clEvENKUlvE0_clEvENKUlvE_clEvENKUlvE_clEv = comdat any

$_ZZZZZZZZZZZZZ13run_flash_fwdI23Flash_fwd_kernel_traitsILi192ELi128ELi64ELi8ELb0ELb0EN7cutlass6half_tE19Flash_kernel_traitsILi192ELi128ELi64ELi8ES2_EELb0ELb0EEvR16Flash_fwd_paramsP11CUstream_stENKUlvE_clEvENKUlvE_clEvENKUlvE_clEvENKUlvE_clEvENKUlvE_clEvENKUlvE0_clEvENKUlvE_clEvENKUlvE0_clEvENKUlvE_clEvENKUlvE0_clEvENKUlvE_clEvENKUlvE0_clEv = comdat any

$_ZZZZZZZZ13run_flash_fwdI23Flash_fwd_kernel_traitsILi192ELi128ELi64ELi8ELb0ELb0EN7cutlass6half_tE19Flash_kernel_traitsILi192ELi128ELi64ELi8ES2_EELb0ELb0EEvR16Flash_fwd_paramsP11CUstream_stENKUlvE_clEvENKUlvE_clEvENKUlvE_clEvENKUlvE0_clEvENKUlvE_clEvENKUlvE_clEvENKUlvE_clEv = comdat any

$_ZZZZZZZZZZZZZ13run_flash_fwdI23Flash_fwd_kernel_traitsILi192ELi128ELi64ELi8ELb0ELb0EN7cutlass6half_tE19Flash_kernel_traitsILi192ELi128ELi64ELi8ES2_EELb0ELb0EEvR16Flash_fwd_paramsP11CUstream_stENKUlvE_clEvENKUlvE_clEvENKUlvE_clEvENKUlvE0_clEvENKUlvE_clEvENKUlvE_clEvENKUlvE_clEvENKUlvE_clEvENKUlvE_clEvENKUlvE_clEvENKUlvE_clEvENKUlvE_clEv = comdat any

$_ZZZZZZZZZZZZZ13run_flash_fwdI23Flash_fwd_kernel_traitsILi192ELi128ELi64ELi8ELb0ELb0EN7cutlass6half_tE19Flash_kernel_traitsILi192ELi128ELi64ELi8ES2_EELb0ELb0EEvR16Flash_fwd_paramsP11CUstream_stENKUlvE_clEvENKUlvE_clEvENKUlvE_clEvENKUlvE0_clEvENKUlvE_clEvENKUlvE_clEvENKUlvE_clEvENKUlvE_clEvENKUlvE_clEvENKUlvE_clEvENKUlvE_clEvENKUlvE0_clEv = comdat any

$_Z31__device_stub__flash_fwd_kernelI23Flash_fwd_kernel_traitsILi192ELi128ELi64ELi8ELb0ELb0EN7cutlass6half_tE19Flash_kernel_traitsILi192ELi128ELi64ELi8ES2_EELb0ELb0ELb1ELb1ELb0ELb0ELb1ELb0EEv16Flash_fwd_params = comdat any

$_Z31__device_stub__flash_fwd_kernelI23Flash_fwd_kernel_traitsILi192ELi128ELi64ELi8ELb0ELb0EN7cutlass6half_tE19Flash_kernel_traitsILi192ELi128ELi64ELi8ES2_EELb0ELb0ELb1ELb1ELb0ELb0ELb0ELb0EEv16Flash_fwd_params = comdat any

$_ZZZZZZZZZZZZZ13run_flash_fwdI23Flash_fwd_kernel_traitsILi192ELi128ELi64ELi8ELb0ELb0EN7cutlass6half_tE19Flash_kernel_traitsILi192ELi128ELi64ELi8ES2_EELb0ELb0EEvR16Flash_fwd_paramsP11CUstream_stENKUlvE_clEvENKUlvE_clEvENKUlvE_clEvENKUlvE0_clEvENKUlvE_clEvENKUlvE_clEvENKUlvE_clEvENKUlvE_clEvENKUlvE_clEvENKUlvE0_clEvENKUlvE_clEvENKUlvE_clEv = comdat any

$_ZZZZZZZZZZZZZ13run_flash_fwdI23Flash_fwd_kernel_traitsILi192ELi128ELi64ELi8ELb0ELb0EN7cutlass6half_tE19Flash_kernel_traitsILi192ELi128ELi64ELi8ES2_EELb0ELb0EEvR16Flash_fwd_paramsP11CUstream_stENKUlvE_clEvENKUlvE_clEvENKUlvE_clEvENKUlvE0_clEvENKUlvE_clEvENKUlvE_clEvENKUlvE_clEvENKUlvE_clEvENKUlvE_clEvENKUlvE0_clEvENKUlvE_clEvENKUlvE0_clEv = comdat any

$_Z31__device_stub__flash_fwd_kernelI23Flash_fwd_kernel_traitsILi192ELi128ELi64ELi8ELb0ELb0EN7cutlass6half_tE19Flash_kernel_traitsILi192ELi128ELi64ELi8ES2_EELb0ELb0ELb1ELb0ELb0ELb0ELb1ELb0EEv16Flash_fwd_params = comdat any

$_Z31__device_stub__flash_fwd_kernelI23Flash_fwd_kernel_traitsILi192ELi128ELi64ELi8ELb0ELb0EN7cutlass6half_tE19Flash_kernel_traitsILi192ELi128ELi64ELi8ES2_EELb0ELb0ELb1ELb0ELb0ELb0ELb0ELb0EEv16Flash_fwd_params = comdat any

$_ZZZZZZZZZZZZZ13run_flash_fwdI23Flash_fwd_kernel_traitsILi192ELi128ELi64ELi8ELb0ELb0EN7cutlass6half_tE19Flash_kernel_traitsILi192ELi128ELi64ELi8ES2_EELb0ELb0EEvR16Flash_fwd_paramsP11CUstream_stENKUlvE_clEvENKUlvE_clEvENKUlvE_clEvENKUlvE0_clEvENKUlvE_clEvENKUlvE_clEvENKUlvE_clEvENKUlvE0_clEvENKUlvE_clEvENKUlvE_clEvENKUlvE_clEvENKUlvE_clEv = comdat any

$_ZZZZZZZZZZZZZ13run_flash_fwdI23Flash_fwd_kernel_traitsILi192ELi128ELi64ELi8ELb0ELb0EN7cutlass6half_tE19Flash_kernel_traitsILi192ELi128ELi64ELi8ES2_EELb0ELb0EEvR16Flash_fwd_paramsP11CUstream_stENKUlvE_clEvENKUlvE_clEvENKUlvE_clEvENKUlvE0_clEvENKUlvE_clEvENKUlvE_clEvENKUlvE_clEvENKUlvE0_clEvENKUlvE_clEvENKUlvE_clEvENKUlvE_clEvENKUlvE0_clEv = comdat any

$_ZZZZZZZZZZZZZ13run_flash_fwdI23Flash_fwd_kernel_traitsILi192ELi128ELi64ELi8ELb0ELb0EN7cutlass6half_tE19Flash_kernel_traitsILi192ELi128ELi64ELi8ES2_EELb0ELb0EEvR16Flash_fwd_paramsP11CUstream_stENKUlvE_clEvENKUlvE_clEvENKUlvE_clEvENKUlvE0_clEvENKUlvE_clEvENKUlvE_clEvENKUlvE_clEvENKUlvE0_clEvENKUlvE_clEvENKUlvE0_clEvENKUlvE_clEvENKUlvE_clEv = comdat any

$_ZZZZZZZZZZZZZ13run_flash_fwdI23Flash_fwd_kernel_traitsILi192ELi128ELi64ELi8ELb0ELb0EN7cutlass6half_tE19Flash_kernel_traitsILi192ELi128ELi64ELi8ES2_EELb0ELb0EEvR16Flash_fwd_paramsP11CUstream_stENKUlvE_clEvENKUlvE_clEvENKUlvE_clEvENKUlvE0_clEvENKUlvE_clEvENKUlvE_clEvENKUlvE_clEvENKUlvE0_clEvENKUlvE_clEvENKUlvE0_clEvENKUlvE_clEvENKUlvE0_clEv = comdat any

$_ZZZZZZZZ13run_flash_fwdI23Flash_fwd_kernel_traitsILi192ELi128ELi64ELi8ELb0ELb0EN7cutlass6half_tE19Flash_kernel_traitsILi192ELi128ELi64ELi8ES2_EELb0ELb0EEvR16Flash_fwd_paramsP11CUstream_stENKUlvE_clEvENKUlvE_clEvENKUlvE_clEvENKUlvE0_clEvENKUlvE_clEvENKUlvE0_clEvENKUlvE_clEv = comdat any

$_ZZZZZZZZZZZZZ13run_flash_fwdI23Flash_fwd_kernel_traitsILi192ELi128ELi64ELi8ELb0ELb0EN7cutlass6half_tE19Flash_kernel_traitsILi192ELi128ELi64ELi8ES2_EELb0ELb0EEvR16Flash_fwd_paramsP11CUstream_stENKUlvE_clEvENKUlvE_clEvENKUlvE_clEvENKUlvE0_clEvENKUlvE_clEvENKUlvE0_clEvENKUlvE_clEvENKUlvE_clEvENKUlvE_clEvENKUlvE_clEvENKUlvE_clEvENKUlvE_clEv = comdat any

$_ZZZZZZZZZZZZZ13run_flash_fwdI23Flash_fwd_kernel_traitsILi192ELi128ELi64ELi8ELb0ELb0EN7cutlass6half_tE19Flash_kernel_traitsILi192ELi128ELi64ELi8ES2_EELb0ELb0EEvR16Flash_fwd_paramsP11CUstream_stENKUlvE_clEvENKUlvE_clEvENKUlvE_clEvENKUlvE0_clEvENKUlvE_clEvENKUlvE0_clEvENKUlvE_clEvENKUlvE_clEvENKUlvE_clEvENKUlvE_clEvENKUlvE_clEvENKUlvE0_clEv = comdat any

$_Z31__device_stub__flash_fwd_kernelI23Flash_fwd_kernel_traitsILi192ELi128ELi64ELi8ELb0ELb0EN7cutlass6half_tE19Flash_kernel_traitsILi192ELi128ELi64ELi8ES2_EELb0ELb0ELb0ELb1ELb0ELb0ELb1ELb0EEv16Flash_fwd_params = comdat any

$_Z31__device_stub__flash_fwd_kernelI23Flash_fwd_kernel_traitsILi192ELi128ELi64ELi8ELb0ELb0EN7cutlass6half_tE19Flash_kernel_traitsILi192ELi128ELi64ELi8ES2_EELb0ELb0ELb0ELb1ELb0ELb0ELb0ELb0EEv16Flash_fwd_params = comdat any

$_ZZZZZZZZZZZZZ13run_flash_fwdI23Flash_fwd_kernel_traitsILi192ELi128ELi64ELi8ELb0ELb0EN7cutlass6half_tE19Flash_kernel_traitsILi192ELi128ELi64ELi8ES2_EELb0ELb0EEvR16Flash_fwd_paramsP11CUstream_stENKUlvE_clEvENKUlvE_clEvENKUlvE_clEvENKUlvE0_clEvENKUlvE_clEvENKUlvE0_clEvENKUlvE_clEvENKUlvE_clEvENKUlvE_clEvENKUlvE0_clEvENKUlvE_clEvENKUlvE_clEv = comdat any

$_ZZZZZZZZZZZZZ13run_flash_fwdI23Flash_fwd_kernel_traitsILi192ELi128ELi64ELi8ELb0ELb0EN7cutlass6half_tE19Flash_kernel_traitsILi192ELi128ELi64ELi8ES2_EELb0ELb0EEvR16Flash_fwd_paramsP11CUstream_stENKUlvE_clEvENKUlvE_clEvENKUlvE_clEvENKUlvE0_clEvENKUlvE_clEvENKUlvE0_clEvENKUlvE_clEvENKUlvE_clEvENKUlvE_clEvENKUlvE0_clEvENKUlvE_clEvENKUlvE0_clEv = comdat any

$_Z31__device_stub__flash_fwd_kernelI23Flash_fwd_kernel_traitsILi192ELi128ELi64ELi8ELb0ELb0EN7cutlass6half_tE19Flash_kernel_traitsILi192ELi128ELi64ELi8ES2_EELb0ELb0ELb0ELb0ELb0ELb0ELb1ELb0EEv16Flash_fwd_params = comdat any

$_Z31__device_stub__flash_fwd_kernelI23Flash_fwd_kernel_traitsILi192ELi128ELi64ELi8ELb0ELb0EN7cutlass6half_tE19Flash_kernel_traitsILi192ELi128ELi64ELi8ES2_EELb0ELb0ELb0ELb0ELb0ELb0ELb0ELb0EEv16Flash_fwd_params = comdat any

$_ZZZZZZZZZZZZZ13run_flash_fwdI23Flash_fwd_kernel_traitsILi192ELi128ELi64ELi8ELb0ELb0EN7cutlass6half_tE19Flash_kernel_traitsILi192ELi128ELi64ELi8ES2_EELb0ELb0EEvR16Flash_fwd_paramsP11CUstream_stENKUlvE_clEvENKUlvE_clEvENKUlvE_clEvENKUlvE0_clEvENKUlvE_clEvENKUlvE0_clEvENKUlvE_clEvENKUlvE0_clEvENKUlvE_clEvENKUlvE_clEvENKUlvE_clEvENKUlvE_clEv = comdat any

$_ZZZZZZZZZZZZZ13run_flash_fwdI23Flash_fwd_kernel_traitsILi192ELi128ELi64ELi8ELb0ELb0EN7cutlass6half_tE19Flash_kernel_traitsILi192ELi128ELi64ELi8ES2_EELb0ELb0EEvR16Flash_fwd_paramsP11CUstream_stENKUlvE_clEvENKUlvE_clEvENKUlvE_clEvENKUlvE0_clEvENKUlvE_clEvENKUlvE0_clEvENKUlvE_clEvENKUlvE0_clEvENKUlvE_clEvENKUlvE_clEvENKUlvE_clEvENKUlvE0_clEv = comdat any

$_ZZZZZZZZZZZZZ13run_flash_fwdI23Flash_fwd_kernel_traitsILi192ELi128ELi64ELi8ELb0ELb0EN7cutlass6half_tE19Flash_kernel_traitsILi192ELi128ELi64ELi8ES2_EELb0ELb0EEvR16Flash_fwd_paramsP11CUstream_stENKUlvE_clEvENKUlvE_clEvENKUlvE_clEvENKUlvE0_clEvENKUlvE_clEvENKUlvE0_clEvENKUlvE_clEvENKUlvE0_clEvENKUlvE_clEvENKUlvE0_clEvENKUlvE_clEvENKUlvE_clEv = comdat any

$_ZZZZZZZZZZZZZ13run_flash_fwdI23Flash_fwd_kernel_traitsILi192ELi128ELi64ELi8ELb0ELb0EN7cutlass6half_tE19Flash_kernel_traitsILi192ELi128ELi64ELi8ES2_EELb0ELb0EEvR16Flash_fwd_paramsP11CUstream_stENKUlvE_clEvENKUlvE_clEvENKUlvE_clEvENKUlvE0_clEvENKUlvE_clEvENKUlvE0_clEvENKUlvE_clEvENKUlvE0_clEvENKUlvE_clEvENKUlvE0_clEvENKUlvE_clEvENKUlvE0_clEv = comdat any

$_ZZZZZZZZ13run_flash_fwdI23Flash_fwd_kernel_traitsILi192ELi128ELi64ELi8ELb0ELb0EN7cutlass6half_tE19Flash_kernel_traitsILi192ELi128ELi64ELi8ES2_EELb0ELb0EEvR16Flash_fwd_paramsP11CUstream_stENKUlvE_clEvENKUlvE0_clEvENKUlvE_clEvENKUlvE_clEvENKUlvE_clEvENKUlvE_clEvENKUlvE_clEv = comdat any

$_ZZZZZZZZZZZZZ13run_flash_fwdI23Flash_fwd_kernel_traitsILi192ELi128ELi64ELi8ELb0ELb0EN7cutlass6half_tE19Flash_kernel_traitsILi192ELi128ELi64ELi8ES2_EELb0ELb0EEvR16Flash_fwd_paramsP11CUstream_stENKUlvE_clEvENKUlvE0_clEvENKUlvE_clEvENKUlvE_clEvENKUlvE_clEvENKUlvE_clEvENKUlvE_clEvENKUlvE_clEvENKUlvE_clEvENKUlvE_clEvENKUlvE_clEvENKUlvE_clEv = comdat any

$_ZZZZZZZZZZZZZ13run_flash_fwdI23Flash_fwd_kernel_traitsILi192ELi128ELi64ELi8ELb0ELb0EN7cutlass6half_tE19Flash_kernel_traitsILi192ELi128ELi64ELi8ES2_EELb0ELb0EEvR16Flash_fwd_paramsP11CUstream_stENKUlvE_clEvENKUlvE0_clEvENKUlvE_clEvENKUlvE_clEvENKUlvE_clEvENKUlvE_clEvENKUlvE_clEvENKUlvE_clEvENKUlvE_clEvENKUlvE_clEvENKUlvE_clEvENKUlvE0_clEv = comdat any

$_ZZZZZZZZZZZZZ13run_flash_fwdI23Flash_fwd_kernel_traitsILi192ELi128ELi64ELi8ELb0ELb0EN7cutlass6half_tE19Flash_kernel_traitsILi192ELi128ELi64ELi8ES2_EELb0ELb0EEvR16Flash_fwd_paramsP11CUstream_stENKUlvE_clEvENKUlvE0_clEvENKUlvE_clEvENKUlvE_clEvENKUlvE_clEvENKUlvE_clEvENKUlvE_clEvENKUlvE_clEvENKUlvE_clEvENKUlvE0_clEvENKUlvE_clEvENKUlvE_clEv = comdat any

$_ZZZZZZZZZZZZZ13run_flash_fwdI23Flash_fwd_kernel_traitsILi192ELi128ELi64ELi8ELb0ELb0EN7cutlass6half_tE19Flash_kernel_traitsILi192ELi128ELi64ELi8ES2_EELb0ELb0EEvR16Flash_fwd_paramsP11CUstream_stENKUlvE_clEvENKUlvE0_clEvENKUlvE_clEvENKUlvE_clEvENKUlvE_clEvENKUlvE_clEvENKUlvE_clEvENKUlvE_clEvENKUlvE_clEvENKUlvE0_clEvENKUlvE_clEvENKUlvE0_clEv = comdat any

$_ZZZZZZZZZZZZZ13run_flash_fwdI23Flash_fwd_kernel_traitsILi192ELi128ELi64ELi8ELb0ELb0EN7cutlass6half_tE19Flash_kernel_traitsILi192ELi128ELi64ELi8ES2_EELb0ELb0EEvR16Flash_fwd_paramsP11CUstream_stENKUlvE_clEvENKUlvE0_clEvENKUlvE_clEvENKUlvE_clEvENKUlvE_clEvENKUlvE_clEvENKUlvE_clEvENKUlvE0_clEvENKUlvE_clEvENKUlvE_clEvENKUlvE_clEvENKUlvE_clEv = comdat any

$_ZZZZZZZZZZZZZ13run_flash_fwdI23Flash_fwd_kernel_traitsILi192ELi128ELi64ELi8ELb0ELb0EN7cutlass6half_tE19Flash_kernel_traitsILi192ELi128ELi64ELi8ES2_EELb0ELb0EEvR16Flash_fwd_paramsP11CUstream_stENKUlvE_clEvENKUlvE0_clEvENKUlvE_clEvENKUlvE_clEvENKUlvE_clEvENKUlvE_clEvENKUlvE_clEvENKUlvE0_clEvENKUlvE_clEvENKUlvE_clEvENKUlvE_clEvENKUlvE0_clEv = comdat any

$_ZZZZZZZZZZZZZ13run_flash_fwdI23Flash_fwd_kernel_traitsILi192ELi128ELi64ELi8ELb0ELb0EN7cutlass6half_tE19Flash_kernel_traitsILi192ELi128ELi64ELi8ES2_EELb0ELb0EEvR16Flash_fwd_paramsP11CUstream_stENKUlvE_clEvENKUlvE0_clEvENKUlvE_clEvENKUlvE_clEvENKUlvE_clEvENKUlvE_clEvENKUlvE_clEvENKUlvE0_clEvENKUlvE_clEvENKUlvE0_clEvENKUlvE_clEvENKUlvE_clEv = comdat any

$_ZZZZZZZZZZZZZ13run_flash_fwdI23Flash_fwd_kernel_traitsILi192ELi128ELi64ELi8ELb0ELb0EN7cutlass6half_tE19Flash_kernel_traitsILi192ELi128ELi64ELi8ES2_EELb0ELb0EEvR16Flash_fwd_paramsP11CUstream_stENKUlvE_clEvENKUlvE0_clEvENKUlvE_clEvENKUlvE_clEvENKUlvE_clEvENKUlvE_clEvENKUlvE_clEvENKUlvE0_clEvENKUlvE_clEvENKUlvE0_clEvENKUlvE_clEvENKUlvE0_clEv = comdat any

$_ZZZZZZZZ13run_flash_fwdI23Flash_fwd_kernel_traitsILi192ELi128ELi64ELi8ELb0ELb0EN7cutlass6half_tE19Flash_kernel_traitsILi192ELi128ELi64ELi8ES2_EELb0ELb0EEvR16Flash_fwd_paramsP11CUstream_stENKUlvE_clEvENKUlvE0_clEvENKUlvE_clEvENKUlvE_clEvENKUlvE_clEvENKUlvE0_clEvENKUlvE_clEv = comdat any

$_ZZZZZZZZZZZZZ13run_flash_fwdI23Flash_fwd_kernel_traitsILi192ELi128ELi64ELi8ELb0ELb0EN7cutlass6half_tE19Flash_kernel_traitsILi192ELi128ELi64ELi8ES2_EELb0ELb0EEvR16Flash_fwd_paramsP11CUstream_stENKUlvE_clEvENKUlvE0_clEvENKUlvE_clEvENKUlvE_clEvENKUlvE_clEvENKUlvE0_clEvENKUlvE_clEvENKUlvE_clEvENKUlvE_clEvENKUlvE_clEvENKUlvE_clEvENKUlvE_clEv = comdat any

$_ZZZZZZZZZZZZZ13run_flash_fwdI23Flash_fwd_kernel_traitsILi192ELi128ELi64ELi8ELb0ELb0EN7cutlass6half_tE19Flash_kernel_traitsILi192ELi128ELi64ELi8ES2_EELb0ELb0EEvR16Flash_fwd_paramsP11CUstream_stENKUlvE_clEvENKUlvE0_clEvENKUlvE_clEvENKUlvE_clEvENKUlvE_clEvENKUlvE0_clEvENKUlvE_clEvENKUlvE_clEvENKUlvE_clEvENKUlvE_clEvENKUlvE_clEvENKUlvE0_clEv = comdat any

$_ZZZZZZZZZZZZZ13run_flash_fwdI23Flash_fwd_kernel_traitsILi192ELi128ELi64ELi8ELb0ELb0EN7cutlass6half_tE19Flash_kernel_traitsILi192ELi128ELi64ELi8ES2_EELb0ELb0EEvR16Flash_fwd_paramsP11CUstream_stENKUlvE_clEvENKUlvE0_clEvENKUlvE_clEvENKUlvE_clEvENKUlvE_clEvENKUlvE0_clEvENKUlvE_clEvENKUlvE_clEvENKUlvE_clEvENKUlvE0_clEvENKUlvE_clEvENKUlvE_clEv = comdat any

$_ZZZZZZZZZZZZZ13run_flash_fwdI23Flash_fwd_kernel_traitsILi192ELi128ELi64ELi8ELb0ELb0EN7cutlass6half_tE19Flash_kernel_traitsILi192ELi128ELi64ELi8ES2_EELb0ELb0EEvR16Flash_fwd_paramsP11CUstream_stENKUlvE_clEvENKUlvE0_clEvENKUlvE_clEvENKUlvE_clEvENKUlvE_clEvENKUlvE0_clEvENKUlvE_clEvENKUlvE_clEvENKUlvE_clEvENKUlvE0_clEvENKUlvE_clEvENKUlvE0_clEv = comdat any

$_ZZZZZZZZZZZZZ13run_flash_fwdI23Flash_fwd_kernel_traitsILi192ELi128ELi64ELi8ELb0ELb0EN7cutlass6half_tE19Flash_kernel_traitsILi192ELi128ELi64ELi8ES2_EELb0ELb0EEvR16Flash_fwd_paramsP11CUstream_stENKUlvE_clEvENKUlvE0_clEvENKUlvE_clEvENKUlvE_clEvENKUlvE_clEvENKUlvE0_clEvENKUlvE_clEvENKUlvE0_clEvENKUlvE_clEvENKUlvE_clEvENKUlvE_clEvENKUlvE_clEv = comdat any

$_ZZZZZZZZZZZZZ13run_flash_fwdI23Flash_fwd_kernel_traitsILi192ELi128ELi64ELi8ELb0ELb0EN7cutlass6half_tE19Flash_kernel_traitsILi192ELi128ELi64ELi8ES2_EELb0ELb0EEvR16Flash_fwd_paramsP11CUstream_stENKUlvE_clEvENKUlvE0_clEvENKUlvE_clEvENKUlvE_clEvENKUlvE_clEvENKUlvE0_clEvENKUlvE_clEvENKUlvE0_clEvENKUlvE_clEvENKUlvE_clEvENKUlvE_clEvENKUlvE0_clEv = comdat any

$_ZZZZZZZZZZZZZ13run_flash_fwdI23Flash_fwd_kernel_traitsILi192ELi128ELi64ELi8ELb0ELb0EN7cutlass6half_tE19Flash_kernel_traitsILi192ELi128ELi64ELi8ES2_EELb0ELb0EEvR16Flash_fwd_paramsP11CUstream_stENKUlvE_clEvENKUlvE0_clEvENKUlvE_clEvENKUlvE_clEvENKUlvE_clEvENKUlvE0_clEvENKUlvE_clEvENKUlvE0_clEvENKUlvE_clEvENKUlvE0_clEvENKUlvE_clEvENKUlvE_clEv = comdat any

$_ZZZZZZZZZZZZZ13run_flash_fwdI23Flash_fwd_kernel_traitsILi192ELi128ELi64ELi8ELb0ELb0EN7cutlass6half_tE19Flash_kernel_traitsILi192ELi128ELi64ELi8ES2_EELb0ELb0EEvR16Flash_fwd_paramsP11CUstream_stENKUlvE_clEvENKUlvE0_clEvENKUlvE_clEvENKUlvE_clEvENKUlvE_clEvENKUlvE0_clEvENKUlvE_clEvENKUlvE0_clEvENKUlvE_clEvENKUlvE0_clEvENKUlvE_clEvENKUlvE0_clEv = comdat any

$_ZZZZZZZZ13run_flash_fwdI23Flash_fwd_kernel_traitsILi192ELi128ELi64ELi8ELb0ELb0EN7cutlass6half_tE19Flash_kernel_traitsILi192ELi128ELi64ELi8ES2_EELb0ELb0EEvR16Flash_fwd_paramsP11CUstream_stENKUlvE_clEvENKUlvE0_clEvENKUlvE_clEvENKUlvE0_clEvENKUlvE_clEvENKUlvE_clEvENKUlvE_clEv = comdat any

$_ZZZZZZZZZZZZZ13run_flash_fwdI23Flash_fwd_kernel_traitsILi192ELi128ELi64ELi8ELb0ELb0EN7cutlass6half_tE19Flash_kernel_traitsILi192ELi128ELi64ELi8ES2_EELb0ELb0EEvR16Flash_fwd_paramsP11CUstream_stENKUlvE_clEvENKUlvE0_clEvENKUlvE_clEvENKUlvE0_clEvENKUlvE_clEvENKUlvE_clEvENKUlvE_clEvENKUlvE_clEvENKUlvE_clEvENKUlvE_clEvENKUlvE_clEvENKUlvE_clEv = comdat any

$_ZZZZZZZZZZZZZ13run_flash_fwdI23Flash_fwd_kernel_traitsILi192ELi128ELi64ELi8ELb0ELb0EN7cutlass6half_tE19Flash_kernel_traitsILi192ELi128ELi64ELi8ES2_EELb0ELb0EEvR16Flash_fwd_paramsP11CUstream_stENKUlvE_clEvENKUlvE0_clEvENKUlvE_clEvENKUlvE0_clEvENKUlvE_clEvENKUlvE_clEvENKUlvE_clEvENKUlvE_clEvENKUlvE_clEvENKUlvE_clEvENKUlvE_clEvENKUlvE0_clEv = comdat any

$_ZZZZZZZZZZZZZ13run_flash_fwdI23Flash_fwd_kernel_traitsILi192ELi128ELi64ELi8ELb0ELb0EN7cutlass6half_tE19Flash_kernel_traitsILi192ELi128ELi64ELi8ES2_EELb0ELb0EEvR16Flash_fwd_paramsP11CUstream_stENKUlvE_clEvENKUlvE0_clEvENKUlvE_clEvENKUlvE0_clEvENKUlvE_clEvENKUlvE_clEvENKUlvE_clEvENKUlvE_clEvENKUlvE_clEvENKUlvE0_clEvENKUlvE_clEvENKUlvE_clEv = comdat any

$_ZZZZZZZZZZZZZ13run_flash_fwdI23Flash_fwd_kernel_traitsILi192ELi128ELi64ELi8ELb0ELb0EN7cutlass6half_tE19Flash_kernel_traitsILi192ELi128ELi64ELi8ES2_EELb0ELb0EEvR16Flash_fwd_paramsP11CUstream_stENKUlvE_clEvENKUlvE0_clEvENKUlvE_clEvENKUlvE0_clEvENKUlvE_clEvENKUlvE_clEvENKUlvE_clEvENKUlvE_clEvENKUlvE_clEvENKUlvE0_clEvENKUlvE_clEvENKUlvE0_clEv = comdat any

$_ZZZZZZZZZZZZZ13run_flash_fwdI23Flash_fwd_kernel_traitsILi192ELi128ELi64ELi8ELb0ELb0EN7cutlass6half_tE19Flash_kernel_traitsILi192ELi128ELi64ELi8ES2_EELb0ELb0EEvR16Flash_fwd_paramsP11CUstream_stENKUlvE_clEvENKUlvE0_clEvENKUlvE_clEvENKUlvE0_clEvENKUlvE_clEvENKUlvE_clEvENKUlvE_clEvENKUlvE0_clEvENKUlvE_clEvENKUlvE_clEvENKUlvE_clEvENKUlvE_clEv = comdat any

$_ZZZZZZZZZZZZZ13run_flash_fwdI23Flash_fwd_kernel_traitsILi192ELi128ELi64ELi8ELb0ELb0EN7cutlass6half_tE19Flash_kernel_traitsILi192ELi128ELi64ELi8ES2_EELb0ELb0EEvR16Flash_fwd_paramsP11CUstream_stENKUlvE_clEvENKUlvE0_clEvENKUlvE_clEvENKUlvE0_clEvENKUlvE_clEvENKUlvE_clEvENKUlvE_clEvENKUlvE0_clEvENKUlvE_clEvENKUlvE_clEvENKUlvE_clEvENKUlvE0_clEv = comdat any

$_ZZZZZZZZZZZZZ13run_flash_fwdI23Flash_fwd_kernel_traitsILi192ELi128ELi64ELi8ELb0ELb0EN7cutlass6half_tE19Flash_kernel_traitsILi192ELi128ELi64ELi8ES2_EELb0ELb0EEvR16Flash_fwd_paramsP11CUstream_stENKUlvE_clEvENKUlvE0_clEvENKUlvE_clEvENKUlvE0_clEvENKUlvE_clEvENKUlvE_clEvENKUlvE_clEvENKUlvE0_clEvENKUlvE_clEvENKUlvE0_clEvENKUlvE_clEvENKUlvE_clEv = comdat any

$_ZZZZZZZZZZZZZ13run_flash_fwdI23Flash_fwd_kernel_traitsILi192ELi128ELi64ELi8ELb0ELb0EN7cutlass6half_tE19Flash_kernel_traitsILi192ELi128ELi64ELi8ES2_EELb0ELb0EEvR16Flash_fwd_paramsP11CUstream_stENKUlvE_clEvENKUlvE0_clEvENKUlvE_clEvENKUlvE0_clEvENKUlvE_clEvENKUlvE_clEvENKUlvE_clEvENKUlvE0_clEvENKUlvE_clEvENKUlvE0_clEvENKUlvE_clEvENKUlvE0_clEv = comdat any

$_ZZZZZZZZ13run_flash_fwdI23Flash_fwd_kernel_traitsILi192ELi128ELi64ELi8ELb0ELb0EN7cutlass6half_tE19Flash_kernel_traitsILi192ELi128ELi64ELi8ES2_EELb0ELb0EEvR16Flash_fwd_paramsP11CUstream_stENKUlvE_clEvENKUlvE0_clEvENKUlvE_clEvENKUlvE0_clEvENKUlvE_clEvENKUlvE0_clEvENKUlvE_clEv = comdat any

$_ZZZZZZZZZZZZZ13run_flash_fwdI23Flash_fwd_kernel_traitsILi192ELi128ELi64ELi8ELb0ELb0EN7cutlass6half_tE19Flash_kernel_traitsILi192ELi128ELi64ELi8ES2_EELb0ELb0EEvR16Flash_fwd_paramsP11CUstream_stENKUlvE_clEvENKUlvE0_clEvENKUlvE_clEvENKUlvE0_clEvENKUlvE_clEvENKUlvE0_clEvENKUlvE_clEvENKUlvE_clEvENKUlvE_clEvENKUlvE_clEvENKUlvE_clEvENKUlvE_clEv = comdat any

$_ZZZZZZZZZZZZZ13run_flash_fwdI23Flash_fwd_kernel_traitsILi192ELi128ELi64ELi8ELb0ELb0EN7cutlass6half_tE19Flash_kernel_traitsILi192ELi128ELi64ELi8ES2_EELb0ELb0EEvR16Flash_fwd_paramsP11CUstream_stENKUlvE_clEvENKUlvE0_clEvENKUlvE_clEvENKUlvE0_clEvENKUlvE_clEvENKUlvE0_clEvENKUlvE_clEvENKUlvE_clEvENKUlvE_clEvENKUlvE_clEvENKUlvE_clEvENKUlvE0_clEv = comdat any

$_ZZZZZZZZZZZZZ13run_flash_fwdI23Flash_fwd_kernel_traitsILi192ELi128ELi64ELi8ELb0ELb0EN7cutlass6half_tE19Flash_kernel_traitsILi192ELi128ELi64ELi8ES2_EELb0ELb0EEvR16Flash_fwd_paramsP11CUstream_stENKUlvE_clEvENKUlvE0_clEvENKUlvE_clEvENKUlvE0_clEvENKUlvE_clEvENKUlvE0_clEvENKUlvE_clEvENKUlvE_clEvENKUlvE_clEvENKUlvE0_clEvENKUlvE_clEvENKUlvE_clEv = comdat any

$_ZZZZZZZZZZZZZ13run_flash_fwdI23Flash_fwd_kernel_traitsILi192ELi128ELi64ELi8ELb0ELb0EN7cutlass6half_tE19Flash_kernel_traitsILi192ELi128ELi64ELi8ES2_EELb0ELb0EEvR16Flash_fwd_paramsP11CUstream_stENKUlvE_clEvENKUlvE0_clEvENKUlvE_clEvENKUlvE0_clEvENKUlvE_clEvENKUlvE0_clEvENKUlvE_clEvENKUlvE_clEvENKUlvE_clEvENKUlvE0_clEvENKUlvE_clEvENKUlvE0_clEv = comdat any

$_ZZZZZZZZZZZZZ13run_flash_fwdI23Flash_fwd_kernel_traitsILi192ELi128ELi64ELi8ELb0ELb0EN7cutlass6half_tE19Flash_kernel_traitsILi192ELi128ELi64ELi8ES2_EELb0ELb0EEvR16Flash_fwd_paramsP11CUstream_stENKUlvE_clEvENKUlvE0_clEvENKUlvE_clEvENKUlvE0_clEvENKUlvE_clEvENKUlvE0_clEvENKUlvE_clEvENKUlvE0_clEvENKUlvE_clEvENKUlvE_clEvENKUlvE_clEvENKUlvE_clEv = comdat any

$_ZZZZZZZZZZZZZ13run_flash_fwdI23Flash_fwd_kernel_traitsILi192ELi128ELi64ELi8ELb0ELb0EN7cutlass6half_tE19Flash_kernel_traitsILi192ELi128ELi64ELi8ES2_EELb0ELb0EEvR16Flash_fwd_paramsP11CUstream_stENKUlvE_clEvENKUlvE0_clEvENKUlvE_clEvENKUlvE0_clEvENKUlvE_clEvENKUlvE0_clEvENKUlvE_clEvENKUlvE0_clEvENKUlvE_clEvENKUlvE_clEvENKUlvE_clEvENKUlvE0_clEv = comdat any

$_ZZZZZZZZZZZZZ13run_flash_fwdI23Flash_fwd_kernel_traitsILi192ELi128ELi64ELi8ELb0ELb0EN7cutlass6half_tE19Flash_kernel_traitsILi192ELi128ELi64ELi8ES2_EELb0ELb0EEvR16Flash_fwd_paramsP11CUstream_stENKUlvE_clEvENKUlvE0_clEvENKUlvE_clEvENKUlvE0_clEvENKUlvE_clEvENKUlvE0_clEvENKUlvE_clEvENKUlvE0_clEvENKUlvE_clEvENKUlvE0_clEvENKUlvE_clEvENKUlvE_clEv = comdat any

$_ZZZZZZZZZZZZZ13run_flash_fwdI23Flash_fwd_kernel_traitsILi192ELi128ELi64ELi8ELb0ELb0EN7cutlass6half_tE19Flash_kernel_traitsILi192ELi128ELi64ELi8ES2_EELb0ELb0EEvR16Flash_fwd_paramsP11CUstream_stENKUlvE_clEvENKUlvE0_clEvENKUlvE_clEvENKUlvE0_clEvENKUlvE_clEvENKUlvE0_clEvENKUlvE_clEvENKUlvE0_clEvENKUlvE_clEvENKUlvE0_clEvENKUlvE_clEvENKUlvE0_clEv = comdat any

@_ZStL8__ioinit = internal global %"class.std::ios_base::Init" zeroinitializer, align 1
@__dso_handle = external hidden global i8
@.str = private unnamed_addr constant [70 x i8] c"../../flash-attention/csrc/flash_attn/src/flash_fwd_launch_template.h\00", align 1
@__func__._ZZZZZZZZZZZZZ13run_flash_fwdI23Flash_fwd_kernel_traitsILi192ELi64ELi64ELi4ELb0ELb0EN7cutlass6half_tE19Flash_kernel_traitsILi192ELi64ELi64ELi4ES2_EELb1ELb0EEvR16Flash_fwd_paramsP11CUstream_stENKUlvE_clEvENKUlvE_clEvENKUlvE_clEvENKUlvE_clEvENKUlvE_clEvENKUlvE_clEvENKUlvE_clEvENKUlvE_clEvENKUlvE_clEvENKUlvE_clEvENKUlvE_clEvENKUlvE_clEv = private unnamed_addr constant [11 x i8] c"operator()\00", align 1
@llvm.global_ctors = appending global [1 x { i32, ptr, ptr }] [{ i32, ptr, ptr } { i32 65535, ptr @_GLOBAL__sub_I_flash_fwd_hdim192_fp16_sm80.cu, ptr null }]

declare void @_ZNSt8ios_base4InitC1Ev(ptr noundef nonnull align 1 dereferenceable(1)) unnamed_addr #0

; Function Attrs: nounwind
declare void @_ZNSt8ios_base4InitD1Ev(ptr noundef nonnull align 1 dereferenceable(1)) unnamed_addr #1

; Function Attrs: nofree nounwind
declare i32 @__cxa_atexit(ptr, ptr, ptr) local_unnamed_addr #2

; Function Attrs: mustprogress uwtable
define dso_local void @_Z12run_mha_fwd_IN7cutlass6half_tELi192ELb0EEvR16Flash_fwd_paramsP11CUstream_st(ptr noundef nonnull align 8 dereferenceable(458) %0, ptr noundef %1) local_unnamed_addr #3 {
  %3 = alloca ptr, align 8
  %4 = alloca %class.anon, align 8
  call void @llvm.lifetime.start.p0(i64 8, ptr nonnull %3)
  store ptr %1, ptr %3, align 8, !tbaa !6
  call void @llvm.lifetime.start.p0(i64 16, ptr nonnull %4) #9
  store ptr %0, ptr %4, align 8, !tbaa !6
  %5 = getelementptr inbounds %class.anon, ptr %4, i64 0, i32 1
  store ptr %3, ptr %5, align 8, !tbaa !6
  call void @_ZZ19run_mha_fwd_hdim192IN7cutlass6half_tELb0EEvR16Flash_fwd_paramsP11CUstream_stENKUlvE_clEv(ptr noundef nonnull align 8 dereferenceable(16) %4)
  call void @llvm.lifetime.end.p0(i64 16, ptr nonnull %4) #9
  call void @llvm.lifetime.end.p0(i64 8, ptr nonnull %3)
  ret void
}

; Function Attrs: mustprogress nocallback nofree nosync nounwind willreturn memory(argmem: readwrite)
declare void @llvm.lifetime.start.p0(i64 immarg, ptr nocapture) #4

; Function Attrs: inlinehint mustprogress uwtable
define linkonce_odr dso_local void @_ZZ19run_mha_fwd_hdim192IN7cutlass6half_tELb0EEvR16Flash_fwd_paramsP11CUstream_stENKUlvE_clEv(ptr noundef nonnull align 8 dereferenceable(16) %0) local_unnamed_addr #5 comdat align 2 {
  %2 = alloca ptr, align 8
  %3 = alloca %struct.dim3, align 4
  %4 = alloca i8, align 1
  %5 = alloca i8, align 1
  %6 = alloca i8, align 1
  %7 = alloca %class.anon.191, align 8
  %8 = alloca ptr, align 8
  %9 = alloca %struct.dim3, align 4
  %10 = alloca i8, align 1
  %11 = alloca i8, align 1
  %12 = alloca i8, align 1
  %13 = alloca %class.anon.2, align 8
  %14 = load ptr, ptr %0, align 8, !tbaa !10
  %15 = getelementptr inbounds %struct.Flash_fwd_params, ptr %14, i64 0, i32 40
  %16 = load float, ptr %15, align 4, !tbaa !12
  %17 = fcmp olt float %16, 1.000000e+00
  %18 = getelementptr inbounds %class.anon, ptr %0, i64 0, i32 1
  %19 = load ptr, ptr %18, align 8, !tbaa !20
  %20 = load ptr, ptr %19, align 8, !tbaa !6
  %21 = getelementptr inbounds %struct.Flash_fwd_params, ptr %14, i64 0, i32 10
  %22 = getelementptr inbounds %struct.Flash_fwd_params, ptr %14, i64 0, i32 9
  %23 = getelementptr inbounds %struct.Qkv_params, ptr %14, i64 0, i32 12
  %24 = getelementptr inbounds %struct.Flash_fwd_params, ptr %14, i64 0, i32 21
  %25 = getelementptr inbounds %struct.Flash_fwd_params, ptr %14, i64 0, i32 22
  br i1 %17, label %26, label %63

26:                                               ; preds = %1
  call void @llvm.lifetime.start.p0(i64 8, ptr nonnull %8)
  store ptr %20, ptr %8, align 8, !tbaa !6
  %27 = load i32, ptr %21, align 4, !tbaa !21
  %28 = add nsw i32 %27, 63
  %29 = sdiv i32 %28, 64
  call void @llvm.lifetime.start.p0(i64 12, ptr nonnull %9) #9
  %30 = load i32, ptr %22, align 8, !tbaa !22
  %31 = load i32, ptr %23, align 8, !tbaa !23
  store i32 %29, ptr %9, align 4, !tbaa !24
  %32 = getelementptr inbounds %struct.dim3, ptr %9, i64 0, i32 1
  store i32 %30, ptr %32, align 4, !tbaa !26
  %33 = getelementptr inbounds %struct.dim3, ptr %9, i64 0, i32 2
  store i32 %31, ptr %33, align 4, !tbaa !27
  call void @llvm.lifetime.start.p0(i64 1, ptr nonnull %10) #9
  %34 = load ptr, ptr %24, align 8, !tbaa !28
  %35 = icmp eq ptr %34, null
  %36 = load ptr, ptr %25, align 8
  %37 = icmp eq ptr %36, null
  %38 = select i1 %35, i1 %37, i1 false
  br i1 %38, label %39, label %48

39:                                               ; preds = %26
  %40 = getelementptr inbounds %struct.Flash_fwd_params, ptr %14, i64 0, i32 11
  %41 = load i32, ptr %40, align 8, !tbaa !29
  %42 = and i32 %41, 63
  %43 = icmp eq i32 %42, 0
  br i1 %43, label %44, label %48

44:                                               ; preds = %39
  %45 = and i32 %27, 63
  %46 = icmp eq i32 %45, 0
  %47 = zext i1 %46 to i8
  br label %48

48:                                               ; preds = %26, %39, %44
  %49 = phi i8 [ 0, %39 ], [ 0, %26 ], [ %47, %44 ]
  store i8 %49, ptr %10, align 1, !tbaa !30
  call void @llvm.lifetime.start.p0(i64 1, ptr nonnull %11) #9
  %50 = getelementptr inbounds %struct.Flash_fwd_params, ptr %14, i64 0, i32 13
  %51 = load i32, ptr %50, align 8, !tbaa !31
  %52 = icmp eq i32 %51, 192
  %53 = zext i1 %52 to i8
  store i8 %53, ptr %11, align 1, !tbaa !30
  call void @llvm.lifetime.start.p0(i64 1, ptr nonnull %12) #9
  %54 = getelementptr inbounds %struct.Flash_fwd_params, ptr %14, i64 0, i32 6
  %55 = load ptr, ptr %54, align 8, !tbaa !32
  %56 = icmp ne ptr %55, null
  %57 = zext i1 %56 to i8
  store i8 %57, ptr %12, align 1, !tbaa !30
  call void @llvm.lifetime.start.p0(i64 48, ptr nonnull %13) #9
  store ptr %10, ptr %13, align 8, !tbaa !6
  %58 = getelementptr inbounds %class.anon.2, ptr %13, i64 0, i32 1
  store ptr %11, ptr %58, align 8, !tbaa !6
  %59 = getelementptr inbounds %class.anon.2, ptr %13, i64 0, i32 2
  store ptr %14, ptr %59, align 8, !tbaa !6
  %60 = getelementptr inbounds %class.anon.2, ptr %13, i64 0, i32 3
  store ptr %12, ptr %60, align 8, !tbaa !6
  %61 = getelementptr inbounds %class.anon.2, ptr %13, i64 0, i32 4
  store ptr %9, ptr %61, align 8, !tbaa !6
  %62 = getelementptr inbounds %class.anon.2, ptr %13, i64 0, i32 5
  store ptr %8, ptr %62, align 8, !tbaa !6
  call void @_ZZ13run_flash_fwdI23Flash_fwd_kernel_traitsILi192ELi64ELi64ELi4ELb0ELb0EN7cutlass6half_tE19Flash_kernel_traitsILi192ELi64ELi64ELi4ES2_EELb1ELb0EEvR16Flash_fwd_paramsP11CUstream_stENKUlvE_clEv(ptr noundef nonnull align 8 dereferenceable(48) %13)
  call void @llvm.lifetime.end.p0(i64 48, ptr nonnull %13) #9
  call void @llvm.lifetime.end.p0(i64 1, ptr nonnull %12) #9
  call void @llvm.lifetime.end.p0(i64 1, ptr nonnull %11) #9
  call void @llvm.lifetime.end.p0(i64 1, ptr nonnull %10) #9
  call void @llvm.lifetime.end.p0(i64 12, ptr nonnull %9) #9
  call void @llvm.lifetime.end.p0(i64 8, ptr nonnull %8)
  br label %100

63:                                               ; preds = %1
  call void @llvm.lifetime.start.p0(i64 8, ptr nonnull %2)
  store ptr %20, ptr %2, align 8, !tbaa !6
  %64 = load i32, ptr %21, align 4, !tbaa !21
  %65 = add nsw i32 %64, 127
  %66 = sdiv i32 %65, 128
  call void @llvm.lifetime.start.p0(i64 12, ptr nonnull %3) #9
  %67 = load i32, ptr %22, align 8, !tbaa !22
  %68 = load i32, ptr %23, align 8, !tbaa !23
  store i32 %66, ptr %3, align 4, !tbaa !24
  %69 = getelementptr inbounds %struct.dim3, ptr %3, i64 0, i32 1
  store i32 %67, ptr %69, align 4, !tbaa !26
  %70 = getelementptr inbounds %struct.dim3, ptr %3, i64 0, i32 2
  store i32 %68, ptr %70, align 4, !tbaa !27
  call void @llvm.lifetime.start.p0(i64 1, ptr nonnull %4) #9
  %71 = load ptr, ptr %24, align 8, !tbaa !28
  %72 = icmp eq ptr %71, null
  %73 = load ptr, ptr %25, align 8
  %74 = icmp eq ptr %73, null
  %75 = select i1 %72, i1 %74, i1 false
  br i1 %75, label %76, label %85

76:                                               ; preds = %63
  %77 = getelementptr inbounds %struct.Flash_fwd_params, ptr %14, i64 0, i32 11
  %78 = load i32, ptr %77, align 8, !tbaa !29
  %79 = and i32 %78, 63
  %80 = icmp eq i32 %79, 0
  br i1 %80, label %81, label %85

81:                                               ; preds = %76
  %82 = and i32 %64, 127
  %83 = icmp eq i32 %82, 0
  %84 = zext i1 %83 to i8
  br label %85

85:                                               ; preds = %63, %76, %81
  %86 = phi i8 [ 0, %76 ], [ 0, %63 ], [ %84, %81 ]
  store i8 %86, ptr %4, align 1, !tbaa !30
  call void @llvm.lifetime.start.p0(i64 1, ptr nonnull %5) #9
  %87 = getelementptr inbounds %struct.Flash_fwd_params, ptr %14, i64 0, i32 13
  %88 = load i32, ptr %87, align 8, !tbaa !31
  %89 = icmp eq i32 %88, 192
  %90 = zext i1 %89 to i8
  store i8 %90, ptr %5, align 1, !tbaa !30
  call void @llvm.lifetime.start.p0(i64 1, ptr nonnull %6) #9
  %91 = getelementptr inbounds %struct.Flash_fwd_params, ptr %14, i64 0, i32 6
  %92 = load ptr, ptr %91, align 8, !tbaa !32
  %93 = icmp ne ptr %92, null
  %94 = zext i1 %93 to i8
  store i8 %94, ptr %6, align 1, !tbaa !30
  call void @llvm.lifetime.start.p0(i64 48, ptr nonnull %7) #9
  store ptr %4, ptr %7, align 8, !tbaa !6
  %95 = getelementptr inbounds %class.anon.191, ptr %7, i64 0, i32 1
  store ptr %5, ptr %95, align 8, !tbaa !6
  %96 = getelementptr inbounds %class.anon.191, ptr %7, i64 0, i32 2
  store ptr %14, ptr %96, align 8, !tbaa !6
  %97 = getelementptr inbounds %class.anon.191, ptr %7, i64 0, i32 3
  store ptr %6, ptr %97, align 8, !tbaa !6
  %98 = getelementptr inbounds %class.anon.191, ptr %7, i64 0, i32 4
  store ptr %3, ptr %98, align 8, !tbaa !6
  %99 = getelementptr inbounds %class.anon.191, ptr %7, i64 0, i32 5
  store ptr %2, ptr %99, align 8, !tbaa !6
  call void @_ZZ13run_flash_fwdI23Flash_fwd_kernel_traitsILi192ELi128ELi64ELi8ELb0ELb0EN7cutlass6half_tE19Flash_kernel_traitsILi192ELi128ELi64ELi8ES2_EELb0ELb0EEvR16Flash_fwd_paramsP11CUstream_stENKUlvE_clEv(ptr noundef nonnull align 8 dereferenceable(48) %7)
  call void @llvm.lifetime.end.p0(i64 48, ptr nonnull %7) #9
  call void @llvm.lifetime.end.p0(i64 1, ptr nonnull %6) #9
  call void @llvm.lifetime.end.p0(i64 1, ptr nonnull %5) #9
  call void @llvm.lifetime.end.p0(i64 1, ptr nonnull %4) #9
  call void @llvm.lifetime.end.p0(i64 12, ptr nonnull %3) #9
  call void @llvm.lifetime.end.p0(i64 8, ptr nonnull %2)
  br label %100

100:                                              ; preds = %85, %48
  ret void
}

; Function Attrs: mustprogress nocallback nofree nosync nounwind willreturn memory(argmem: readwrite)
declare void @llvm.lifetime.end.p0(i64 immarg, ptr nocapture) #4

; Function Attrs: inlinehint mustprogress uwtable
define linkonce_odr dso_local void @_ZZ13run_flash_fwdI23Flash_fwd_kernel_traitsILi192ELi64ELi64ELi4ELb0ELb0EN7cutlass6half_tE19Flash_kernel_traitsILi192ELi64ELi64ELi4ES2_EELb1ELb0EEvR16Flash_fwd_paramsP11CUstream_stENKUlvE_clEv(ptr noundef nonnull align 8 dereferenceable(48) %0) local_unnamed_addr #5 comdat align 2 {
  %2 = alloca %class.anon.170, align 8
  %3 = alloca %class.anon.149, align 8
  %4 = alloca %class.anon.125, align 8
  %5 = alloca %class.anon.104, align 8
  %6 = alloca %class.anon.77, align 8
  %7 = alloca %class.anon.56, align 8
  %8 = alloca %class.anon.32, align 8
  %9 = alloca %class.anon.11, align 8
  %10 = load ptr, ptr %0, align 8, !tbaa !33
  %11 = load i8, ptr %10, align 1, !tbaa !30, !range !35, !noundef !36
  %12 = icmp eq i8 %11, 0
  %13 = getelementptr inbounds %class.anon.2, ptr %0, i64 0, i32 1
  %14 = load ptr, ptr %13, align 8, !tbaa !37
  %15 = getelementptr inbounds %class.anon.2, ptr %0, i64 0, i32 2
  %16 = load ptr, ptr %15, align 8, !tbaa !38
  %17 = getelementptr inbounds %class.anon.2, ptr %0, i64 0, i32 3
  %18 = load ptr, ptr %17, align 8, !tbaa !39
  %19 = getelementptr inbounds %class.anon.2, ptr %0, i64 0, i32 4
  %20 = load ptr, ptr %19, align 8, !tbaa !40
  %21 = getelementptr inbounds %class.anon.2, ptr %0, i64 0, i32 5
  %22 = load ptr, ptr %21, align 8, !tbaa !41
  %23 = load i8, ptr %14, align 1, !tbaa !30, !range !35, !noundef !36
  %24 = icmp eq i8 %23, 0
  %25 = getelementptr inbounds %struct.Flash_fwd_params, ptr %16, i64 0, i32 45
  %26 = load i32, ptr %25, align 4, !tbaa !42
  %27 = icmp sgt i32 %26, -1
  br i1 %12, label %55, label %28

28:                                               ; preds = %1
  br i1 %24, label %42, label %29

29:                                               ; preds = %28
  br i1 %27, label %34, label %30

30:                                               ; preds = %29
  %31 = getelementptr inbounds %struct.Flash_fwd_params, ptr %16, i64 0, i32 46
  %32 = load i32, ptr %31, align 8, !tbaa !43
  %33 = icmp sgt i32 %32, -1
  br i1 %33, label %34, label %38

34:                                               ; preds = %30, %29
  call void @llvm.lifetime.start.p0(i64 32, ptr nonnull %9) #9
  store ptr %18, ptr %9, align 8, !tbaa !6
  %35 = getelementptr inbounds %class.anon.11, ptr %9, i64 0, i32 1
  store ptr %16, ptr %35, align 8, !tbaa !6
  %36 = getelementptr inbounds %class.anon.11, ptr %9, i64 0, i32 2
  store ptr %20, ptr %36, align 8, !tbaa !6
  %37 = getelementptr inbounds %class.anon.11, ptr %9, i64 0, i32 3
  store ptr %22, ptr %37, align 8, !tbaa !6
  call void @_ZZZZZZZZ13run_flash_fwdI23Flash_fwd_kernel_traitsILi192ELi64ELi64ELi4ELb0ELb0EN7cutlass6half_tE19Flash_kernel_traitsILi192ELi64ELi64ELi4ES2_EELb1ELb0EEvR16Flash_fwd_paramsP11CUstream_stENKUlvE_clEvENKUlvE_clEvENKUlvE_clEvENKUlvE_clEvENKUlvE_clEvENKUlvE_clEvENKUlvE_clEv(ptr noundef nonnull align 8 dereferenceable(32) %9)
  call void @llvm.lifetime.end.p0(i64 32, ptr nonnull %9) #9
  br label %82

38:                                               ; preds = %30
  call void @llvm.lifetime.start.p0(i64 32, ptr nonnull %8) #9
  store ptr %18, ptr %8, align 8, !tbaa !6
  %39 = getelementptr inbounds %class.anon.32, ptr %8, i64 0, i32 1
  store ptr %16, ptr %39, align 8, !tbaa !6
  %40 = getelementptr inbounds %class.anon.32, ptr %8, i64 0, i32 2
  store ptr %20, ptr %40, align 8, !tbaa !6
  %41 = getelementptr inbounds %class.anon.32, ptr %8, i64 0, i32 3
  store ptr %22, ptr %41, align 8, !tbaa !6
  call void @_ZZZZZZZZ13run_flash_fwdI23Flash_fwd_kernel_traitsILi192ELi64ELi64ELi4ELb0ELb0EN7cutlass6half_tE19Flash_kernel_traitsILi192ELi64ELi64ELi4ES2_EELb1ELb0EEvR16Flash_fwd_paramsP11CUstream_stENKUlvE_clEvENKUlvE_clEvENKUlvE_clEvENKUlvE_clEvENKUlvE_clEvENKUlvE0_clEvENKUlvE_clEv(ptr noundef nonnull align 8 dereferenceable(32) %8)
  call void @llvm.lifetime.end.p0(i64 32, ptr nonnull %8) #9
  br label %82

42:                                               ; preds = %28
  br i1 %27, label %47, label %43

43:                                               ; preds = %42
  %44 = getelementptr inbounds %struct.Flash_fwd_params, ptr %16, i64 0, i32 46
  %45 = load i32, ptr %44, align 8, !tbaa !43
  %46 = icmp sgt i32 %45, -1
  br i1 %46, label %47, label %51

47:                                               ; preds = %43, %42
  call void @llvm.lifetime.start.p0(i64 32, ptr nonnull %7) #9
  store ptr %18, ptr %7, align 8, !tbaa !6
  %48 = getelementptr inbounds %class.anon.56, ptr %7, i64 0, i32 1
  store ptr %16, ptr %48, align 8, !tbaa !6
  %49 = getelementptr inbounds %class.anon.56, ptr %7, i64 0, i32 2
  store ptr %20, ptr %49, align 8, !tbaa !6
  %50 = getelementptr inbounds %class.anon.56, ptr %7, i64 0, i32 3
  store ptr %22, ptr %50, align 8, !tbaa !6
  call void @_ZZZZZZZZ13run_flash_fwdI23Flash_fwd_kernel_traitsILi192ELi64ELi64ELi4ELb0ELb0EN7cutlass6half_tE19Flash_kernel_traitsILi192ELi64ELi64ELi4ES2_EELb1ELb0EEvR16Flash_fwd_paramsP11CUstream_stENKUlvE_clEvENKUlvE_clEvENKUlvE_clEvENKUlvE0_clEvENKUlvE_clEvENKUlvE_clEvENKUlvE_clEv(ptr noundef nonnull align 8 dereferenceable(32) %7)
  call void @llvm.lifetime.end.p0(i64 32, ptr nonnull %7) #9
  br label %82

51:                                               ; preds = %43
  call void @llvm.lifetime.start.p0(i64 32, ptr nonnull %6) #9
  store ptr %18, ptr %6, align 8, !tbaa !6
  %52 = getelementptr inbounds %class.anon.77, ptr %6, i64 0, i32 1
  store ptr %16, ptr %52, align 8, !tbaa !6
  %53 = getelementptr inbounds %class.anon.77, ptr %6, i64 0, i32 2
  store ptr %20, ptr %53, align 8, !tbaa !6
  %54 = getelementptr inbounds %class.anon.77, ptr %6, i64 0, i32 3
  store ptr %22, ptr %54, align 8, !tbaa !6
  call void @_ZZZZZZZZ13run_flash_fwdI23Flash_fwd_kernel_traitsILi192ELi64ELi64ELi4ELb0ELb0EN7cutlass6half_tE19Flash_kernel_traitsILi192ELi64ELi64ELi4ES2_EELb1ELb0EEvR16Flash_fwd_paramsP11CUstream_stENKUlvE_clEvENKUlvE_clEvENKUlvE_clEvENKUlvE0_clEvENKUlvE_clEvENKUlvE0_clEvENKUlvE_clEv(ptr noundef nonnull align 8 dereferenceable(32) %6)
  call void @llvm.lifetime.end.p0(i64 32, ptr nonnull %6) #9
  br label %82

55:                                               ; preds = %1
  br i1 %24, label %69, label %56

56:                                               ; preds = %55
  br i1 %27, label %61, label %57

57:                                               ; preds = %56
  %58 = getelementptr inbounds %struct.Flash_fwd_params, ptr %16, i64 0, i32 46
  %59 = load i32, ptr %58, align 8, !tbaa !43
  %60 = icmp sgt i32 %59, -1
  br i1 %60, label %61, label %65

61:                                               ; preds = %57, %56
  call void @llvm.lifetime.start.p0(i64 32, ptr nonnull %5) #9
  store ptr %18, ptr %5, align 8, !tbaa !6
  %62 = getelementptr inbounds %class.anon.104, ptr %5, i64 0, i32 1
  store ptr %16, ptr %62, align 8, !tbaa !6
  %63 = getelementptr inbounds %class.anon.104, ptr %5, i64 0, i32 2
  store ptr %20, ptr %63, align 8, !tbaa !6
  %64 = getelementptr inbounds %class.anon.104, ptr %5, i64 0, i32 3
  store ptr %22, ptr %64, align 8, !tbaa !6
  call void @_ZZZZZZZZ13run_flash_fwdI23Flash_fwd_kernel_traitsILi192ELi64ELi64ELi4ELb0ELb0EN7cutlass6half_tE19Flash_kernel_traitsILi192ELi64ELi64ELi4ES2_EELb1ELb0EEvR16Flash_fwd_paramsP11CUstream_stENKUlvE_clEvENKUlvE0_clEvENKUlvE_clEvENKUlvE_clEvENKUlvE_clEvENKUlvE_clEvENKUlvE_clEv(ptr noundef nonnull align 8 dereferenceable(32) %5)
  call void @llvm.lifetime.end.p0(i64 32, ptr nonnull %5) #9
  br label %82

65:                                               ; preds = %57
  call void @llvm.lifetime.start.p0(i64 32, ptr nonnull %4) #9
  store ptr %18, ptr %4, align 8, !tbaa !6
  %66 = getelementptr inbounds %class.anon.125, ptr %4, i64 0, i32 1
  store ptr %16, ptr %66, align 8, !tbaa !6
  %67 = getelementptr inbounds %class.anon.125, ptr %4, i64 0, i32 2
  store ptr %20, ptr %67, align 8, !tbaa !6
  %68 = getelementptr inbounds %class.anon.125, ptr %4, i64 0, i32 3
  store ptr %22, ptr %68, align 8, !tbaa !6
  call void @_ZZZZZZZZ13run_flash_fwdI23Flash_fwd_kernel_traitsILi192ELi64ELi64ELi4ELb0ELb0EN7cutlass6half_tE19Flash_kernel_traitsILi192ELi64ELi64ELi4ES2_EELb1ELb0EEvR16Flash_fwd_paramsP11CUstream_stENKUlvE_clEvENKUlvE0_clEvENKUlvE_clEvENKUlvE_clEvENKUlvE_clEvENKUlvE0_clEvENKUlvE_clEv(ptr noundef nonnull align 8 dereferenceable(32) %4)
  call void @llvm.lifetime.end.p0(i64 32, ptr nonnull %4) #9
  br label %82

69:                                               ; preds = %55
  br i1 %27, label %74, label %70

70:                                               ; preds = %69
  %71 = getelementptr inbounds %struct.Flash_fwd_params, ptr %16, i64 0, i32 46
  %72 = load i32, ptr %71, align 8, !tbaa !43
  %73 = icmp sgt i32 %72, -1
  br i1 %73, label %74, label %78

74:                                               ; preds = %70, %69
  call void @llvm.lifetime.start.p0(i64 32, ptr nonnull %3) #9
  store ptr %18, ptr %3, align 8, !tbaa !6
  %75 = getelementptr inbounds %class.anon.149, ptr %3, i64 0, i32 1
  store ptr %16, ptr %75, align 8, !tbaa !6
  %76 = getelementptr inbounds %class.anon.149, ptr %3, i64 0, i32 2
  store ptr %20, ptr %76, align 8, !tbaa !6
  %77 = getelementptr inbounds %class.anon.149, ptr %3, i64 0, i32 3
  store ptr %22, ptr %77, align 8, !tbaa !6
  call void @_ZZZZZZZZ13run_flash_fwdI23Flash_fwd_kernel_traitsILi192ELi64ELi64ELi4ELb0ELb0EN7cutlass6half_tE19Flash_kernel_traitsILi192ELi64ELi64ELi4ES2_EELb1ELb0EEvR16Flash_fwd_paramsP11CUstream_stENKUlvE_clEvENKUlvE0_clEvENKUlvE_clEvENKUlvE0_clEvENKUlvE_clEvENKUlvE_clEvENKUlvE_clEv(ptr noundef nonnull align 8 dereferenceable(32) %3)
  call void @llvm.lifetime.end.p0(i64 32, ptr nonnull %3) #9
  br label %82

78:                                               ; preds = %70
  call void @llvm.lifetime.start.p0(i64 32, ptr nonnull %2) #9
  store ptr %18, ptr %2, align 8, !tbaa !6
  %79 = getelementptr inbounds %class.anon.170, ptr %2, i64 0, i32 1
  store ptr %16, ptr %79, align 8, !tbaa !6
  %80 = getelementptr inbounds %class.anon.170, ptr %2, i64 0, i32 2
  store ptr %20, ptr %80, align 8, !tbaa !6
  %81 = getelementptr inbounds %class.anon.170, ptr %2, i64 0, i32 3
  store ptr %22, ptr %81, align 8, !tbaa !6
  call void @_ZZZZZZZZ13run_flash_fwdI23Flash_fwd_kernel_traitsILi192ELi64ELi64ELi4ELb0ELb0EN7cutlass6half_tE19Flash_kernel_traitsILi192ELi64ELi64ELi4ES2_EELb1ELb0EEvR16Flash_fwd_paramsP11CUstream_stENKUlvE_clEvENKUlvE0_clEvENKUlvE_clEvENKUlvE0_clEvENKUlvE_clEvENKUlvE0_clEvENKUlvE_clEv(ptr noundef nonnull align 8 dereferenceable(32) %2)
  call void @llvm.lifetime.end.p0(i64 32, ptr nonnull %2) #9
  br label %82

82:                                               ; preds = %78, %74, %65, %61, %51, %47, %38, %34
  ret void
}

; Function Attrs: inlinehint mustprogress uwtable
define linkonce_odr dso_local void @_ZZZZZZZZ13run_flash_fwdI23Flash_fwd_kernel_traitsILi192ELi64ELi64ELi4ELb0ELb0EN7cutlass6half_tE19Flash_kernel_traitsILi192ELi64ELi64ELi4ES2_EELb1ELb0EEvR16Flash_fwd_paramsP11CUstream_stENKUlvE_clEvENKUlvE_clEvENKUlvE_clEvENKUlvE_clEvENKUlvE_clEvENKUlvE_clEvENKUlvE_clEv(ptr noundef nonnull align 8 dereferenceable(32) %0) local_unnamed_addr #5 comdat align 2 {
  %2 = alloca %class.anon.30, align 8
  %3 = alloca %class.anon.31, align 8
  %4 = alloca %class.anon.27, align 8
  %5 = alloca %class.anon.28, align 8
  %6 = alloca %class.anon.21, align 8
  %7 = alloca %class.anon.22, align 8
  %8 = alloca %class.anon.18, align 8
  %9 = alloca %class.anon.19, align 8
  %10 = load ptr, ptr %0, align 8, !tbaa !44
  %11 = load i8, ptr %10, align 1, !tbaa !30, !range !35, !noundef !36
  %12 = icmp eq i8 %11, 0
  %13 = getelementptr inbounds %class.anon.11, ptr %0, i64 0, i32 1
  %14 = load ptr, ptr %13, align 8, !tbaa !46
  %15 = getelementptr inbounds %class.anon.11, ptr %0, i64 0, i32 2
  %16 = load ptr, ptr %15, align 8, !tbaa !47
  %17 = getelementptr inbounds %class.anon.11, ptr %0, i64 0, i32 3
  %18 = load ptr, ptr %17, align 8, !tbaa !48
  %19 = getelementptr inbounds %struct.Flash_fwd_params, ptr %14, i64 0, i32 55
  %20 = load ptr, ptr %19, align 8, !tbaa !49
  %21 = icmp eq ptr %20, null
  %22 = getelementptr inbounds %struct.Flash_fwd_params, ptr %14, i64 0, i32 47
  %23 = load float, ptr %22, align 4, !tbaa !50
  %24 = fcmp ogt float %23, 0.000000e+00
  br i1 %12, label %40, label %25

25:                                               ; preds = %1
  br i1 %21, label %33, label %26

26:                                               ; preds = %25
  br i1 %24, label %27, label %30

27:                                               ; preds = %26
  call void @llvm.lifetime.start.p0(i64 24, ptr nonnull %8) #9
  store ptr %16, ptr %8, align 8, !tbaa !6
  %28 = getelementptr inbounds %class.anon.18, ptr %8, i64 0, i32 1
  store ptr %18, ptr %28, align 8, !tbaa !6
  %29 = getelementptr inbounds %class.anon.18, ptr %8, i64 0, i32 2
  store ptr %14, ptr %29, align 8, !tbaa !6
  call void @_ZZZZZZZZZZZZZ13run_flash_fwdI23Flash_fwd_kernel_traitsILi192ELi64ELi64ELi4ELb0ELb0EN7cutlass6half_tE19Flash_kernel_traitsILi192ELi64ELi64ELi4ES2_EELb1ELb0EEvR16Flash_fwd_paramsP11CUstream_stENKUlvE_clEvENKUlvE_clEvENKUlvE_clEvENKUlvE_clEvENKUlvE_clEvENKUlvE_clEvENKUlvE_clEvENKUlvE_clEvENKUlvE_clEvENKUlvE_clEvENKUlvE_clEvENKUlvE_clEv(ptr noundef nonnull align 8 dereferenceable(24) %8)
  call void @llvm.lifetime.end.p0(i64 24, ptr nonnull %8) #9
  br label %55

30:                                               ; preds = %26
  call void @llvm.lifetime.start.p0(i64 24, ptr nonnull %9) #9
  store ptr %16, ptr %9, align 8, !tbaa !6
  %31 = getelementptr inbounds %class.anon.19, ptr %9, i64 0, i32 1
  store ptr %18, ptr %31, align 8, !tbaa !6
  %32 = getelementptr inbounds %class.anon.19, ptr %9, i64 0, i32 2
  store ptr %14, ptr %32, align 8, !tbaa !6
  call void @_ZZZZZZZZZZZZZ13run_flash_fwdI23Flash_fwd_kernel_traitsILi192ELi64ELi64ELi4ELb0ELb0EN7cutlass6half_tE19Flash_kernel_traitsILi192ELi64ELi64ELi4ES2_EELb1ELb0EEvR16Flash_fwd_paramsP11CUstream_stENKUlvE_clEvENKUlvE_clEvENKUlvE_clEvENKUlvE_clEvENKUlvE_clEvENKUlvE_clEvENKUlvE_clEvENKUlvE_clEvENKUlvE_clEvENKUlvE_clEvENKUlvE_clEvENKUlvE0_clEv(ptr noundef nonnull align 8 dereferenceable(24) %9)
  call void @llvm.lifetime.end.p0(i64 24, ptr nonnull %9) #9
  br label %55

33:                                               ; preds = %25
  br i1 %24, label %34, label %37

34:                                               ; preds = %33
  call void @llvm.lifetime.start.p0(i64 24, ptr nonnull %6) #9
  store ptr %16, ptr %6, align 8, !tbaa !6
  %35 = getelementptr inbounds %class.anon.21, ptr %6, i64 0, i32 1
  store ptr %18, ptr %35, align 8, !tbaa !6
  %36 = getelementptr inbounds %class.anon.21, ptr %6, i64 0, i32 2
  store ptr %14, ptr %36, align 8, !tbaa !6
  call void @_ZZZZZZZZZZZZZ13run_flash_fwdI23Flash_fwd_kernel_traitsILi192ELi64ELi64ELi4ELb0ELb0EN7cutlass6half_tE19Flash_kernel_traitsILi192ELi64ELi64ELi4ES2_EELb1ELb0EEvR16Flash_fwd_paramsP11CUstream_stENKUlvE_clEvENKUlvE_clEvENKUlvE_clEvENKUlvE_clEvENKUlvE_clEvENKUlvE_clEvENKUlvE_clEvENKUlvE_clEvENKUlvE_clEvENKUlvE0_clEvENKUlvE_clEvENKUlvE_clEv(ptr noundef nonnull align 8 dereferenceable(24) %6)
  call void @llvm.lifetime.end.p0(i64 24, ptr nonnull %6) #9
  br label %55

37:                                               ; preds = %33
  call void @llvm.lifetime.start.p0(i64 24, ptr nonnull %7) #9
  store ptr %16, ptr %7, align 8, !tbaa !6
  %38 = getelementptr inbounds %class.anon.22, ptr %7, i64 0, i32 1
  store ptr %18, ptr %38, align 8, !tbaa !6
  %39 = getelementptr inbounds %class.anon.22, ptr %7, i64 0, i32 2
  store ptr %14, ptr %39, align 8, !tbaa !6
  call void @_ZZZZZZZZZZZZZ13run_flash_fwdI23Flash_fwd_kernel_traitsILi192ELi64ELi64ELi4ELb0ELb0EN7cutlass6half_tE19Flash_kernel_traitsILi192ELi64ELi64ELi4ES2_EELb1ELb0EEvR16Flash_fwd_paramsP11CUstream_stENKUlvE_clEvENKUlvE_clEvENKUlvE_clEvENKUlvE_clEvENKUlvE_clEvENKUlvE_clEvENKUlvE_clEvENKUlvE_clEvENKUlvE_clEvENKUlvE0_clEvENKUlvE_clEvENKUlvE0_clEv(ptr noundef nonnull align 8 dereferenceable(24) %7)
  call void @llvm.lifetime.end.p0(i64 24, ptr nonnull %7) #9
  br label %55

40:                                               ; preds = %1
  br i1 %21, label %48, label %41

41:                                               ; preds = %40
  br i1 %24, label %42, label %45

42:                                               ; preds = %41
  call void @llvm.lifetime.start.p0(i64 24, ptr nonnull %4) #9
  store ptr %16, ptr %4, align 8, !tbaa !6
  %43 = getelementptr inbounds %class.anon.27, ptr %4, i64 0, i32 1
  store ptr %18, ptr %43, align 8, !tbaa !6
  %44 = getelementptr inbounds %class.anon.27, ptr %4, i64 0, i32 2
  store ptr %14, ptr %44, align 8, !tbaa !6
  call void @_ZZZZZZZZZZZZZ13run_flash_fwdI23Flash_fwd_kernel_traitsILi192ELi64ELi64ELi4ELb0ELb0EN7cutlass6half_tE19Flash_kernel_traitsILi192ELi64ELi64ELi4ES2_EELb1ELb0EEvR16Flash_fwd_paramsP11CUstream_stENKUlvE_clEvENKUlvE_clEvENKUlvE_clEvENKUlvE_clEvENKUlvE_clEvENKUlvE_clEvENKUlvE_clEvENKUlvE0_clEvENKUlvE_clEvENKUlvE_clEvENKUlvE_clEvENKUlvE_clEv(ptr noundef nonnull align 8 dereferenceable(24) %4)
  call void @llvm.lifetime.end.p0(i64 24, ptr nonnull %4) #9
  br label %55

45:                                               ; preds = %41
  call void @llvm.lifetime.start.p0(i64 24, ptr nonnull %5) #9
  store ptr %16, ptr %5, align 8, !tbaa !6
  %46 = getelementptr inbounds %class.anon.28, ptr %5, i64 0, i32 1
  store ptr %18, ptr %46, align 8, !tbaa !6
  %47 = getelementptr inbounds %class.anon.28, ptr %5, i64 0, i32 2
  store ptr %14, ptr %47, align 8, !tbaa !6
  call void @_ZZZZZZZZZZZZZ13run_flash_fwdI23Flash_fwd_kernel_traitsILi192ELi64ELi64ELi4ELb0ELb0EN7cutlass6half_tE19Flash_kernel_traitsILi192ELi64ELi64ELi4ES2_EELb1ELb0EEvR16Flash_fwd_paramsP11CUstream_stENKUlvE_clEvENKUlvE_clEvENKUlvE_clEvENKUlvE_clEvENKUlvE_clEvENKUlvE_clEvENKUlvE_clEvENKUlvE0_clEvENKUlvE_clEvENKUlvE_clEvENKUlvE_clEvENKUlvE0_clEv(ptr noundef nonnull align 8 dereferenceable(24) %5)
  call void @llvm.lifetime.end.p0(i64 24, ptr nonnull %5) #9
  br label %55

48:                                               ; preds = %40
  br i1 %24, label %49, label %52

49:                                               ; preds = %48
  call void @llvm.lifetime.start.p0(i64 24, ptr nonnull %2) #9
  store ptr %16, ptr %2, align 8, !tbaa !6
  %50 = getelementptr inbounds %class.anon.30, ptr %2, i64 0, i32 1
  store ptr %18, ptr %50, align 8, !tbaa !6
  %51 = getelementptr inbounds %class.anon.30, ptr %2, i64 0, i32 2
  store ptr %14, ptr %51, align 8, !tbaa !6
  call void @_ZZZZZZZZZZZZZ13run_flash_fwdI23Flash_fwd_kernel_traitsILi192ELi64ELi64ELi4ELb0ELb0EN7cutlass6half_tE19Flash_kernel_traitsILi192ELi64ELi64ELi4ES2_EELb1ELb0EEvR16Flash_fwd_paramsP11CUstream_stENKUlvE_clEvENKUlvE_clEvENKUlvE_clEvENKUlvE_clEvENKUlvE_clEvENKUlvE_clEvENKUlvE_clEvENKUlvE0_clEvENKUlvE_clEvENKUlvE0_clEvENKUlvE_clEvENKUlvE_clEv(ptr noundef nonnull align 8 dereferenceable(24) %2)
  call void @llvm.lifetime.end.p0(i64 24, ptr nonnull %2) #9
  br label %55

52:                                               ; preds = %48
  call void @llvm.lifetime.start.p0(i64 24, ptr nonnull %3) #9
  store ptr %16, ptr %3, align 8, !tbaa !6
  %53 = getelementptr inbounds %class.anon.31, ptr %3, i64 0, i32 1
  store ptr %18, ptr %53, align 8, !tbaa !6
  %54 = getelementptr inbounds %class.anon.31, ptr %3, i64 0, i32 2
  store ptr %14, ptr %54, align 8, !tbaa !6
  call void @_ZZZZZZZZZZZZZ13run_flash_fwdI23Flash_fwd_kernel_traitsILi192ELi64ELi64ELi4ELb0ELb0EN7cutlass6half_tE19Flash_kernel_traitsILi192ELi64ELi64ELi4ES2_EELb1ELb0EEvR16Flash_fwd_paramsP11CUstream_stENKUlvE_clEvENKUlvE_clEvENKUlvE_clEvENKUlvE_clEvENKUlvE_clEvENKUlvE_clEvENKUlvE_clEvENKUlvE0_clEvENKUlvE_clEvENKUlvE0_clEvENKUlvE_clEvENKUlvE0_clEv(ptr noundef nonnull align 8 dereferenceable(24) %3)
  call void @llvm.lifetime.end.p0(i64 24, ptr nonnull %3) #9
  br label %55

55:                                               ; preds = %52, %49, %45, %42, %37, %34, %30, %27
  ret void
}

; Function Attrs: inlinehint mustprogress uwtable
define linkonce_odr dso_local void @_ZZZZZZZZZZZZZ13run_flash_fwdI23Flash_fwd_kernel_traitsILi192ELi64ELi64ELi4ELb0ELb0EN7cutlass6half_tE19Flash_kernel_traitsILi192ELi64ELi64ELi4ES2_EELb1ELb0EEvR16Flash_fwd_paramsP11CUstream_stENKUlvE_clEvENKUlvE_clEvENKUlvE_clEvENKUlvE_clEvENKUlvE_clEvENKUlvE_clEvENKUlvE_clEvENKUlvE_clEvENKUlvE_clEvENKUlvE_clEvENKUlvE_clEvENKUlvE_clEv(ptr noundef nonnull align 8 dereferenceable(24) %0) local_unnamed_addr #5 comdat align 2 {
  %2 = alloca %struct.dim3, align 8
  %3 = alloca %struct.dim3, align 8
  %4 = alloca i64, align 8
  %5 = alloca ptr, align 8
  %6 = alloca ptr, align 16
  %7 = alloca %struct.Flash_fwd_params, align 8
  %8 = alloca %struct.Flash_fwd_params, align 8
  %9 = tail call noundef i32 @cudaFuncSetAttribute(ptr noundef nonnull @_Z31__device_stub__flash_fwd_kernelI23Flash_fwd_kernel_traitsILi192ELi64ELi64ELi4ELb0ELb0EN7cutlass6half_tE19Flash_kernel_traitsILi192ELi64ELi64ELi4ES2_EELb0ELb0ELb1ELb1ELb0ELb1ELb1ELb0EEv16Flash_fwd_params, i32 noundef 8, i32 noundef 73728)
  tail call void @_ZN3c104cuda29c10_cuda_check_implementationEiPKcS2_ib(i32 noundef %9, ptr noundef nonnull @.str, ptr noundef nonnull @__func__._ZZZZZZZZZZZZZ13run_flash_fwdI23Flash_fwd_kernel_traitsILi192ELi64ELi64ELi4ELb0ELb0EN7cutlass6half_tE19Flash_kernel_traitsILi192ELi64ELi64ELi4ES2_EELb1ELb0EEvR16Flash_fwd_paramsP11CUstream_stENKUlvE_clEvENKUlvE_clEvENKUlvE_clEvENKUlvE_clEvENKUlvE_clEvENKUlvE_clEvENKUlvE_clEvENKUlvE_clEvENKUlvE_clEvENKUlvE_clEvENKUlvE_clEvENKUlvE_clEv, i32 noundef 82, i1 noundef zeroext true)
  %10 = load ptr, ptr %0, align 8, !tbaa !51
  %11 = load i64, ptr %10, align 4, !tbaa.struct !53
  %12 = getelementptr inbounds i8, ptr %10, i64 8
  %13 = load i32, ptr %12, align 4, !tbaa.struct !55
  %14 = getelementptr inbounds %class.anon.18, ptr %0, i64 0, i32 1
  %15 = load ptr, ptr %14, align 8, !tbaa !56
  %16 = load ptr, ptr %15, align 8, !tbaa !6
  %17 = tail call i32 @__cudaPushCallConfiguration(i64 %11, i32 %13, i64 4294967424, i32 1, i64 noundef 73728, ptr noundef %16)
  %18 = icmp eq i32 %17, 0
  br i1 %18, label %19, label %32

19:                                               ; preds = %1
  %20 = getelementptr inbounds %class.anon.18, ptr %0, i64 0, i32 2
  %21 = load ptr, ptr %20, align 8, !tbaa !57
  call void @llvm.memcpy.p0.p0.i64(ptr noundef nonnull align 8 dereferenceable(464) %8, ptr noundef nonnull align 8 dereferenceable(464) %21, i64 464, i1 false)
  call void @llvm.lifetime.start.p0(i64 464, ptr nonnull %7)
  call void @llvm.lifetime.start.p0(i64 12, ptr nonnull %2)
  call void @llvm.lifetime.start.p0(i64 12, ptr nonnull %3)
  call void @llvm.lifetime.start.p0(i64 8, ptr nonnull %4)
  call void @llvm.lifetime.start.p0(i64 8, ptr nonnull %5)
  call void @llvm.lifetime.start.p0(i64 8, ptr nonnull %6)
  call void @llvm.memcpy.p0.p0.i64(ptr noundef nonnull align 8 dereferenceable(464) %7, ptr noundef nonnull align 8 dereferenceable(464) %8, i64 464, i1 false)
  store ptr %7, ptr %6, align 16
  %22 = call i32 @__cudaPopCallConfiguration(ptr nonnull %2, ptr nonnull %3, ptr nonnull %4, ptr nonnull %5)
  %23 = load i64, ptr %4, align 8
  %24 = load ptr, ptr %5, align 8
  %25 = load i64, ptr %2, align 8
  %26 = getelementptr inbounds i8, ptr %2, i64 8
  %27 = load i32, ptr %26, align 8
  %28 = load i64, ptr %3, align 8
  %29 = getelementptr inbounds i8, ptr %3, i64 8
  %30 = load i32, ptr %29, align 8
  %31 = call noundef i32 @cudaLaunchKernel(ptr noundef nonnull @_Z31__device_stub__flash_fwd_kernelI23Flash_fwd_kernel_traitsILi192ELi64ELi64ELi4ELb0ELb0EN7cutlass6half_tE19Flash_kernel_traitsILi192ELi64ELi64ELi4ES2_EELb0ELb0ELb1ELb1ELb0ELb1ELb1ELb0EEv16Flash_fwd_params, i64 %25, i32 %27, i64 %28, i32 %30, ptr noundef nonnull %6, i64 noundef %23, ptr noundef %24)
  call void @llvm.lifetime.end.p0(i64 464, ptr nonnull %7)
  call void @llvm.lifetime.end.p0(i64 12, ptr nonnull %2)
  call void @llvm.lifetime.end.p0(i64 12, ptr nonnull %3)
  call void @llvm.lifetime.end.p0(i64 8, ptr nonnull %4)
  call void @llvm.lifetime.end.p0(i64 8, ptr nonnull %5)
  call void @llvm.lifetime.end.p0(i64 8, ptr nonnull %6)
  br label %32

32:                                               ; preds = %1, %19
  %33 = call i32 @cudaGetLastError()
  call void @_ZN3c104cuda29c10_cuda_check_implementationEiPKcS2_ib(i32 noundef %33, ptr noundef nonnull @.str, ptr noundef nonnull @__func__._ZZZZZZZZZZZZZ13run_flash_fwdI23Flash_fwd_kernel_traitsILi192ELi64ELi64ELi4ELb0ELb0EN7cutlass6half_tE19Flash_kernel_traitsILi192ELi64ELi64ELi4ES2_EELb1ELb0EEvR16Flash_fwd_paramsP11CUstream_stENKUlvE_clEvENKUlvE_clEvENKUlvE_clEvENKUlvE_clEvENKUlvE_clEvENKUlvE_clEvENKUlvE_clEvENKUlvE_clEvENKUlvE_clEvENKUlvE_clEvENKUlvE_clEvENKUlvE_clEv, i32 noundef 89, i1 noundef zeroext true)
  ret void
}

; Function Attrs: inlinehint mustprogress uwtable
define linkonce_odr dso_local void @_ZZZZZZZZZZZZZ13run_flash_fwdI23Flash_fwd_kernel_traitsILi192ELi64ELi64ELi4ELb0ELb0EN7cutlass6half_tE19Flash_kernel_traitsILi192ELi64ELi64ELi4ES2_EELb1ELb0EEvR16Flash_fwd_paramsP11CUstream_stENKUlvE_clEvENKUlvE_clEvENKUlvE_clEvENKUlvE_clEvENKUlvE_clEvENKUlvE_clEvENKUlvE_clEvENKUlvE_clEvENKUlvE_clEvENKUlvE_clEvENKUlvE_clEvENKUlvE0_clEv(ptr noundef nonnull align 8 dereferenceable(24) %0) local_unnamed_addr #5 comdat align 2 {
  %2 = alloca %struct.dim3, align 8
  %3 = alloca %struct.dim3, align 8
  %4 = alloca i64, align 8
  %5 = alloca ptr, align 8
  %6 = alloca ptr, align 16
  %7 = alloca %struct.Flash_fwd_params, align 8
  %8 = alloca %struct.Flash_fwd_params, align 8
  %9 = tail call noundef i32 @cudaFuncSetAttribute(ptr noundef nonnull @_Z31__device_stub__flash_fwd_kernelI23Flash_fwd_kernel_traitsILi192ELi64ELi64ELi4ELb0ELb0EN7cutlass6half_tE19Flash_kernel_traitsILi192ELi64ELi64ELi4ES2_EELb1ELb0ELb1ELb1ELb0ELb1ELb0ELb1EEv16Flash_fwd_params, i32 noundef 8, i32 noundef 73728)
  tail call void @_ZN3c104cuda29c10_cuda_check_implementationEiPKcS2_ib(i32 noundef %9, ptr noundef nonnull @.str, ptr noundef nonnull @__func__._ZZZZZZZZZZZZZ13run_flash_fwdI23Flash_fwd_kernel_traitsILi192ELi64ELi64ELi4ELb0ELb0EN7cutlass6half_tE19Flash_kernel_traitsILi192ELi64ELi64ELi4ES2_EELb1ELb0EEvR16Flash_fwd_paramsP11CUstream_stENKUlvE_clEvENKUlvE_clEvENKUlvE_clEvENKUlvE_clEvENKUlvE_clEvENKUlvE_clEvENKUlvE_clEvENKUlvE_clEvENKUlvE_clEvENKUlvE_clEvENKUlvE_clEvENKUlvE_clEv, i32 noundef 82, i1 noundef zeroext true)
  %10 = load ptr, ptr %0, align 8, !tbaa !58
  %11 = load i64, ptr %10, align 4, !tbaa.struct !53
  %12 = getelementptr inbounds i8, ptr %10, i64 8
  %13 = load i32, ptr %12, align 4, !tbaa.struct !55
  %14 = getelementptr inbounds %class.anon.19, ptr %0, i64 0, i32 1
  %15 = load ptr, ptr %14, align 8, !tbaa !60
  %16 = load ptr, ptr %15, align 8, !tbaa !6
  %17 = tail call i32 @__cudaPushCallConfiguration(i64 %11, i32 %13, i64 4294967424, i32 1, i64 noundef 73728, ptr noundef %16)
  %18 = icmp eq i32 %17, 0
  br i1 %18, label %19, label %32

19:                                               ; preds = %1
  %20 = getelementptr inbounds %class.anon.19, ptr %0, i64 0, i32 2
  %21 = load ptr, ptr %20, align 8, !tbaa !61
  call void @llvm.memcpy.p0.p0.i64(ptr noundef nonnull align 8 dereferenceable(464) %8, ptr noundef nonnull align 8 dereferenceable(464) %21, i64 464, i1 false)
  call void @llvm.lifetime.start.p0(i64 464, ptr nonnull %7)
  call void @llvm.lifetime.start.p0(i64 12, ptr nonnull %2)
  call void @llvm.lifetime.start.p0(i64 12, ptr nonnull %3)
  call void @llvm.lifetime.start.p0(i64 8, ptr nonnull %4)
  call void @llvm.lifetime.start.p0(i64 8, ptr nonnull %5)
  call void @llvm.lifetime.start.p0(i64 8, ptr nonnull %6)
  call void @llvm.memcpy.p0.p0.i64(ptr noundef nonnull align 8 dereferenceable(464) %7, ptr noundef nonnull align 8 dereferenceable(464) %8, i64 464, i1 false)
  store ptr %7, ptr %6, align 16
  %22 = call i32 @__cudaPopCallConfiguration(ptr nonnull %2, ptr nonnull %3, ptr nonnull %4, ptr nonnull %5)
  %23 = load i64, ptr %4, align 8
  %24 = load ptr, ptr %5, align 8
  %25 = load i64, ptr %2, align 8
  %26 = getelementptr inbounds i8, ptr %2, i64 8
  %27 = load i32, ptr %26, align 8
  %28 = load i64, ptr %3, align 8
  %29 = getelementptr inbounds i8, ptr %3, i64 8
  %30 = load i32, ptr %29, align 8
  %31 = call noundef i32 @cudaLaunchKernel(ptr noundef nonnull @_Z31__device_stub__flash_fwd_kernelI23Flash_fwd_kernel_traitsILi192ELi64ELi64ELi4ELb0ELb0EN7cutlass6half_tE19Flash_kernel_traitsILi192ELi64ELi64ELi4ES2_EELb1ELb0ELb1ELb1ELb0ELb1ELb0ELb1EEv16Flash_fwd_params, i64 %25, i32 %27, i64 %28, i32 %30, ptr noundef nonnull %6, i64 noundef %23, ptr noundef %24)
  call void @llvm.lifetime.end.p0(i64 464, ptr nonnull %7)
  call void @llvm.lifetime.end.p0(i64 12, ptr nonnull %2)
  call void @llvm.lifetime.end.p0(i64 12, ptr nonnull %3)
  call void @llvm.lifetime.end.p0(i64 8, ptr nonnull %4)
  call void @llvm.lifetime.end.p0(i64 8, ptr nonnull %5)
  call void @llvm.lifetime.end.p0(i64 8, ptr nonnull %6)
  br label %32

32:                                               ; preds = %1, %19
  %33 = call i32 @cudaGetLastError()
  call void @_ZN3c104cuda29c10_cuda_check_implementationEiPKcS2_ib(i32 noundef %33, ptr noundef nonnull @.str, ptr noundef nonnull @__func__._ZZZZZZZZZZZZZ13run_flash_fwdI23Flash_fwd_kernel_traitsILi192ELi64ELi64ELi4ELb0ELb0EN7cutlass6half_tE19Flash_kernel_traitsILi192ELi64ELi64ELi4ES2_EELb1ELb0EEvR16Flash_fwd_paramsP11CUstream_stENKUlvE_clEvENKUlvE_clEvENKUlvE_clEvENKUlvE_clEvENKUlvE_clEvENKUlvE_clEvENKUlvE_clEvENKUlvE_clEvENKUlvE_clEvENKUlvE_clEvENKUlvE_clEvENKUlvE_clEv, i32 noundef 89, i1 noundef zeroext true)
  ret void
}

; Function Attrs: mustprogress norecurse uwtable
define linkonce_odr dso_local void @_Z31__device_stub__flash_fwd_kernelI23Flash_fwd_kernel_traitsILi192ELi64ELi64ELi4ELb0ELb0EN7cutlass6half_tE19Flash_kernel_traitsILi192ELi64ELi64ELi4ES2_EELb0ELb0ELb1ELb1ELb0ELb1ELb1ELb0EEv16Flash_fwd_params(ptr noundef byval(%struct.Flash_fwd_params) align 8 %0) #6 comdat {
  %2 = alloca %struct.dim3, align 8
  %3 = alloca %struct.dim3, align 8
  %4 = alloca i64, align 8
  %5 = alloca ptr, align 8
  %6 = alloca ptr, align 16
  store ptr %0, ptr %6, align 16
  %7 = call i32 @__cudaPopCallConfiguration(ptr nonnull %2, ptr nonnull %3, ptr nonnull %4, ptr nonnull %5)
  %8 = load i64, ptr %4, align 8
  %9 = load ptr, ptr %5, align 8
  %10 = load i64, ptr %2, align 8
  %11 = getelementptr inbounds i8, ptr %2, i64 8
  %12 = load i32, ptr %11, align 8
  %13 = load i64, ptr %3, align 8
  %14 = getelementptr inbounds i8, ptr %3, i64 8
  %15 = load i32, ptr %14, align 8
  %16 = call noundef i32 @cudaLaunchKernel(ptr noundef nonnull @_Z31__device_stub__flash_fwd_kernelI23Flash_fwd_kernel_traitsILi192ELi64ELi64ELi4ELb0ELb0EN7cutlass6half_tE19Flash_kernel_traitsILi192ELi64ELi64ELi4ES2_EELb0ELb0ELb1ELb1ELb0ELb1ELb1ELb0EEv16Flash_fwd_params, i64 %10, i32 %12, i64 %13, i32 %15, ptr noundef nonnull %6, i64 noundef %8, ptr noundef %9)
  ret void
}

declare void @_ZN3c104cuda29c10_cuda_check_implementationEiPKcS2_ib(i32 noundef, ptr noundef, ptr noundef, i32 noundef, i1 noundef zeroext) local_unnamed_addr #0

declare i32 @__cudaPushCallConfiguration(i64, i32, i64, i32, i64 noundef, ptr noundef) local_unnamed_addr #0

; Function Attrs: mustprogress nocallback nofree nounwind willreturn memory(argmem: readwrite)
declare void @llvm.memcpy.p0.p0.i64(ptr noalias nocapture writeonly, ptr noalias nocapture readonly, i64, i1 immarg) #7

declare i32 @cudaGetLastError() local_unnamed_addr #0

declare i32 @__cudaPopCallConfiguration(ptr, ptr, ptr, ptr) local_unnamed_addr

declare i32 @cudaLaunchKernel(ptr, i64, i32, i64, i32, ptr, i64, ptr) local_unnamed_addr

declare i32 @cudaFuncSetAttribute(ptr noundef, i32 noundef, i32 noundef) local_unnamed_addr #0

; Function Attrs: mustprogress norecurse uwtable
define linkonce_odr dso_local void @_Z31__device_stub__flash_fwd_kernelI23Flash_fwd_kernel_traitsILi192ELi64ELi64ELi4ELb0ELb0EN7cutlass6half_tE19Flash_kernel_traitsILi192ELi64ELi64ELi4ES2_EELb1ELb0ELb1ELb1ELb0ELb1ELb0ELb1EEv16Flash_fwd_params(ptr noundef byval(%struct.Flash_fwd_params) align 8 %0) #6 comdat {
  %2 = alloca %struct.dim3, align 8
  %3 = alloca %struct.dim3, align 8
  %4 = alloca i64, align 8
  %5 = alloca ptr, align 8
  %6 = alloca ptr, align 16
  store ptr %0, ptr %6, align 16
  %7 = call i32 @__cudaPopCallConfiguration(ptr nonnull %2, ptr nonnull %3, ptr nonnull %4, ptr nonnull %5)
  %8 = load i64, ptr %4, align 8
  %9 = load ptr, ptr %5, align 8
  %10 = load i64, ptr %2, align 8
  %11 = getelementptr inbounds i8, ptr %2, i64 8
  %12 = load i32, ptr %11, align 8
  %13 = load i64, ptr %3, align 8
  %14 = getelementptr inbounds i8, ptr %3, i64 8
  %15 = load i32, ptr %14, align 8
  %16 = call noundef i32 @cudaLaunchKernel(ptr noundef nonnull @_Z31__device_stub__flash_fwd_kernelI23Flash_fwd_kernel_traitsILi192ELi64ELi64ELi4ELb0ELb0EN7cutlass6half_tE19Flash_kernel_traitsILi192ELi64ELi64ELi4ES2_EELb1ELb0ELb1ELb1ELb0ELb1ELb0ELb1EEv16Flash_fwd_params, i64 %10, i32 %12, i64 %13, i32 %15, ptr noundef nonnull %6, i64 noundef %8, ptr noundef %9)
  ret void
}

; Function Attrs: inlinehint mustprogress uwtable
define linkonce_odr dso_local void @_ZZZZZZZZZZZZZ13run_flash_fwdI23Flash_fwd_kernel_traitsILi192ELi64ELi64ELi4ELb0ELb0EN7cutlass6half_tE19Flash_kernel_traitsILi192ELi64ELi64ELi4ES2_EELb1ELb0EEvR16Flash_fwd_paramsP11CUstream_stENKUlvE_clEvENKUlvE_clEvENKUlvE_clEvENKUlvE_clEvENKUlvE_clEvENKUlvE_clEvENKUlvE_clEvENKUlvE_clEvENKUlvE_clEvENKUlvE0_clEvENKUlvE_clEvENKUlvE_clEv(ptr noundef nonnull align 8 dereferenceable(24) %0) local_unnamed_addr #5 comdat align 2 {
  %2 = alloca %struct.dim3, align 8
  %3 = alloca %struct.dim3, align 8
  %4 = alloca i64, align 8
  %5 = alloca ptr, align 8
  %6 = alloca ptr, align 16
  %7 = alloca %struct.Flash_fwd_params, align 8
  %8 = alloca %struct.Flash_fwd_params, align 8
  %9 = tail call noundef i32 @cudaFuncSetAttribute(ptr noundef nonnull @_Z31__device_stub__flash_fwd_kernelI23Flash_fwd_kernel_traitsILi192ELi64ELi64ELi4ELb0ELb0EN7cutlass6half_tE19Flash_kernel_traitsILi192ELi64ELi64ELi4ES2_EELb0ELb0ELb1ELb0ELb0ELb1ELb1ELb0EEv16Flash_fwd_params, i32 noundef 8, i32 noundef 73728)
  tail call void @_ZN3c104cuda29c10_cuda_check_implementationEiPKcS2_ib(i32 noundef %9, ptr noundef nonnull @.str, ptr noundef nonnull @__func__._ZZZZZZZZZZZZZ13run_flash_fwdI23Flash_fwd_kernel_traitsILi192ELi64ELi64ELi4ELb0ELb0EN7cutlass6half_tE19Flash_kernel_traitsILi192ELi64ELi64ELi4ES2_EELb1ELb0EEvR16Flash_fwd_paramsP11CUstream_stENKUlvE_clEvENKUlvE_clEvENKUlvE_clEvENKUlvE_clEvENKUlvE_clEvENKUlvE_clEvENKUlvE_clEvENKUlvE_clEvENKUlvE_clEvENKUlvE_clEvENKUlvE_clEvENKUlvE_clEv, i32 noundef 82, i1 noundef zeroext true)
  %10 = load ptr, ptr %0, align 8, !tbaa !62
  %11 = load i64, ptr %10, align 4, !tbaa.struct !53
  %12 = getelementptr inbounds i8, ptr %10, i64 8
  %13 = load i32, ptr %12, align 4, !tbaa.struct !55
  %14 = getelementptr inbounds %class.anon.21, ptr %0, i64 0, i32 1
  %15 = load ptr, ptr %14, align 8, !tbaa !64
  %16 = load ptr, ptr %15, align 8, !tbaa !6
  %17 = tail call i32 @__cudaPushCallConfiguration(i64 %11, i32 %13, i64 4294967424, i32 1, i64 noundef 73728, ptr noundef %16)
  %18 = icmp eq i32 %17, 0
  br i1 %18, label %19, label %32

19:                                               ; preds = %1
  %20 = getelementptr inbounds %class.anon.21, ptr %0, i64 0, i32 2
  %21 = load ptr, ptr %20, align 8, !tbaa !65
  call void @llvm.memcpy.p0.p0.i64(ptr noundef nonnull align 8 dereferenceable(464) %8, ptr noundef nonnull align 8 dereferenceable(464) %21, i64 464, i1 false)
  call void @llvm.lifetime.start.p0(i64 464, ptr nonnull %7)
  call void @llvm.lifetime.start.p0(i64 12, ptr nonnull %2)
  call void @llvm.lifetime.start.p0(i64 12, ptr nonnull %3)
  call void @llvm.lifetime.start.p0(i64 8, ptr nonnull %4)
  call void @llvm.lifetime.start.p0(i64 8, ptr nonnull %5)
  call void @llvm.lifetime.start.p0(i64 8, ptr nonnull %6)
  call void @llvm.memcpy.p0.p0.i64(ptr noundef nonnull align 8 dereferenceable(464) %7, ptr noundef nonnull align 8 dereferenceable(464) %8, i64 464, i1 false)
  store ptr %7, ptr %6, align 16
  %22 = call i32 @__cudaPopCallConfiguration(ptr nonnull %2, ptr nonnull %3, ptr nonnull %4, ptr nonnull %5)
  %23 = load i64, ptr %4, align 8
  %24 = load ptr, ptr %5, align 8
  %25 = load i64, ptr %2, align 8
  %26 = getelementptr inbounds i8, ptr %2, i64 8
  %27 = load i32, ptr %26, align 8
  %28 = load i64, ptr %3, align 8
  %29 = getelementptr inbounds i8, ptr %3, i64 8
  %30 = load i32, ptr %29, align 8
  %31 = call noundef i32 @cudaLaunchKernel(ptr noundef nonnull @_Z31__device_stub__flash_fwd_kernelI23Flash_fwd_kernel_traitsILi192ELi64ELi64ELi4ELb0ELb0EN7cutlass6half_tE19Flash_kernel_traitsILi192ELi64ELi64ELi4ES2_EELb0ELb0ELb1ELb0ELb0ELb1ELb1ELb0EEv16Flash_fwd_params, i64 %25, i32 %27, i64 %28, i32 %30, ptr noundef nonnull %6, i64 noundef %23, ptr noundef %24)
  call void @llvm.lifetime.end.p0(i64 464, ptr nonnull %7)
  call void @llvm.lifetime.end.p0(i64 12, ptr nonnull %2)
  call void @llvm.lifetime.end.p0(i64 12, ptr nonnull %3)
  call void @llvm.lifetime.end.p0(i64 8, ptr nonnull %4)
  call void @llvm.lifetime.end.p0(i64 8, ptr nonnull %5)
  call void @llvm.lifetime.end.p0(i64 8, ptr nonnull %6)
  br label %32

32:                                               ; preds = %1, %19
  %33 = call i32 @cudaGetLastError()
  call void @_ZN3c104cuda29c10_cuda_check_implementationEiPKcS2_ib(i32 noundef %33, ptr noundef nonnull @.str, ptr noundef nonnull @__func__._ZZZZZZZZZZZZZ13run_flash_fwdI23Flash_fwd_kernel_traitsILi192ELi64ELi64ELi4ELb0ELb0EN7cutlass6half_tE19Flash_kernel_traitsILi192ELi64ELi64ELi4ES2_EELb1ELb0EEvR16Flash_fwd_paramsP11CUstream_stENKUlvE_clEvENKUlvE_clEvENKUlvE_clEvENKUlvE_clEvENKUlvE_clEvENKUlvE_clEvENKUlvE_clEvENKUlvE_clEvENKUlvE_clEvENKUlvE_clEvENKUlvE_clEvENKUlvE_clEv, i32 noundef 89, i1 noundef zeroext true)
  ret void
}

; Function Attrs: inlinehint mustprogress uwtable
define linkonce_odr dso_local void @_ZZZZZZZZZZZZZ13run_flash_fwdI23Flash_fwd_kernel_traitsILi192ELi64ELi64ELi4ELb0ELb0EN7cutlass6half_tE19Flash_kernel_traitsILi192ELi64ELi64ELi4ES2_EELb1ELb0EEvR16Flash_fwd_paramsP11CUstream_stENKUlvE_clEvENKUlvE_clEvENKUlvE_clEvENKUlvE_clEvENKUlvE_clEvENKUlvE_clEvENKUlvE_clEvENKUlvE_clEvENKUlvE_clEvENKUlvE0_clEvENKUlvE_clEvENKUlvE0_clEv(ptr noundef nonnull align 8 dereferenceable(24) %0) local_unnamed_addr #5 comdat align 2 {
  %2 = alloca %struct.dim3, align 8
  %3 = alloca %struct.dim3, align 8
  %4 = alloca i64, align 8
  %5 = alloca ptr, align 8
  %6 = alloca ptr, align 16
  %7 = alloca %struct.Flash_fwd_params, align 8
  %8 = alloca %struct.Flash_fwd_params, align 8
  %9 = tail call noundef i32 @cudaFuncSetAttribute(ptr noundef nonnull @_Z31__device_stub__flash_fwd_kernelI23Flash_fwd_kernel_traitsILi192ELi64ELi64ELi4ELb0ELb0EN7cutlass6half_tE19Flash_kernel_traitsILi192ELi64ELi64ELi4ES2_EELb1ELb0ELb1ELb0ELb0ELb1ELb0ELb1EEv16Flash_fwd_params, i32 noundef 8, i32 noundef 73728)
  tail call void @_ZN3c104cuda29c10_cuda_check_implementationEiPKcS2_ib(i32 noundef %9, ptr noundef nonnull @.str, ptr noundef nonnull @__func__._ZZZZZZZZZZZZZ13run_flash_fwdI23Flash_fwd_kernel_traitsILi192ELi64ELi64ELi4ELb0ELb0EN7cutlass6half_tE19Flash_kernel_traitsILi192ELi64ELi64ELi4ES2_EELb1ELb0EEvR16Flash_fwd_paramsP11CUstream_stENKUlvE_clEvENKUlvE_clEvENKUlvE_clEvENKUlvE_clEvENKUlvE_clEvENKUlvE_clEvENKUlvE_clEvENKUlvE_clEvENKUlvE_clEvENKUlvE_clEvENKUlvE_clEvENKUlvE_clEv, i32 noundef 82, i1 noundef zeroext true)
  %10 = load ptr, ptr %0, align 8, !tbaa !66
  %11 = load i64, ptr %10, align 4, !tbaa.struct !53
  %12 = getelementptr inbounds i8, ptr %10, i64 8
  %13 = load i32, ptr %12, align 4, !tbaa.struct !55
  %14 = getelementptr inbounds %class.anon.22, ptr %0, i64 0, i32 1
  %15 = load ptr, ptr %14, align 8, !tbaa !68
  %16 = load ptr, ptr %15, align 8, !tbaa !6
  %17 = tail call i32 @__cudaPushCallConfiguration(i64 %11, i32 %13, i64 4294967424, i32 1, i64 noundef 73728, ptr noundef %16)
  %18 = icmp eq i32 %17, 0
  br i1 %18, label %19, label %32

19:                                               ; preds = %1
  %20 = getelementptr inbounds %class.anon.22, ptr %0, i64 0, i32 2
  %21 = load ptr, ptr %20, align 8, !tbaa !69
  call void @llvm.memcpy.p0.p0.i64(ptr noundef nonnull align 8 dereferenceable(464) %8, ptr noundef nonnull align 8 dereferenceable(464) %21, i64 464, i1 false)
  call void @llvm.lifetime.start.p0(i64 464, ptr nonnull %7)
  call void @llvm.lifetime.start.p0(i64 12, ptr nonnull %2)
  call void @llvm.lifetime.start.p0(i64 12, ptr nonnull %3)
  call void @llvm.lifetime.start.p0(i64 8, ptr nonnull %4)
  call void @llvm.lifetime.start.p0(i64 8, ptr nonnull %5)
  call void @llvm.lifetime.start.p0(i64 8, ptr nonnull %6)
  call void @llvm.memcpy.p0.p0.i64(ptr noundef nonnull align 8 dereferenceable(464) %7, ptr noundef nonnull align 8 dereferenceable(464) %8, i64 464, i1 false)
  store ptr %7, ptr %6, align 16
  %22 = call i32 @__cudaPopCallConfiguration(ptr nonnull %2, ptr nonnull %3, ptr nonnull %4, ptr nonnull %5)
  %23 = load i64, ptr %4, align 8
  %24 = load ptr, ptr %5, align 8
  %25 = load i64, ptr %2, align 8
  %26 = getelementptr inbounds i8, ptr %2, i64 8
  %27 = load i32, ptr %26, align 8
  %28 = load i64, ptr %3, align 8
  %29 = getelementptr inbounds i8, ptr %3, i64 8
  %30 = load i32, ptr %29, align 8
  %31 = call noundef i32 @cudaLaunchKernel(ptr noundef nonnull @_Z31__device_stub__flash_fwd_kernelI23Flash_fwd_kernel_traitsILi192ELi64ELi64ELi4ELb0ELb0EN7cutlass6half_tE19Flash_kernel_traitsILi192ELi64ELi64ELi4ES2_EELb1ELb0ELb1ELb0ELb0ELb1ELb0ELb1EEv16Flash_fwd_params, i64 %25, i32 %27, i64 %28, i32 %30, ptr noundef nonnull %6, i64 noundef %23, ptr noundef %24)
  call void @llvm.lifetime.end.p0(i64 464, ptr nonnull %7)
  call void @llvm.lifetime.end.p0(i64 12, ptr nonnull %2)
  call void @llvm.lifetime.end.p0(i64 12, ptr nonnull %3)
  call void @llvm.lifetime.end.p0(i64 8, ptr nonnull %4)
  call void @llvm.lifetime.end.p0(i64 8, ptr nonnull %5)
  call void @llvm.lifetime.end.p0(i64 8, ptr nonnull %6)
  br label %32

32:                                               ; preds = %1, %19
  %33 = call i32 @cudaGetLastError()
  call void @_ZN3c104cuda29c10_cuda_check_implementationEiPKcS2_ib(i32 noundef %33, ptr noundef nonnull @.str, ptr noundef nonnull @__func__._ZZZZZZZZZZZZZ13run_flash_fwdI23Flash_fwd_kernel_traitsILi192ELi64ELi64ELi4ELb0ELb0EN7cutlass6half_tE19Flash_kernel_traitsILi192ELi64ELi64ELi4ES2_EELb1ELb0EEvR16Flash_fwd_paramsP11CUstream_stENKUlvE_clEvENKUlvE_clEvENKUlvE_clEvENKUlvE_clEvENKUlvE_clEvENKUlvE_clEvENKUlvE_clEvENKUlvE_clEvENKUlvE_clEvENKUlvE_clEvENKUlvE_clEvENKUlvE_clEv, i32 noundef 89, i1 noundef zeroext true)
  ret void
}

; Function Attrs: mustprogress norecurse uwtable
define linkonce_odr dso_local void @_Z31__device_stub__flash_fwd_kernelI23Flash_fwd_kernel_traitsILi192ELi64ELi64ELi4ELb0ELb0EN7cutlass6half_tE19Flash_kernel_traitsILi192ELi64ELi64ELi4ES2_EELb0ELb0ELb1ELb0ELb0ELb1ELb1ELb0EEv16Flash_fwd_params(ptr noundef byval(%struct.Flash_fwd_params) align 8 %0) #6 comdat {
  %2 = alloca %struct.dim3, align 8
  %3 = alloca %struct.dim3, align 8
  %4 = alloca i64, align 8
  %5 = alloca ptr, align 8
  %6 = alloca ptr, align 16
  store ptr %0, ptr %6, align 16
  %7 = call i32 @__cudaPopCallConfiguration(ptr nonnull %2, ptr nonnull %3, ptr nonnull %4, ptr nonnull %5)
  %8 = load i64, ptr %4, align 8
  %9 = load ptr, ptr %5, align 8
  %10 = load i64, ptr %2, align 8
  %11 = getelementptr inbounds i8, ptr %2, i64 8
  %12 = load i32, ptr %11, align 8
  %13 = load i64, ptr %3, align 8
  %14 = getelementptr inbounds i8, ptr %3, i64 8
  %15 = load i32, ptr %14, align 8
  %16 = call noundef i32 @cudaLaunchKernel(ptr noundef nonnull @_Z31__device_stub__flash_fwd_kernelI23Flash_fwd_kernel_traitsILi192ELi64ELi64ELi4ELb0ELb0EN7cutlass6half_tE19Flash_kernel_traitsILi192ELi64ELi64ELi4ES2_EELb0ELb0ELb1ELb0ELb0ELb1ELb1ELb0EEv16Flash_fwd_params, i64 %10, i32 %12, i64 %13, i32 %15, ptr noundef nonnull %6, i64 noundef %8, ptr noundef %9)
  ret void
}

; Function Attrs: mustprogress norecurse uwtable
define linkonce_odr dso_local void @_Z31__device_stub__flash_fwd_kernelI23Flash_fwd_kernel_traitsILi192ELi64ELi64ELi4ELb0ELb0EN7cutlass6half_tE19Flash_kernel_traitsILi192ELi64ELi64ELi4ES2_EELb1ELb0ELb1ELb0ELb0ELb1ELb0ELb1EEv16Flash_fwd_params(ptr noundef byval(%struct.Flash_fwd_params) align 8 %0) #6 comdat {
  %2 = alloca %struct.dim3, align 8
  %3 = alloca %struct.dim3, align 8
  %4 = alloca i64, align 8
  %5 = alloca ptr, align 8
  %6 = alloca ptr, align 16
  store ptr %0, ptr %6, align 16
  %7 = call i32 @__cudaPopCallConfiguration(ptr nonnull %2, ptr nonnull %3, ptr nonnull %4, ptr nonnull %5)
  %8 = load i64, ptr %4, align 8
  %9 = load ptr, ptr %5, align 8
  %10 = load i64, ptr %2, align 8
  %11 = getelementptr inbounds i8, ptr %2, i64 8
  %12 = load i32, ptr %11, align 8
  %13 = load i64, ptr %3, align 8
  %14 = getelementptr inbounds i8, ptr %3, i64 8
  %15 = load i32, ptr %14, align 8
  %16 = call noundef i32 @cudaLaunchKernel(ptr noundef nonnull @_Z31__device_stub__flash_fwd_kernelI23Flash_fwd_kernel_traitsILi192ELi64ELi64ELi4ELb0ELb0EN7cutlass6half_tE19Flash_kernel_traitsILi192ELi64ELi64ELi4ES2_EELb1ELb0ELb1ELb0ELb0ELb1ELb0ELb1EEv16Flash_fwd_params, i64 %10, i32 %12, i64 %13, i32 %15, ptr noundef nonnull %6, i64 noundef %8, ptr noundef %9)
  ret void
}

; Function Attrs: inlinehint mustprogress uwtable
define linkonce_odr dso_local void @_ZZZZZZZZZZZZZ13run_flash_fwdI23Flash_fwd_kernel_traitsILi192ELi64ELi64ELi4ELb0ELb0EN7cutlass6half_tE19Flash_kernel_traitsILi192ELi64ELi64ELi4ES2_EELb1ELb0EEvR16Flash_fwd_paramsP11CUstream_stENKUlvE_clEvENKUlvE_clEvENKUlvE_clEvENKUlvE_clEvENKUlvE_clEvENKUlvE_clEvENKUlvE_clEvENKUlvE0_clEvENKUlvE_clEvENKUlvE_clEvENKUlvE_clEvENKUlvE_clEv(ptr noundef nonnull align 8 dereferenceable(24) %0) local_unnamed_addr #5 comdat align 2 {
  %2 = alloca %struct.dim3, align 8
  %3 = alloca %struct.dim3, align 8
  %4 = alloca i64, align 8
  %5 = alloca ptr, align 8
  %6 = alloca ptr, align 16
  %7 = alloca %struct.Flash_fwd_params, align 8
  %8 = alloca %struct.Flash_fwd_params, align 8
  %9 = tail call noundef i32 @cudaFuncSetAttribute(ptr noundef nonnull @_Z31__device_stub__flash_fwd_kernelI23Flash_fwd_kernel_traitsILi192ELi64ELi64ELi4ELb0ELb0EN7cutlass6half_tE19Flash_kernel_traitsILi192ELi64ELi64ELi4ES2_EELb0ELb0ELb1ELb1ELb0ELb1ELb1ELb0EEv16Flash_fwd_params, i32 noundef 8, i32 noundef 73728)
  tail call void @_ZN3c104cuda29c10_cuda_check_implementationEiPKcS2_ib(i32 noundef %9, ptr noundef nonnull @.str, ptr noundef nonnull @__func__._ZZZZZZZZZZZZZ13run_flash_fwdI23Flash_fwd_kernel_traitsILi192ELi64ELi64ELi4ELb0ELb0EN7cutlass6half_tE19Flash_kernel_traitsILi192ELi64ELi64ELi4ES2_EELb1ELb0EEvR16Flash_fwd_paramsP11CUstream_stENKUlvE_clEvENKUlvE_clEvENKUlvE_clEvENKUlvE_clEvENKUlvE_clEvENKUlvE_clEvENKUlvE_clEvENKUlvE_clEvENKUlvE_clEvENKUlvE_clEvENKUlvE_clEvENKUlvE_clEv, i32 noundef 82, i1 noundef zeroext true)
  %10 = load ptr, ptr %0, align 8, !tbaa !70
  %11 = load i64, ptr %10, align 4, !tbaa.struct !53
  %12 = getelementptr inbounds i8, ptr %10, i64 8
  %13 = load i32, ptr %12, align 4, !tbaa.struct !55
  %14 = getelementptr inbounds %class.anon.27, ptr %0, i64 0, i32 1
  %15 = load ptr, ptr %14, align 8, !tbaa !72
  %16 = load ptr, ptr %15, align 8, !tbaa !6
  %17 = tail call i32 @__cudaPushCallConfiguration(i64 %11, i32 %13, i64 4294967424, i32 1, i64 noundef 73728, ptr noundef %16)
  %18 = icmp eq i32 %17, 0
  br i1 %18, label %19, label %32

19:                                               ; preds = %1
  %20 = getelementptr inbounds %class.anon.27, ptr %0, i64 0, i32 2
  %21 = load ptr, ptr %20, align 8, !tbaa !73
  call void @llvm.memcpy.p0.p0.i64(ptr noundef nonnull align 8 dereferenceable(464) %8, ptr noundef nonnull align 8 dereferenceable(464) %21, i64 464, i1 false)
  call void @llvm.lifetime.start.p0(i64 464, ptr nonnull %7)
  call void @llvm.lifetime.start.p0(i64 12, ptr nonnull %2)
  call void @llvm.lifetime.start.p0(i64 12, ptr nonnull %3)
  call void @llvm.lifetime.start.p0(i64 8, ptr nonnull %4)
  call void @llvm.lifetime.start.p0(i64 8, ptr nonnull %5)
  call void @llvm.lifetime.start.p0(i64 8, ptr nonnull %6)
  call void @llvm.memcpy.p0.p0.i64(ptr noundef nonnull align 8 dereferenceable(464) %7, ptr noundef nonnull align 8 dereferenceable(464) %8, i64 464, i1 false)
  store ptr %7, ptr %6, align 16
  %22 = call i32 @__cudaPopCallConfiguration(ptr nonnull %2, ptr nonnull %3, ptr nonnull %4, ptr nonnull %5)
  %23 = load i64, ptr %4, align 8
  %24 = load ptr, ptr %5, align 8
  %25 = load i64, ptr %2, align 8
  %26 = getelementptr inbounds i8, ptr %2, i64 8
  %27 = load i32, ptr %26, align 8
  %28 = load i64, ptr %3, align 8
  %29 = getelementptr inbounds i8, ptr %3, i64 8
  %30 = load i32, ptr %29, align 8
  %31 = call noundef i32 @cudaLaunchKernel(ptr noundef nonnull @_Z31__device_stub__flash_fwd_kernelI23Flash_fwd_kernel_traitsILi192ELi64ELi64ELi4ELb0ELb0EN7cutlass6half_tE19Flash_kernel_traitsILi192ELi64ELi64ELi4ES2_EELb0ELb0ELb1ELb1ELb0ELb1ELb1ELb0EEv16Flash_fwd_params, i64 %25, i32 %27, i64 %28, i32 %30, ptr noundef nonnull %6, i64 noundef %23, ptr noundef %24)
  call void @llvm.lifetime.end.p0(i64 464, ptr nonnull %7)
  call void @llvm.lifetime.end.p0(i64 12, ptr nonnull %2)
  call void @llvm.lifetime.end.p0(i64 12, ptr nonnull %3)
  call void @llvm.lifetime.end.p0(i64 8, ptr nonnull %4)
  call void @llvm.lifetime.end.p0(i64 8, ptr nonnull %5)
  call void @llvm.lifetime.end.p0(i64 8, ptr nonnull %6)
  br label %32

32:                                               ; preds = %1, %19
  %33 = call i32 @cudaGetLastError()
  call void @_ZN3c104cuda29c10_cuda_check_implementationEiPKcS2_ib(i32 noundef %33, ptr noundef nonnull @.str, ptr noundef nonnull @__func__._ZZZZZZZZZZZZZ13run_flash_fwdI23Flash_fwd_kernel_traitsILi192ELi64ELi64ELi4ELb0ELb0EN7cutlass6half_tE19Flash_kernel_traitsILi192ELi64ELi64ELi4ES2_EELb1ELb0EEvR16Flash_fwd_paramsP11CUstream_stENKUlvE_clEvENKUlvE_clEvENKUlvE_clEvENKUlvE_clEvENKUlvE_clEvENKUlvE_clEvENKUlvE_clEvENKUlvE_clEvENKUlvE_clEvENKUlvE_clEvENKUlvE_clEvENKUlvE_clEv, i32 noundef 89, i1 noundef zeroext true)
  ret void
}

; Function Attrs: inlinehint mustprogress uwtable
define linkonce_odr dso_local void @_ZZZZZZZZZZZZZ13run_flash_fwdI23Flash_fwd_kernel_traitsILi192ELi64ELi64ELi4ELb0ELb0EN7cutlass6half_tE19Flash_kernel_traitsILi192ELi64ELi64ELi4ES2_EELb1ELb0EEvR16Flash_fwd_paramsP11CUstream_stENKUlvE_clEvENKUlvE_clEvENKUlvE_clEvENKUlvE_clEvENKUlvE_clEvENKUlvE_clEvENKUlvE_clEvENKUlvE0_clEvENKUlvE_clEvENKUlvE_clEvENKUlvE_clEvENKUlvE0_clEv(ptr noundef nonnull align 8 dereferenceable(24) %0) local_unnamed_addr #5 comdat align 2 {
  %2 = alloca %struct.dim3, align 8
  %3 = alloca %struct.dim3, align 8
  %4 = alloca i64, align 8
  %5 = alloca ptr, align 8
  %6 = alloca ptr, align 16
  %7 = alloca %struct.Flash_fwd_params, align 8
  %8 = alloca %struct.Flash_fwd_params, align 8
  %9 = tail call noundef i32 @cudaFuncSetAttribute(ptr noundef nonnull @_Z31__device_stub__flash_fwd_kernelI23Flash_fwd_kernel_traitsILi192ELi64ELi64ELi4ELb0ELb0EN7cutlass6half_tE19Flash_kernel_traitsILi192ELi64ELi64ELi4ES2_EELb1ELb0ELb1ELb1ELb0ELb1ELb0ELb0EEv16Flash_fwd_params, i32 noundef 8, i32 noundef 73728)
  tail call void @_ZN3c104cuda29c10_cuda_check_implementationEiPKcS2_ib(i32 noundef %9, ptr noundef nonnull @.str, ptr noundef nonnull @__func__._ZZZZZZZZZZZZZ13run_flash_fwdI23Flash_fwd_kernel_traitsILi192ELi64ELi64ELi4ELb0ELb0EN7cutlass6half_tE19Flash_kernel_traitsILi192ELi64ELi64ELi4ES2_EELb1ELb0EEvR16Flash_fwd_paramsP11CUstream_stENKUlvE_clEvENKUlvE_clEvENKUlvE_clEvENKUlvE_clEvENKUlvE_clEvENKUlvE_clEvENKUlvE_clEvENKUlvE_clEvENKUlvE_clEvENKUlvE_clEvENKUlvE_clEvENKUlvE_clEv, i32 noundef 82, i1 noundef zeroext true)
  %10 = load ptr, ptr %0, align 8, !tbaa !74
  %11 = load i64, ptr %10, align 4, !tbaa.struct !53
  %12 = getelementptr inbounds i8, ptr %10, i64 8
  %13 = load i32, ptr %12, align 4, !tbaa.struct !55
  %14 = getelementptr inbounds %class.anon.28, ptr %0, i64 0, i32 1
  %15 = load ptr, ptr %14, align 8, !tbaa !76
  %16 = load ptr, ptr %15, align 8, !tbaa !6
  %17 = tail call i32 @__cudaPushCallConfiguration(i64 %11, i32 %13, i64 4294967424, i32 1, i64 noundef 73728, ptr noundef %16)
  %18 = icmp eq i32 %17, 0
  br i1 %18, label %19, label %32

19:                                               ; preds = %1
  %20 = getelementptr inbounds %class.anon.28, ptr %0, i64 0, i32 2
  %21 = load ptr, ptr %20, align 8, !tbaa !77
  call void @llvm.memcpy.p0.p0.i64(ptr noundef nonnull align 8 dereferenceable(464) %8, ptr noundef nonnull align 8 dereferenceable(464) %21, i64 464, i1 false)
  call void @llvm.lifetime.start.p0(i64 464, ptr nonnull %7)
  call void @llvm.lifetime.start.p0(i64 12, ptr nonnull %2)
  call void @llvm.lifetime.start.p0(i64 12, ptr nonnull %3)
  call void @llvm.lifetime.start.p0(i64 8, ptr nonnull %4)
  call void @llvm.lifetime.start.p0(i64 8, ptr nonnull %5)
  call void @llvm.lifetime.start.p0(i64 8, ptr nonnull %6)
  call void @llvm.memcpy.p0.p0.i64(ptr noundef nonnull align 8 dereferenceable(464) %7, ptr noundef nonnull align 8 dereferenceable(464) %8, i64 464, i1 false)
  store ptr %7, ptr %6, align 16
  %22 = call i32 @__cudaPopCallConfiguration(ptr nonnull %2, ptr nonnull %3, ptr nonnull %4, ptr nonnull %5)
  %23 = load i64, ptr %4, align 8
  %24 = load ptr, ptr %5, align 8
  %25 = load i64, ptr %2, align 8
  %26 = getelementptr inbounds i8, ptr %2, i64 8
  %27 = load i32, ptr %26, align 8
  %28 = load i64, ptr %3, align 8
  %29 = getelementptr inbounds i8, ptr %3, i64 8
  %30 = load i32, ptr %29, align 8
  %31 = call noundef i32 @cudaLaunchKernel(ptr noundef nonnull @_Z31__device_stub__flash_fwd_kernelI23Flash_fwd_kernel_traitsILi192ELi64ELi64ELi4ELb0ELb0EN7cutlass6half_tE19Flash_kernel_traitsILi192ELi64ELi64ELi4ES2_EELb1ELb0ELb1ELb1ELb0ELb1ELb0ELb0EEv16Flash_fwd_params, i64 %25, i32 %27, i64 %28, i32 %30, ptr noundef nonnull %6, i64 noundef %23, ptr noundef %24)
  call void @llvm.lifetime.end.p0(i64 464, ptr nonnull %7)
  call void @llvm.lifetime.end.p0(i64 12, ptr nonnull %2)
  call void @llvm.lifetime.end.p0(i64 12, ptr nonnull %3)
  call void @llvm.lifetime.end.p0(i64 8, ptr nonnull %4)
  call void @llvm.lifetime.end.p0(i64 8, ptr nonnull %5)
  call void @llvm.lifetime.end.p0(i64 8, ptr nonnull %6)
  br label %32

32:                                               ; preds = %1, %19
  %33 = call i32 @cudaGetLastError()
  call void @_ZN3c104cuda29c10_cuda_check_implementationEiPKcS2_ib(i32 noundef %33, ptr noundef nonnull @.str, ptr noundef nonnull @__func__._ZZZZZZZZZZZZZ13run_flash_fwdI23Flash_fwd_kernel_traitsILi192ELi64ELi64ELi4ELb0ELb0EN7cutlass6half_tE19Flash_kernel_traitsILi192ELi64ELi64ELi4ES2_EELb1ELb0EEvR16Flash_fwd_paramsP11CUstream_stENKUlvE_clEvENKUlvE_clEvENKUlvE_clEvENKUlvE_clEvENKUlvE_clEvENKUlvE_clEvENKUlvE_clEvENKUlvE_clEvENKUlvE_clEvENKUlvE_clEvENKUlvE_clEvENKUlvE_clEv, i32 noundef 89, i1 noundef zeroext true)
  ret void
}

; Function Attrs: mustprogress norecurse uwtable
define linkonce_odr dso_local void @_Z31__device_stub__flash_fwd_kernelI23Flash_fwd_kernel_traitsILi192ELi64ELi64ELi4ELb0ELb0EN7cutlass6half_tE19Flash_kernel_traitsILi192ELi64ELi64ELi4ES2_EELb1ELb0ELb1ELb1ELb0ELb1ELb0ELb0EEv16Flash_fwd_params(ptr noundef byval(%struct.Flash_fwd_params) align 8 %0) #6 comdat {
  %2 = alloca %struct.dim3, align 8
  %3 = alloca %struct.dim3, align 8
  %4 = alloca i64, align 8
  %5 = alloca ptr, align 8
  %6 = alloca ptr, align 16
  store ptr %0, ptr %6, align 16
  %7 = call i32 @__cudaPopCallConfiguration(ptr nonnull %2, ptr nonnull %3, ptr nonnull %4, ptr nonnull %5)
  %8 = load i64, ptr %4, align 8
  %9 = load ptr, ptr %5, align 8
  %10 = load i64, ptr %2, align 8
  %11 = getelementptr inbounds i8, ptr %2, i64 8
  %12 = load i32, ptr %11, align 8
  %13 = load i64, ptr %3, align 8
  %14 = getelementptr inbounds i8, ptr %3, i64 8
  %15 = load i32, ptr %14, align 8
  %16 = call noundef i32 @cudaLaunchKernel(ptr noundef nonnull @_Z31__device_stub__flash_fwd_kernelI23Flash_fwd_kernel_traitsILi192ELi64ELi64ELi4ELb0ELb0EN7cutlass6half_tE19Flash_kernel_traitsILi192ELi64ELi64ELi4ES2_EELb1ELb0ELb1ELb1ELb0ELb1ELb0ELb0EEv16Flash_fwd_params, i64 %10, i32 %12, i64 %13, i32 %15, ptr noundef nonnull %6, i64 noundef %8, ptr noundef %9)
  ret void
}

; Function Attrs: inlinehint mustprogress uwtable
define linkonce_odr dso_local void @_ZZZZZZZZZZZZZ13run_flash_fwdI23Flash_fwd_kernel_traitsILi192ELi64ELi64ELi4ELb0ELb0EN7cutlass6half_tE19Flash_kernel_traitsILi192ELi64ELi64ELi4ES2_EELb1ELb0EEvR16Flash_fwd_paramsP11CUstream_stENKUlvE_clEvENKUlvE_clEvENKUlvE_clEvENKUlvE_clEvENKUlvE_clEvENKUlvE_clEvENKUlvE_clEvENKUlvE0_clEvENKUlvE_clEvENKUlvE0_clEvENKUlvE_clEvENKUlvE_clEv(ptr noundef nonnull align 8 dereferenceable(24) %0) local_unnamed_addr #5 comdat align 2 {
  %2 = alloca %struct.dim3, align 8
  %3 = alloca %struct.dim3, align 8
  %4 = alloca i64, align 8
  %5 = alloca ptr, align 8
  %6 = alloca ptr, align 16
  %7 = alloca %struct.Flash_fwd_params, align 8
  %8 = alloca %struct.Flash_fwd_params, align 8
  %9 = tail call noundef i32 @cudaFuncSetAttribute(ptr noundef nonnull @_Z31__device_stub__flash_fwd_kernelI23Flash_fwd_kernel_traitsILi192ELi64ELi64ELi4ELb0ELb0EN7cutlass6half_tE19Flash_kernel_traitsILi192ELi64ELi64ELi4ES2_EELb0ELb0ELb1ELb0ELb0ELb1ELb1ELb0EEv16Flash_fwd_params, i32 noundef 8, i32 noundef 73728)
  tail call void @_ZN3c104cuda29c10_cuda_check_implementationEiPKcS2_ib(i32 noundef %9, ptr noundef nonnull @.str, ptr noundef nonnull @__func__._ZZZZZZZZZZZZZ13run_flash_fwdI23Flash_fwd_kernel_traitsILi192ELi64ELi64ELi4ELb0ELb0EN7cutlass6half_tE19Flash_kernel_traitsILi192ELi64ELi64ELi4ES2_EELb1ELb0EEvR16Flash_fwd_paramsP11CUstream_stENKUlvE_clEvENKUlvE_clEvENKUlvE_clEvENKUlvE_clEvENKUlvE_clEvENKUlvE_clEvENKUlvE_clEvENKUlvE_clEvENKUlvE_clEvENKUlvE_clEvENKUlvE_clEvENKUlvE_clEv, i32 noundef 82, i1 noundef zeroext true)
  %10 = load ptr, ptr %0, align 8, !tbaa !78
  %11 = load i64, ptr %10, align 4, !tbaa.struct !53
  %12 = getelementptr inbounds i8, ptr %10, i64 8
  %13 = load i32, ptr %12, align 4, !tbaa.struct !55
  %14 = getelementptr inbounds %class.anon.30, ptr %0, i64 0, i32 1
  %15 = load ptr, ptr %14, align 8, !tbaa !80
  %16 = load ptr, ptr %15, align 8, !tbaa !6
  %17 = tail call i32 @__cudaPushCallConfiguration(i64 %11, i32 %13, i64 4294967424, i32 1, i64 noundef 73728, ptr noundef %16)
  %18 = icmp eq i32 %17, 0
  br i1 %18, label %19, label %32

19:                                               ; preds = %1
  %20 = getelementptr inbounds %class.anon.30, ptr %0, i64 0, i32 2
  %21 = load ptr, ptr %20, align 8, !tbaa !81
  call void @llvm.memcpy.p0.p0.i64(ptr noundef nonnull align 8 dereferenceable(464) %8, ptr noundef nonnull align 8 dereferenceable(464) %21, i64 464, i1 false)
  call void @llvm.lifetime.start.p0(i64 464, ptr nonnull %7)
  call void @llvm.lifetime.start.p0(i64 12, ptr nonnull %2)
  call void @llvm.lifetime.start.p0(i64 12, ptr nonnull %3)
  call void @llvm.lifetime.start.p0(i64 8, ptr nonnull %4)
  call void @llvm.lifetime.start.p0(i64 8, ptr nonnull %5)
  call void @llvm.lifetime.start.p0(i64 8, ptr nonnull %6)
  call void @llvm.memcpy.p0.p0.i64(ptr noundef nonnull align 8 dereferenceable(464) %7, ptr noundef nonnull align 8 dereferenceable(464) %8, i64 464, i1 false)
  store ptr %7, ptr %6, align 16
  %22 = call i32 @__cudaPopCallConfiguration(ptr nonnull %2, ptr nonnull %3, ptr nonnull %4, ptr nonnull %5)
  %23 = load i64, ptr %4, align 8
  %24 = load ptr, ptr %5, align 8
  %25 = load i64, ptr %2, align 8
  %26 = getelementptr inbounds i8, ptr %2, i64 8
  %27 = load i32, ptr %26, align 8
  %28 = load i64, ptr %3, align 8
  %29 = getelementptr inbounds i8, ptr %3, i64 8
  %30 = load i32, ptr %29, align 8
  %31 = call noundef i32 @cudaLaunchKernel(ptr noundef nonnull @_Z31__device_stub__flash_fwd_kernelI23Flash_fwd_kernel_traitsILi192ELi64ELi64ELi4ELb0ELb0EN7cutlass6half_tE19Flash_kernel_traitsILi192ELi64ELi64ELi4ES2_EELb0ELb0ELb1ELb0ELb0ELb1ELb1ELb0EEv16Flash_fwd_params, i64 %25, i32 %27, i64 %28, i32 %30, ptr noundef nonnull %6, i64 noundef %23, ptr noundef %24)
  call void @llvm.lifetime.end.p0(i64 464, ptr nonnull %7)
  call void @llvm.lifetime.end.p0(i64 12, ptr nonnull %2)
  call void @llvm.lifetime.end.p0(i64 12, ptr nonnull %3)
  call void @llvm.lifetime.end.p0(i64 8, ptr nonnull %4)
  call void @llvm.lifetime.end.p0(i64 8, ptr nonnull %5)
  call void @llvm.lifetime.end.p0(i64 8, ptr nonnull %6)
  br label %32

32:                                               ; preds = %1, %19
  %33 = call i32 @cudaGetLastError()
  call void @_ZN3c104cuda29c10_cuda_check_implementationEiPKcS2_ib(i32 noundef %33, ptr noundef nonnull @.str, ptr noundef nonnull @__func__._ZZZZZZZZZZZZZ13run_flash_fwdI23Flash_fwd_kernel_traitsILi192ELi64ELi64ELi4ELb0ELb0EN7cutlass6half_tE19Flash_kernel_traitsILi192ELi64ELi64ELi4ES2_EELb1ELb0EEvR16Flash_fwd_paramsP11CUstream_stENKUlvE_clEvENKUlvE_clEvENKUlvE_clEvENKUlvE_clEvENKUlvE_clEvENKUlvE_clEvENKUlvE_clEvENKUlvE_clEvENKUlvE_clEvENKUlvE_clEvENKUlvE_clEvENKUlvE_clEv, i32 noundef 89, i1 noundef zeroext true)
  ret void
}

; Function Attrs: inlinehint mustprogress uwtable
define linkonce_odr dso_local void @_ZZZZZZZZZZZZZ13run_flash_fwdI23Flash_fwd_kernel_traitsILi192ELi64ELi64ELi4ELb0ELb0EN7cutlass6half_tE19Flash_kernel_traitsILi192ELi64ELi64ELi4ES2_EELb1ELb0EEvR16Flash_fwd_paramsP11CUstream_stENKUlvE_clEvENKUlvE_clEvENKUlvE_clEvENKUlvE_clEvENKUlvE_clEvENKUlvE_clEvENKUlvE_clEvENKUlvE0_clEvENKUlvE_clEvENKUlvE0_clEvENKUlvE_clEvENKUlvE0_clEv(ptr noundef nonnull align 8 dereferenceable(24) %0) local_unnamed_addr #5 comdat align 2 {
  %2 = alloca %struct.dim3, align 8
  %3 = alloca %struct.dim3, align 8
  %4 = alloca i64, align 8
  %5 = alloca ptr, align 8
  %6 = alloca ptr, align 16
  %7 = alloca %struct.Flash_fwd_params, align 8
  %8 = alloca %struct.Flash_fwd_params, align 8
  %9 = tail call noundef i32 @cudaFuncSetAttribute(ptr noundef nonnull @_Z31__device_stub__flash_fwd_kernelI23Flash_fwd_kernel_traitsILi192ELi64ELi64ELi4ELb0ELb0EN7cutlass6half_tE19Flash_kernel_traitsILi192ELi64ELi64ELi4ES2_EELb1ELb0ELb1ELb0ELb0ELb1ELb0ELb0EEv16Flash_fwd_params, i32 noundef 8, i32 noundef 73728)
  tail call void @_ZN3c104cuda29c10_cuda_check_implementationEiPKcS2_ib(i32 noundef %9, ptr noundef nonnull @.str, ptr noundef nonnull @__func__._ZZZZZZZZZZZZZ13run_flash_fwdI23Flash_fwd_kernel_traitsILi192ELi64ELi64ELi4ELb0ELb0EN7cutlass6half_tE19Flash_kernel_traitsILi192ELi64ELi64ELi4ES2_EELb1ELb0EEvR16Flash_fwd_paramsP11CUstream_stENKUlvE_clEvENKUlvE_clEvENKUlvE_clEvENKUlvE_clEvENKUlvE_clEvENKUlvE_clEvENKUlvE_clEvENKUlvE_clEvENKUlvE_clEvENKUlvE_clEvENKUlvE_clEvENKUlvE_clEv, i32 noundef 82, i1 noundef zeroext true)
  %10 = load ptr, ptr %0, align 8, !tbaa !82
  %11 = load i64, ptr %10, align 4, !tbaa.struct !53
  %12 = getelementptr inbounds i8, ptr %10, i64 8
  %13 = load i32, ptr %12, align 4, !tbaa.struct !55
  %14 = getelementptr inbounds %class.anon.31, ptr %0, i64 0, i32 1
  %15 = load ptr, ptr %14, align 8, !tbaa !84
  %16 = load ptr, ptr %15, align 8, !tbaa !6
  %17 = tail call i32 @__cudaPushCallConfiguration(i64 %11, i32 %13, i64 4294967424, i32 1, i64 noundef 73728, ptr noundef %16)
  %18 = icmp eq i32 %17, 0
  br i1 %18, label %19, label %32

19:                                               ; preds = %1
  %20 = getelementptr inbounds %class.anon.31, ptr %0, i64 0, i32 2
  %21 = load ptr, ptr %20, align 8, !tbaa !85
  call void @llvm.memcpy.p0.p0.i64(ptr noundef nonnull align 8 dereferenceable(464) %8, ptr noundef nonnull align 8 dereferenceable(464) %21, i64 464, i1 false)
  call void @llvm.lifetime.start.p0(i64 464, ptr nonnull %7)
  call void @llvm.lifetime.start.p0(i64 12, ptr nonnull %2)
  call void @llvm.lifetime.start.p0(i64 12, ptr nonnull %3)
  call void @llvm.lifetime.start.p0(i64 8, ptr nonnull %4)
  call void @llvm.lifetime.start.p0(i64 8, ptr nonnull %5)
  call void @llvm.lifetime.start.p0(i64 8, ptr nonnull %6)
  call void @llvm.memcpy.p0.p0.i64(ptr noundef nonnull align 8 dereferenceable(464) %7, ptr noundef nonnull align 8 dereferenceable(464) %8, i64 464, i1 false)
  store ptr %7, ptr %6, align 16
  %22 = call i32 @__cudaPopCallConfiguration(ptr nonnull %2, ptr nonnull %3, ptr nonnull %4, ptr nonnull %5)
  %23 = load i64, ptr %4, align 8
  %24 = load ptr, ptr %5, align 8
  %25 = load i64, ptr %2, align 8
  %26 = getelementptr inbounds i8, ptr %2, i64 8
  %27 = load i32, ptr %26, align 8
  %28 = load i64, ptr %3, align 8
  %29 = getelementptr inbounds i8, ptr %3, i64 8
  %30 = load i32, ptr %29, align 8
  %31 = call noundef i32 @cudaLaunchKernel(ptr noundef nonnull @_Z31__device_stub__flash_fwd_kernelI23Flash_fwd_kernel_traitsILi192ELi64ELi64ELi4ELb0ELb0EN7cutlass6half_tE19Flash_kernel_traitsILi192ELi64ELi64ELi4ES2_EELb1ELb0ELb1ELb0ELb0ELb1ELb0ELb0EEv16Flash_fwd_params, i64 %25, i32 %27, i64 %28, i32 %30, ptr noundef nonnull %6, i64 noundef %23, ptr noundef %24)
  call void @llvm.lifetime.end.p0(i64 464, ptr nonnull %7)
  call void @llvm.lifetime.end.p0(i64 12, ptr nonnull %2)
  call void @llvm.lifetime.end.p0(i64 12, ptr nonnull %3)
  call void @llvm.lifetime.end.p0(i64 8, ptr nonnull %4)
  call void @llvm.lifetime.end.p0(i64 8, ptr nonnull %5)
  call void @llvm.lifetime.end.p0(i64 8, ptr nonnull %6)
  br label %32

32:                                               ; preds = %1, %19
  %33 = call i32 @cudaGetLastError()
  call void @_ZN3c104cuda29c10_cuda_check_implementationEiPKcS2_ib(i32 noundef %33, ptr noundef nonnull @.str, ptr noundef nonnull @__func__._ZZZZZZZZZZZZZ13run_flash_fwdI23Flash_fwd_kernel_traitsILi192ELi64ELi64ELi4ELb0ELb0EN7cutlass6half_tE19Flash_kernel_traitsILi192ELi64ELi64ELi4ES2_EELb1ELb0EEvR16Flash_fwd_paramsP11CUstream_stENKUlvE_clEvENKUlvE_clEvENKUlvE_clEvENKUlvE_clEvENKUlvE_clEvENKUlvE_clEvENKUlvE_clEvENKUlvE_clEvENKUlvE_clEvENKUlvE_clEvENKUlvE_clEvENKUlvE_clEv, i32 noundef 89, i1 noundef zeroext true)
  ret void
}

; Function Attrs: mustprogress norecurse uwtable
define linkonce_odr dso_local void @_Z31__device_stub__flash_fwd_kernelI23Flash_fwd_kernel_traitsILi192ELi64ELi64ELi4ELb0ELb0EN7cutlass6half_tE19Flash_kernel_traitsILi192ELi64ELi64ELi4ES2_EELb1ELb0ELb1ELb0ELb0ELb1ELb0ELb0EEv16Flash_fwd_params(ptr noundef byval(%struct.Flash_fwd_params) align 8 %0) #6 comdat {
  %2 = alloca %struct.dim3, align 8
  %3 = alloca %struct.dim3, align 8
  %4 = alloca i64, align 8
  %5 = alloca ptr, align 8
  %6 = alloca ptr, align 16
  store ptr %0, ptr %6, align 16
  %7 = call i32 @__cudaPopCallConfiguration(ptr nonnull %2, ptr nonnull %3, ptr nonnull %4, ptr nonnull %5)
  %8 = load i64, ptr %4, align 8
  %9 = load ptr, ptr %5, align 8
  %10 = load i64, ptr %2, align 8
  %11 = getelementptr inbounds i8, ptr %2, i64 8
  %12 = load i32, ptr %11, align 8
  %13 = load i64, ptr %3, align 8
  %14 = getelementptr inbounds i8, ptr %3, i64 8
  %15 = load i32, ptr %14, align 8
  %16 = call noundef i32 @cudaLaunchKernel(ptr noundef nonnull @_Z31__device_stub__flash_fwd_kernelI23Flash_fwd_kernel_traitsILi192ELi64ELi64ELi4ELb0ELb0EN7cutlass6half_tE19Flash_kernel_traitsILi192ELi64ELi64ELi4ES2_EELb1ELb0ELb1ELb0ELb0ELb1ELb0ELb0EEv16Flash_fwd_params, i64 %10, i32 %12, i64 %13, i32 %15, ptr noundef nonnull %6, i64 noundef %8, ptr noundef %9)
  ret void
}

; Function Attrs: inlinehint mustprogress uwtable
define linkonce_odr dso_local void @_ZZZZZZZZ13run_flash_fwdI23Flash_fwd_kernel_traitsILi192ELi64ELi64ELi4ELb0ELb0EN7cutlass6half_tE19Flash_kernel_traitsILi192ELi64ELi64ELi4ES2_EELb1ELb0EEvR16Flash_fwd_paramsP11CUstream_stENKUlvE_clEvENKUlvE_clEvENKUlvE_clEvENKUlvE_clEvENKUlvE_clEvENKUlvE0_clEvENKUlvE_clEv(ptr noundef nonnull align 8 dereferenceable(32) %0) local_unnamed_addr #5 comdat align 2 {
  %2 = alloca %class.anon.51, align 8
  %3 = alloca %class.anon.52, align 8
  %4 = alloca %class.anon.48, align 8
  %5 = alloca %class.anon.49, align 8
  %6 = alloca %class.anon.42, align 8
  %7 = alloca %class.anon.43, align 8
  %8 = alloca %class.anon.39, align 8
  %9 = alloca %class.anon.40, align 8
  %10 = load ptr, ptr %0, align 8, !tbaa !86
  %11 = load i8, ptr %10, align 1, !tbaa !30, !range !35, !noundef !36
  %12 = icmp eq i8 %11, 0
  %13 = getelementptr inbounds %class.anon.32, ptr %0, i64 0, i32 1
  %14 = load ptr, ptr %13, align 8, !tbaa !88
  %15 = getelementptr inbounds %class.anon.32, ptr %0, i64 0, i32 2
  %16 = load ptr, ptr %15, align 8, !tbaa !89
  %17 = getelementptr inbounds %class.anon.32, ptr %0, i64 0, i32 3
  %18 = load ptr, ptr %17, align 8, !tbaa !90
  %19 = getelementptr inbounds %struct.Flash_fwd_params, ptr %14, i64 0, i32 55
  %20 = load ptr, ptr %19, align 8, !tbaa !49
  %21 = icmp eq ptr %20, null
  %22 = getelementptr inbounds %struct.Flash_fwd_params, ptr %14, i64 0, i32 47
  %23 = load float, ptr %22, align 4, !tbaa !50
  %24 = fcmp ogt float %23, 0.000000e+00
  br i1 %12, label %40, label %25

25:                                               ; preds = %1
  br i1 %21, label %33, label %26

26:                                               ; preds = %25
  br i1 %24, label %27, label %30

27:                                               ; preds = %26
  call void @llvm.lifetime.start.p0(i64 24, ptr nonnull %8) #9
  store ptr %16, ptr %8, align 8, !tbaa !6
  %28 = getelementptr inbounds %class.anon.39, ptr %8, i64 0, i32 1
  store ptr %18, ptr %28, align 8, !tbaa !6
  %29 = getelementptr inbounds %class.anon.39, ptr %8, i64 0, i32 2
  store ptr %14, ptr %29, align 8, !tbaa !6
  call void @_ZZZZZZZZZZZZZ13run_flash_fwdI23Flash_fwd_kernel_traitsILi192ELi64ELi64ELi4ELb0ELb0EN7cutlass6half_tE19Flash_kernel_traitsILi192ELi64ELi64ELi4ES2_EELb1ELb0EEvR16Flash_fwd_paramsP11CUstream_stENKUlvE_clEvENKUlvE_clEvENKUlvE_clEvENKUlvE_clEvENKUlvE_clEvENKUlvE0_clEvENKUlvE_clEvENKUlvE_clEvENKUlvE_clEvENKUlvE_clEvENKUlvE_clEvENKUlvE_clEv(ptr noundef nonnull align 8 dereferenceable(24) %8)
  call void @llvm.lifetime.end.p0(i64 24, ptr nonnull %8) #9
  br label %55

30:                                               ; preds = %26
  call void @llvm.lifetime.start.p0(i64 24, ptr nonnull %9) #9
  store ptr %16, ptr %9, align 8, !tbaa !6
  %31 = getelementptr inbounds %class.anon.40, ptr %9, i64 0, i32 1
  store ptr %18, ptr %31, align 8, !tbaa !6
  %32 = getelementptr inbounds %class.anon.40, ptr %9, i64 0, i32 2
  store ptr %14, ptr %32, align 8, !tbaa !6
  call void @_ZZZZZZZZZZZZZ13run_flash_fwdI23Flash_fwd_kernel_traitsILi192ELi64ELi64ELi4ELb0ELb0EN7cutlass6half_tE19Flash_kernel_traitsILi192ELi64ELi64ELi4ES2_EELb1ELb0EEvR16Flash_fwd_paramsP11CUstream_stENKUlvE_clEvENKUlvE_clEvENKUlvE_clEvENKUlvE_clEvENKUlvE_clEvENKUlvE0_clEvENKUlvE_clEvENKUlvE_clEvENKUlvE_clEvENKUlvE_clEvENKUlvE_clEvENKUlvE0_clEv(ptr noundef nonnull align 8 dereferenceable(24) %9)
  call void @llvm.lifetime.end.p0(i64 24, ptr nonnull %9) #9
  br label %55

33:                                               ; preds = %25
  br i1 %24, label %34, label %37

34:                                               ; preds = %33
  call void @llvm.lifetime.start.p0(i64 24, ptr nonnull %6) #9
  store ptr %16, ptr %6, align 8, !tbaa !6
  %35 = getelementptr inbounds %class.anon.42, ptr %6, i64 0, i32 1
  store ptr %18, ptr %35, align 8, !tbaa !6
  %36 = getelementptr inbounds %class.anon.42, ptr %6, i64 0, i32 2
  store ptr %14, ptr %36, align 8, !tbaa !6
  call void @_ZZZZZZZZZZZZZ13run_flash_fwdI23Flash_fwd_kernel_traitsILi192ELi64ELi64ELi4ELb0ELb0EN7cutlass6half_tE19Flash_kernel_traitsILi192ELi64ELi64ELi4ES2_EELb1ELb0EEvR16Flash_fwd_paramsP11CUstream_stENKUlvE_clEvENKUlvE_clEvENKUlvE_clEvENKUlvE_clEvENKUlvE_clEvENKUlvE0_clEvENKUlvE_clEvENKUlvE_clEvENKUlvE_clEvENKUlvE0_clEvENKUlvE_clEvENKUlvE_clEv(ptr noundef nonnull align 8 dereferenceable(24) %6)
  call void @llvm.lifetime.end.p0(i64 24, ptr nonnull %6) #9
  br label %55

37:                                               ; preds = %33
  call void @llvm.lifetime.start.p0(i64 24, ptr nonnull %7) #9
  store ptr %16, ptr %7, align 8, !tbaa !6
  %38 = getelementptr inbounds %class.anon.43, ptr %7, i64 0, i32 1
  store ptr %18, ptr %38, align 8, !tbaa !6
  %39 = getelementptr inbounds %class.anon.43, ptr %7, i64 0, i32 2
  store ptr %14, ptr %39, align 8, !tbaa !6
  call void @_ZZZZZZZZZZZZZ13run_flash_fwdI23Flash_fwd_kernel_traitsILi192ELi64ELi64ELi4ELb0ELb0EN7cutlass6half_tE19Flash_kernel_traitsILi192ELi64ELi64ELi4ES2_EELb1ELb0EEvR16Flash_fwd_paramsP11CUstream_stENKUlvE_clEvENKUlvE_clEvENKUlvE_clEvENKUlvE_clEvENKUlvE_clEvENKUlvE0_clEvENKUlvE_clEvENKUlvE_clEvENKUlvE_clEvENKUlvE0_clEvENKUlvE_clEvENKUlvE0_clEv(ptr noundef nonnull align 8 dereferenceable(24) %7)
  call void @llvm.lifetime.end.p0(i64 24, ptr nonnull %7) #9
  br label %55

40:                                               ; preds = %1
  br i1 %21, label %48, label %41

41:                                               ; preds = %40
  br i1 %24, label %42, label %45

42:                                               ; preds = %41
  call void @llvm.lifetime.start.p0(i64 24, ptr nonnull %4) #9
  store ptr %16, ptr %4, align 8, !tbaa !6
  %43 = getelementptr inbounds %class.anon.48, ptr %4, i64 0, i32 1
  store ptr %18, ptr %43, align 8, !tbaa !6
  %44 = getelementptr inbounds %class.anon.48, ptr %4, i64 0, i32 2
  store ptr %14, ptr %44, align 8, !tbaa !6
  call void @_ZZZZZZZZZZZZZ13run_flash_fwdI23Flash_fwd_kernel_traitsILi192ELi64ELi64ELi4ELb0ELb0EN7cutlass6half_tE19Flash_kernel_traitsILi192ELi64ELi64ELi4ES2_EELb1ELb0EEvR16Flash_fwd_paramsP11CUstream_stENKUlvE_clEvENKUlvE_clEvENKUlvE_clEvENKUlvE_clEvENKUlvE_clEvENKUlvE0_clEvENKUlvE_clEvENKUlvE0_clEvENKUlvE_clEvENKUlvE_clEvENKUlvE_clEvENKUlvE_clEv(ptr noundef nonnull align 8 dereferenceable(24) %4)
  call void @llvm.lifetime.end.p0(i64 24, ptr nonnull %4) #9
  br label %55

45:                                               ; preds = %41
  call void @llvm.lifetime.start.p0(i64 24, ptr nonnull %5) #9
  store ptr %16, ptr %5, align 8, !tbaa !6
  %46 = getelementptr inbounds %class.anon.49, ptr %5, i64 0, i32 1
  store ptr %18, ptr %46, align 8, !tbaa !6
  %47 = getelementptr inbounds %class.anon.49, ptr %5, i64 0, i32 2
  store ptr %14, ptr %47, align 8, !tbaa !6
  call void @_ZZZZZZZZZZZZZ13run_flash_fwdI23Flash_fwd_kernel_traitsILi192ELi64ELi64ELi4ELb0ELb0EN7cutlass6half_tE19Flash_kernel_traitsILi192ELi64ELi64ELi4ES2_EELb1ELb0EEvR16Flash_fwd_paramsP11CUstream_stENKUlvE_clEvENKUlvE_clEvENKUlvE_clEvENKUlvE_clEvENKUlvE_clEvENKUlvE0_clEvENKUlvE_clEvENKUlvE0_clEvENKUlvE_clEvENKUlvE_clEvENKUlvE_clEvENKUlvE0_clEv(ptr noundef nonnull align 8 dereferenceable(24) %5)
  call void @llvm.lifetime.end.p0(i64 24, ptr nonnull %5) #9
  br label %55

48:                                               ; preds = %40
  br i1 %24, label %49, label %52

49:                                               ; preds = %48
  call void @llvm.lifetime.start.p0(i64 24, ptr nonnull %2) #9
  store ptr %16, ptr %2, align 8, !tbaa !6
  %50 = getelementptr inbounds %class.anon.51, ptr %2, i64 0, i32 1
  store ptr %18, ptr %50, align 8, !tbaa !6
  %51 = getelementptr inbounds %class.anon.51, ptr %2, i64 0, i32 2
  store ptr %14, ptr %51, align 8, !tbaa !6
  call void @_ZZZZZZZZZZZZZ13run_flash_fwdI23Flash_fwd_kernel_traitsILi192ELi64ELi64ELi4ELb0ELb0EN7cutlass6half_tE19Flash_kernel_traitsILi192ELi64ELi64ELi4ES2_EELb1ELb0EEvR16Flash_fwd_paramsP11CUstream_stENKUlvE_clEvENKUlvE_clEvENKUlvE_clEvENKUlvE_clEvENKUlvE_clEvENKUlvE0_clEvENKUlvE_clEvENKUlvE0_clEvENKUlvE_clEvENKUlvE0_clEvENKUlvE_clEvENKUlvE_clEv(ptr noundef nonnull align 8 dereferenceable(24) %2)
  call void @llvm.lifetime.end.p0(i64 24, ptr nonnull %2) #9
  br label %55

52:                                               ; preds = %48
  call void @llvm.lifetime.start.p0(i64 24, ptr nonnull %3) #9
  store ptr %16, ptr %3, align 8, !tbaa !6
  %53 = getelementptr inbounds %class.anon.52, ptr %3, i64 0, i32 1
  store ptr %18, ptr %53, align 8, !tbaa !6
  %54 = getelementptr inbounds %class.anon.52, ptr %3, i64 0, i32 2
  store ptr %14, ptr %54, align 8, !tbaa !6
  call void @_ZZZZZZZZZZZZZ13run_flash_fwdI23Flash_fwd_kernel_traitsILi192ELi64ELi64ELi4ELb0ELb0EN7cutlass6half_tE19Flash_kernel_traitsILi192ELi64ELi64ELi4ES2_EELb1ELb0EEvR16Flash_fwd_paramsP11CUstream_stENKUlvE_clEvENKUlvE_clEvENKUlvE_clEvENKUlvE_clEvENKUlvE_clEvENKUlvE0_clEvENKUlvE_clEvENKUlvE0_clEvENKUlvE_clEvENKUlvE0_clEvENKUlvE_clEvENKUlvE0_clEv(ptr noundef nonnull align 8 dereferenceable(24) %3)
  call void @llvm.lifetime.end.p0(i64 24, ptr nonnull %3) #9
  br label %55

55:                                               ; preds = %52, %49, %45, %42, %37, %34, %30, %27
  ret void
}

; Function Attrs: inlinehint mustprogress uwtable
define linkonce_odr dso_local void @_ZZZZZZZZZZZZZ13run_flash_fwdI23Flash_fwd_kernel_traitsILi192ELi64ELi64ELi4ELb0ELb0EN7cutlass6half_tE19Flash_kernel_traitsILi192ELi64ELi64ELi4ES2_EELb1ELb0EEvR16Flash_fwd_paramsP11CUstream_stENKUlvE_clEvENKUlvE_clEvENKUlvE_clEvENKUlvE_clEvENKUlvE_clEvENKUlvE0_clEvENKUlvE_clEvENKUlvE_clEvENKUlvE_clEvENKUlvE_clEvENKUlvE_clEvENKUlvE_clEv(ptr noundef nonnull align 8 dereferenceable(24) %0) local_unnamed_addr #5 comdat align 2 {
  %2 = alloca %struct.dim3, align 8
  %3 = alloca %struct.dim3, align 8
  %4 = alloca i64, align 8
  %5 = alloca ptr, align 8
  %6 = alloca ptr, align 16
  %7 = alloca %struct.Flash_fwd_params, align 8
  %8 = alloca %struct.Flash_fwd_params, align 8
  %9 = tail call noundef i32 @cudaFuncSetAttribute(ptr noundef nonnull @_Z31__device_stub__flash_fwd_kernelI23Flash_fwd_kernel_traitsILi192ELi64ELi64ELi4ELb0ELb0EN7cutlass6half_tE19Flash_kernel_traitsILi192ELi64ELi64ELi4ES2_EELb0ELb0ELb0ELb1ELb0ELb1ELb1ELb0EEv16Flash_fwd_params, i32 noundef 8, i32 noundef 73728)
  tail call void @_ZN3c104cuda29c10_cuda_check_implementationEiPKcS2_ib(i32 noundef %9, ptr noundef nonnull @.str, ptr noundef nonnull @__func__._ZZZZZZZZZZZZZ13run_flash_fwdI23Flash_fwd_kernel_traitsILi192ELi64ELi64ELi4ELb0ELb0EN7cutlass6half_tE19Flash_kernel_traitsILi192ELi64ELi64ELi4ES2_EELb1ELb0EEvR16Flash_fwd_paramsP11CUstream_stENKUlvE_clEvENKUlvE_clEvENKUlvE_clEvENKUlvE_clEvENKUlvE_clEvENKUlvE_clEvENKUlvE_clEvENKUlvE_clEvENKUlvE_clEvENKUlvE_clEvENKUlvE_clEvENKUlvE_clEv, i32 noundef 82, i1 noundef zeroext true)
  %10 = load ptr, ptr %0, align 8, !tbaa !91
  %11 = load i64, ptr %10, align 4, !tbaa.struct !53
  %12 = getelementptr inbounds i8, ptr %10, i64 8
  %13 = load i32, ptr %12, align 4, !tbaa.struct !55
  %14 = getelementptr inbounds %class.anon.39, ptr %0, i64 0, i32 1
  %15 = load ptr, ptr %14, align 8, !tbaa !93
  %16 = load ptr, ptr %15, align 8, !tbaa !6
  %17 = tail call i32 @__cudaPushCallConfiguration(i64 %11, i32 %13, i64 4294967424, i32 1, i64 noundef 73728, ptr noundef %16)
  %18 = icmp eq i32 %17, 0
  br i1 %18, label %19, label %32

19:                                               ; preds = %1
  %20 = getelementptr inbounds %class.anon.39, ptr %0, i64 0, i32 2
  %21 = load ptr, ptr %20, align 8, !tbaa !94
  call void @llvm.memcpy.p0.p0.i64(ptr noundef nonnull align 8 dereferenceable(464) %8, ptr noundef nonnull align 8 dereferenceable(464) %21, i64 464, i1 false)
  call void @llvm.lifetime.start.p0(i64 464, ptr nonnull %7)
  call void @llvm.lifetime.start.p0(i64 12, ptr nonnull %2)
  call void @llvm.lifetime.start.p0(i64 12, ptr nonnull %3)
  call void @llvm.lifetime.start.p0(i64 8, ptr nonnull %4)
  call void @llvm.lifetime.start.p0(i64 8, ptr nonnull %5)
  call void @llvm.lifetime.start.p0(i64 8, ptr nonnull %6)
  call void @llvm.memcpy.p0.p0.i64(ptr noundef nonnull align 8 dereferenceable(464) %7, ptr noundef nonnull align 8 dereferenceable(464) %8, i64 464, i1 false)
  store ptr %7, ptr %6, align 16
  %22 = call i32 @__cudaPopCallConfiguration(ptr nonnull %2, ptr nonnull %3, ptr nonnull %4, ptr nonnull %5)
  %23 = load i64, ptr %4, align 8
  %24 = load ptr, ptr %5, align 8
  %25 = load i64, ptr %2, align 8
  %26 = getelementptr inbounds i8, ptr %2, i64 8
  %27 = load i32, ptr %26, align 8
  %28 = load i64, ptr %3, align 8
  %29 = getelementptr inbounds i8, ptr %3, i64 8
  %30 = load i32, ptr %29, align 8
  %31 = call noundef i32 @cudaLaunchKernel(ptr noundef nonnull @_Z31__device_stub__flash_fwd_kernelI23Flash_fwd_kernel_traitsILi192ELi64ELi64ELi4ELb0ELb0EN7cutlass6half_tE19Flash_kernel_traitsILi192ELi64ELi64ELi4ES2_EELb0ELb0ELb0ELb1ELb0ELb1ELb1ELb0EEv16Flash_fwd_params, i64 %25, i32 %27, i64 %28, i32 %30, ptr noundef nonnull %6, i64 noundef %23, ptr noundef %24)
  call void @llvm.lifetime.end.p0(i64 464, ptr nonnull %7)
  call void @llvm.lifetime.end.p0(i64 12, ptr nonnull %2)
  call void @llvm.lifetime.end.p0(i64 12, ptr nonnull %3)
  call void @llvm.lifetime.end.p0(i64 8, ptr nonnull %4)
  call void @llvm.lifetime.end.p0(i64 8, ptr nonnull %5)
  call void @llvm.lifetime.end.p0(i64 8, ptr nonnull %6)
  br label %32

32:                                               ; preds = %1, %19
  %33 = call i32 @cudaGetLastError()
  call void @_ZN3c104cuda29c10_cuda_check_implementationEiPKcS2_ib(i32 noundef %33, ptr noundef nonnull @.str, ptr noundef nonnull @__func__._ZZZZZZZZZZZZZ13run_flash_fwdI23Flash_fwd_kernel_traitsILi192ELi64ELi64ELi4ELb0ELb0EN7cutlass6half_tE19Flash_kernel_traitsILi192ELi64ELi64ELi4ES2_EELb1ELb0EEvR16Flash_fwd_paramsP11CUstream_stENKUlvE_clEvENKUlvE_clEvENKUlvE_clEvENKUlvE_clEvENKUlvE_clEvENKUlvE_clEvENKUlvE_clEvENKUlvE_clEvENKUlvE_clEvENKUlvE_clEvENKUlvE_clEvENKUlvE_clEv, i32 noundef 89, i1 noundef zeroext true)
  ret void
}

; Function Attrs: inlinehint mustprogress uwtable
define linkonce_odr dso_local void @_ZZZZZZZZZZZZZ13run_flash_fwdI23Flash_fwd_kernel_traitsILi192ELi64ELi64ELi4ELb0ELb0EN7cutlass6half_tE19Flash_kernel_traitsILi192ELi64ELi64ELi4ES2_EELb1ELb0EEvR16Flash_fwd_paramsP11CUstream_stENKUlvE_clEvENKUlvE_clEvENKUlvE_clEvENKUlvE_clEvENKUlvE_clEvENKUlvE0_clEvENKUlvE_clEvENKUlvE_clEvENKUlvE_clEvENKUlvE_clEvENKUlvE_clEvENKUlvE0_clEv(ptr noundef nonnull align 8 dereferenceable(24) %0) local_unnamed_addr #5 comdat align 2 {
  %2 = alloca %struct.dim3, align 8
  %3 = alloca %struct.dim3, align 8
  %4 = alloca i64, align 8
  %5 = alloca ptr, align 8
  %6 = alloca ptr, align 16
  %7 = alloca %struct.Flash_fwd_params, align 8
  %8 = alloca %struct.Flash_fwd_params, align 8
  %9 = tail call noundef i32 @cudaFuncSetAttribute(ptr noundef nonnull @_Z31__device_stub__flash_fwd_kernelI23Flash_fwd_kernel_traitsILi192ELi64ELi64ELi4ELb0ELb0EN7cutlass6half_tE19Flash_kernel_traitsILi192ELi64ELi64ELi4ES2_EELb1ELb0ELb0ELb1ELb0ELb1ELb0ELb1EEv16Flash_fwd_params, i32 noundef 8, i32 noundef 73728)
  tail call void @_ZN3c104cuda29c10_cuda_check_implementationEiPKcS2_ib(i32 noundef %9, ptr noundef nonnull @.str, ptr noundef nonnull @__func__._ZZZZZZZZZZZZZ13run_flash_fwdI23Flash_fwd_kernel_traitsILi192ELi64ELi64ELi4ELb0ELb0EN7cutlass6half_tE19Flash_kernel_traitsILi192ELi64ELi64ELi4ES2_EELb1ELb0EEvR16Flash_fwd_paramsP11CUstream_stENKUlvE_clEvENKUlvE_clEvENKUlvE_clEvENKUlvE_clEvENKUlvE_clEvENKUlvE_clEvENKUlvE_clEvENKUlvE_clEvENKUlvE_clEvENKUlvE_clEvENKUlvE_clEvENKUlvE_clEv, i32 noundef 82, i1 noundef zeroext true)
  %10 = load ptr, ptr %0, align 8, !tbaa !95
  %11 = load i64, ptr %10, align 4, !tbaa.struct !53
  %12 = getelementptr inbounds i8, ptr %10, i64 8
  %13 = load i32, ptr %12, align 4, !tbaa.struct !55
  %14 = getelementptr inbounds %class.anon.40, ptr %0, i64 0, i32 1
  %15 = load ptr, ptr %14, align 8, !tbaa !97
  %16 = load ptr, ptr %15, align 8, !tbaa !6
  %17 = tail call i32 @__cudaPushCallConfiguration(i64 %11, i32 %13, i64 4294967424, i32 1, i64 noundef 73728, ptr noundef %16)
  %18 = icmp eq i32 %17, 0
  br i1 %18, label %19, label %32

19:                                               ; preds = %1
  %20 = getelementptr inbounds %class.anon.40, ptr %0, i64 0, i32 2
  %21 = load ptr, ptr %20, align 8, !tbaa !98
  call void @llvm.memcpy.p0.p0.i64(ptr noundef nonnull align 8 dereferenceable(464) %8, ptr noundef nonnull align 8 dereferenceable(464) %21, i64 464, i1 false)
  call void @llvm.lifetime.start.p0(i64 464, ptr nonnull %7)
  call void @llvm.lifetime.start.p0(i64 12, ptr nonnull %2)
  call void @llvm.lifetime.start.p0(i64 12, ptr nonnull %3)
  call void @llvm.lifetime.start.p0(i64 8, ptr nonnull %4)
  call void @llvm.lifetime.start.p0(i64 8, ptr nonnull %5)
  call void @llvm.lifetime.start.p0(i64 8, ptr nonnull %6)
  call void @llvm.memcpy.p0.p0.i64(ptr noundef nonnull align 8 dereferenceable(464) %7, ptr noundef nonnull align 8 dereferenceable(464) %8, i64 464, i1 false)
  store ptr %7, ptr %6, align 16
  %22 = call i32 @__cudaPopCallConfiguration(ptr nonnull %2, ptr nonnull %3, ptr nonnull %4, ptr nonnull %5)
  %23 = load i64, ptr %4, align 8
  %24 = load ptr, ptr %5, align 8
  %25 = load i64, ptr %2, align 8
  %26 = getelementptr inbounds i8, ptr %2, i64 8
  %27 = load i32, ptr %26, align 8
  %28 = load i64, ptr %3, align 8
  %29 = getelementptr inbounds i8, ptr %3, i64 8
  %30 = load i32, ptr %29, align 8
  %31 = call noundef i32 @cudaLaunchKernel(ptr noundef nonnull @_Z31__device_stub__flash_fwd_kernelI23Flash_fwd_kernel_traitsILi192ELi64ELi64ELi4ELb0ELb0EN7cutlass6half_tE19Flash_kernel_traitsILi192ELi64ELi64ELi4ES2_EELb1ELb0ELb0ELb1ELb0ELb1ELb0ELb1EEv16Flash_fwd_params, i64 %25, i32 %27, i64 %28, i32 %30, ptr noundef nonnull %6, i64 noundef %23, ptr noundef %24)
  call void @llvm.lifetime.end.p0(i64 464, ptr nonnull %7)
  call void @llvm.lifetime.end.p0(i64 12, ptr nonnull %2)
  call void @llvm.lifetime.end.p0(i64 12, ptr nonnull %3)
  call void @llvm.lifetime.end.p0(i64 8, ptr nonnull %4)
  call void @llvm.lifetime.end.p0(i64 8, ptr nonnull %5)
  call void @llvm.lifetime.end.p0(i64 8, ptr nonnull %6)
  br label %32

32:                                               ; preds = %1, %19
  %33 = call i32 @cudaGetLastError()
  call void @_ZN3c104cuda29c10_cuda_check_implementationEiPKcS2_ib(i32 noundef %33, ptr noundef nonnull @.str, ptr noundef nonnull @__func__._ZZZZZZZZZZZZZ13run_flash_fwdI23Flash_fwd_kernel_traitsILi192ELi64ELi64ELi4ELb0ELb0EN7cutlass6half_tE19Flash_kernel_traitsILi192ELi64ELi64ELi4ES2_EELb1ELb0EEvR16Flash_fwd_paramsP11CUstream_stENKUlvE_clEvENKUlvE_clEvENKUlvE_clEvENKUlvE_clEvENKUlvE_clEvENKUlvE_clEvENKUlvE_clEvENKUlvE_clEvENKUlvE_clEvENKUlvE_clEvENKUlvE_clEvENKUlvE_clEv, i32 noundef 89, i1 noundef zeroext true)
  ret void
}

; Function Attrs: mustprogress norecurse uwtable
define linkonce_odr dso_local void @_Z31__device_stub__flash_fwd_kernelI23Flash_fwd_kernel_traitsILi192ELi64ELi64ELi4ELb0ELb0EN7cutlass6half_tE19Flash_kernel_traitsILi192ELi64ELi64ELi4ES2_EELb0ELb0ELb0ELb1ELb0ELb1ELb1ELb0EEv16Flash_fwd_params(ptr noundef byval(%struct.Flash_fwd_params) align 8 %0) #6 comdat {
  %2 = alloca %struct.dim3, align 8
  %3 = alloca %struct.dim3, align 8
  %4 = alloca i64, align 8
  %5 = alloca ptr, align 8
  %6 = alloca ptr, align 16
  store ptr %0, ptr %6, align 16
  %7 = call i32 @__cudaPopCallConfiguration(ptr nonnull %2, ptr nonnull %3, ptr nonnull %4, ptr nonnull %5)
  %8 = load i64, ptr %4, align 8
  %9 = load ptr, ptr %5, align 8
  %10 = load i64, ptr %2, align 8
  %11 = getelementptr inbounds i8, ptr %2, i64 8
  %12 = load i32, ptr %11, align 8
  %13 = load i64, ptr %3, align 8
  %14 = getelementptr inbounds i8, ptr %3, i64 8
  %15 = load i32, ptr %14, align 8
  %16 = call noundef i32 @cudaLaunchKernel(ptr noundef nonnull @_Z31__device_stub__flash_fwd_kernelI23Flash_fwd_kernel_traitsILi192ELi64ELi64ELi4ELb0ELb0EN7cutlass6half_tE19Flash_kernel_traitsILi192ELi64ELi64ELi4ES2_EELb0ELb0ELb0ELb1ELb0ELb1ELb1ELb0EEv16Flash_fwd_params, i64 %10, i32 %12, i64 %13, i32 %15, ptr noundef nonnull %6, i64 noundef %8, ptr noundef %9)
  ret void
}

; Function Attrs: mustprogress norecurse uwtable
define linkonce_odr dso_local void @_Z31__device_stub__flash_fwd_kernelI23Flash_fwd_kernel_traitsILi192ELi64ELi64ELi4ELb0ELb0EN7cutlass6half_tE19Flash_kernel_traitsILi192ELi64ELi64ELi4ES2_EELb1ELb0ELb0ELb1ELb0ELb1ELb0ELb1EEv16Flash_fwd_params(ptr noundef byval(%struct.Flash_fwd_params) align 8 %0) #6 comdat {
  %2 = alloca %struct.dim3, align 8
  %3 = alloca %struct.dim3, align 8
  %4 = alloca i64, align 8
  %5 = alloca ptr, align 8
  %6 = alloca ptr, align 16
  store ptr %0, ptr %6, align 16
  %7 = call i32 @__cudaPopCallConfiguration(ptr nonnull %2, ptr nonnull %3, ptr nonnull %4, ptr nonnull %5)
  %8 = load i64, ptr %4, align 8
  %9 = load ptr, ptr %5, align 8
  %10 = load i64, ptr %2, align 8
  %11 = getelementptr inbounds i8, ptr %2, i64 8
  %12 = load i32, ptr %11, align 8
  %13 = load i64, ptr %3, align 8
  %14 = getelementptr inbounds i8, ptr %3, i64 8
  %15 = load i32, ptr %14, align 8
  %16 = call noundef i32 @cudaLaunchKernel(ptr noundef nonnull @_Z31__device_stub__flash_fwd_kernelI23Flash_fwd_kernel_traitsILi192ELi64ELi64ELi4ELb0ELb0EN7cutlass6half_tE19Flash_kernel_traitsILi192ELi64ELi64ELi4ES2_EELb1ELb0ELb0ELb1ELb0ELb1ELb0ELb1EEv16Flash_fwd_params, i64 %10, i32 %12, i64 %13, i32 %15, ptr noundef nonnull %6, i64 noundef %8, ptr noundef %9)
  ret void
}

; Function Attrs: inlinehint mustprogress uwtable
define linkonce_odr dso_local void @_ZZZZZZZZZZZZZ13run_flash_fwdI23Flash_fwd_kernel_traitsILi192ELi64ELi64ELi4ELb0ELb0EN7cutlass6half_tE19Flash_kernel_traitsILi192ELi64ELi64ELi4ES2_EELb1ELb0EEvR16Flash_fwd_paramsP11CUstream_stENKUlvE_clEvENKUlvE_clEvENKUlvE_clEvENKUlvE_clEvENKUlvE_clEvENKUlvE0_clEvENKUlvE_clEvENKUlvE_clEvENKUlvE_clEvENKUlvE0_clEvENKUlvE_clEvENKUlvE_clEv(ptr noundef nonnull align 8 dereferenceable(24) %0) local_unnamed_addr #5 comdat align 2 {
  %2 = alloca %struct.dim3, align 8
  %3 = alloca %struct.dim3, align 8
  %4 = alloca i64, align 8
  %5 = alloca ptr, align 8
  %6 = alloca ptr, align 16
  %7 = alloca %struct.Flash_fwd_params, align 8
  %8 = alloca %struct.Flash_fwd_params, align 8
  %9 = tail call noundef i32 @cudaFuncSetAttribute(ptr noundef nonnull @_Z31__device_stub__flash_fwd_kernelI23Flash_fwd_kernel_traitsILi192ELi64ELi64ELi4ELb0ELb0EN7cutlass6half_tE19Flash_kernel_traitsILi192ELi64ELi64ELi4ES2_EELb0ELb0ELb0ELb0ELb0ELb1ELb1ELb0EEv16Flash_fwd_params, i32 noundef 8, i32 noundef 73728)
  tail call void @_ZN3c104cuda29c10_cuda_check_implementationEiPKcS2_ib(i32 noundef %9, ptr noundef nonnull @.str, ptr noundef nonnull @__func__._ZZZZZZZZZZZZZ13run_flash_fwdI23Flash_fwd_kernel_traitsILi192ELi64ELi64ELi4ELb0ELb0EN7cutlass6half_tE19Flash_kernel_traitsILi192ELi64ELi64ELi4ES2_EELb1ELb0EEvR16Flash_fwd_paramsP11CUstream_stENKUlvE_clEvENKUlvE_clEvENKUlvE_clEvENKUlvE_clEvENKUlvE_clEvENKUlvE_clEvENKUlvE_clEvENKUlvE_clEvENKUlvE_clEvENKUlvE_clEvENKUlvE_clEvENKUlvE_clEv, i32 noundef 82, i1 noundef zeroext true)
  %10 = load ptr, ptr %0, align 8, !tbaa !99
  %11 = load i64, ptr %10, align 4, !tbaa.struct !53
  %12 = getelementptr inbounds i8, ptr %10, i64 8
  %13 = load i32, ptr %12, align 4, !tbaa.struct !55
  %14 = getelementptr inbounds %class.anon.42, ptr %0, i64 0, i32 1
  %15 = load ptr, ptr %14, align 8, !tbaa !101
  %16 = load ptr, ptr %15, align 8, !tbaa !6
  %17 = tail call i32 @__cudaPushCallConfiguration(i64 %11, i32 %13, i64 4294967424, i32 1, i64 noundef 73728, ptr noundef %16)
  %18 = icmp eq i32 %17, 0
  br i1 %18, label %19, label %32

19:                                               ; preds = %1
  %20 = getelementptr inbounds %class.anon.42, ptr %0, i64 0, i32 2
  %21 = load ptr, ptr %20, align 8, !tbaa !102
  call void @llvm.memcpy.p0.p0.i64(ptr noundef nonnull align 8 dereferenceable(464) %8, ptr noundef nonnull align 8 dereferenceable(464) %21, i64 464, i1 false)
  call void @llvm.lifetime.start.p0(i64 464, ptr nonnull %7)
  call void @llvm.lifetime.start.p0(i64 12, ptr nonnull %2)
  call void @llvm.lifetime.start.p0(i64 12, ptr nonnull %3)
  call void @llvm.lifetime.start.p0(i64 8, ptr nonnull %4)
  call void @llvm.lifetime.start.p0(i64 8, ptr nonnull %5)
  call void @llvm.lifetime.start.p0(i64 8, ptr nonnull %6)
  call void @llvm.memcpy.p0.p0.i64(ptr noundef nonnull align 8 dereferenceable(464) %7, ptr noundef nonnull align 8 dereferenceable(464) %8, i64 464, i1 false)
  store ptr %7, ptr %6, align 16
  %22 = call i32 @__cudaPopCallConfiguration(ptr nonnull %2, ptr nonnull %3, ptr nonnull %4, ptr nonnull %5)
  %23 = load i64, ptr %4, align 8
  %24 = load ptr, ptr %5, align 8
  %25 = load i64, ptr %2, align 8
  %26 = getelementptr inbounds i8, ptr %2, i64 8
  %27 = load i32, ptr %26, align 8
  %28 = load i64, ptr %3, align 8
  %29 = getelementptr inbounds i8, ptr %3, i64 8
  %30 = load i32, ptr %29, align 8
  %31 = call noundef i32 @cudaLaunchKernel(ptr noundef nonnull @_Z31__device_stub__flash_fwd_kernelI23Flash_fwd_kernel_traitsILi192ELi64ELi64ELi4ELb0ELb0EN7cutlass6half_tE19Flash_kernel_traitsILi192ELi64ELi64ELi4ES2_EELb0ELb0ELb0ELb0ELb0ELb1ELb1ELb0EEv16Flash_fwd_params, i64 %25, i32 %27, i64 %28, i32 %30, ptr noundef nonnull %6, i64 noundef %23, ptr noundef %24)
  call void @llvm.lifetime.end.p0(i64 464, ptr nonnull %7)
  call void @llvm.lifetime.end.p0(i64 12, ptr nonnull %2)
  call void @llvm.lifetime.end.p0(i64 12, ptr nonnull %3)
  call void @llvm.lifetime.end.p0(i64 8, ptr nonnull %4)
  call void @llvm.lifetime.end.p0(i64 8, ptr nonnull %5)
  call void @llvm.lifetime.end.p0(i64 8, ptr nonnull %6)
  br label %32

32:                                               ; preds = %1, %19
  %33 = call i32 @cudaGetLastError()
  call void @_ZN3c104cuda29c10_cuda_check_implementationEiPKcS2_ib(i32 noundef %33, ptr noundef nonnull @.str, ptr noundef nonnull @__func__._ZZZZZZZZZZZZZ13run_flash_fwdI23Flash_fwd_kernel_traitsILi192ELi64ELi64ELi4ELb0ELb0EN7cutlass6half_tE19Flash_kernel_traitsILi192ELi64ELi64ELi4ES2_EELb1ELb0EEvR16Flash_fwd_paramsP11CUstream_stENKUlvE_clEvENKUlvE_clEvENKUlvE_clEvENKUlvE_clEvENKUlvE_clEvENKUlvE_clEvENKUlvE_clEvENKUlvE_clEvENKUlvE_clEvENKUlvE_clEvENKUlvE_clEvENKUlvE_clEv, i32 noundef 89, i1 noundef zeroext true)
  ret void
}

; Function Attrs: inlinehint mustprogress uwtable
define linkonce_odr dso_local void @_ZZZZZZZZZZZZZ13run_flash_fwdI23Flash_fwd_kernel_traitsILi192ELi64ELi64ELi4ELb0ELb0EN7cutlass6half_tE19Flash_kernel_traitsILi192ELi64ELi64ELi4ES2_EELb1ELb0EEvR16Flash_fwd_paramsP11CUstream_stENKUlvE_clEvENKUlvE_clEvENKUlvE_clEvENKUlvE_clEvENKUlvE_clEvENKUlvE0_clEvENKUlvE_clEvENKUlvE_clEvENKUlvE_clEvENKUlvE0_clEvENKUlvE_clEvENKUlvE0_clEv(ptr noundef nonnull align 8 dereferenceable(24) %0) local_unnamed_addr #5 comdat align 2 {
  %2 = alloca %struct.dim3, align 8
  %3 = alloca %struct.dim3, align 8
  %4 = alloca i64, align 8
  %5 = alloca ptr, align 8
  %6 = alloca ptr, align 16
  %7 = alloca %struct.Flash_fwd_params, align 8
  %8 = alloca %struct.Flash_fwd_params, align 8
  %9 = tail call noundef i32 @cudaFuncSetAttribute(ptr noundef nonnull @_Z31__device_stub__flash_fwd_kernelI23Flash_fwd_kernel_traitsILi192ELi64ELi64ELi4ELb0ELb0EN7cutlass6half_tE19Flash_kernel_traitsILi192ELi64ELi64ELi4ES2_EELb1ELb0ELb0ELb0ELb0ELb1ELb0ELb1EEv16Flash_fwd_params, i32 noundef 8, i32 noundef 73728)
  tail call void @_ZN3c104cuda29c10_cuda_check_implementationEiPKcS2_ib(i32 noundef %9, ptr noundef nonnull @.str, ptr noundef nonnull @__func__._ZZZZZZZZZZZZZ13run_flash_fwdI23Flash_fwd_kernel_traitsILi192ELi64ELi64ELi4ELb0ELb0EN7cutlass6half_tE19Flash_kernel_traitsILi192ELi64ELi64ELi4ES2_EELb1ELb0EEvR16Flash_fwd_paramsP11CUstream_stENKUlvE_clEvENKUlvE_clEvENKUlvE_clEvENKUlvE_clEvENKUlvE_clEvENKUlvE_clEvENKUlvE_clEvENKUlvE_clEvENKUlvE_clEvENKUlvE_clEvENKUlvE_clEvENKUlvE_clEv, i32 noundef 82, i1 noundef zeroext true)
  %10 = load ptr, ptr %0, align 8, !tbaa !103
  %11 = load i64, ptr %10, align 4, !tbaa.struct !53
  %12 = getelementptr inbounds i8, ptr %10, i64 8
  %13 = load i32, ptr %12, align 4, !tbaa.struct !55
  %14 = getelementptr inbounds %class.anon.43, ptr %0, i64 0, i32 1
  %15 = load ptr, ptr %14, align 8, !tbaa !105
  %16 = load ptr, ptr %15, align 8, !tbaa !6
  %17 = tail call i32 @__cudaPushCallConfiguration(i64 %11, i32 %13, i64 4294967424, i32 1, i64 noundef 73728, ptr noundef %16)
  %18 = icmp eq i32 %17, 0
  br i1 %18, label %19, label %32

19:                                               ; preds = %1
  %20 = getelementptr inbounds %class.anon.43, ptr %0, i64 0, i32 2
  %21 = load ptr, ptr %20, align 8, !tbaa !106
  call void @llvm.memcpy.p0.p0.i64(ptr noundef nonnull align 8 dereferenceable(464) %8, ptr noundef nonnull align 8 dereferenceable(464) %21, i64 464, i1 false)
  call void @llvm.lifetime.start.p0(i64 464, ptr nonnull %7)
  call void @llvm.lifetime.start.p0(i64 12, ptr nonnull %2)
  call void @llvm.lifetime.start.p0(i64 12, ptr nonnull %3)
  call void @llvm.lifetime.start.p0(i64 8, ptr nonnull %4)
  call void @llvm.lifetime.start.p0(i64 8, ptr nonnull %5)
  call void @llvm.lifetime.start.p0(i64 8, ptr nonnull %6)
  call void @llvm.memcpy.p0.p0.i64(ptr noundef nonnull align 8 dereferenceable(464) %7, ptr noundef nonnull align 8 dereferenceable(464) %8, i64 464, i1 false)
  store ptr %7, ptr %6, align 16
  %22 = call i32 @__cudaPopCallConfiguration(ptr nonnull %2, ptr nonnull %3, ptr nonnull %4, ptr nonnull %5)
  %23 = load i64, ptr %4, align 8
  %24 = load ptr, ptr %5, align 8
  %25 = load i64, ptr %2, align 8
  %26 = getelementptr inbounds i8, ptr %2, i64 8
  %27 = load i32, ptr %26, align 8
  %28 = load i64, ptr %3, align 8
  %29 = getelementptr inbounds i8, ptr %3, i64 8
  %30 = load i32, ptr %29, align 8
  %31 = call noundef i32 @cudaLaunchKernel(ptr noundef nonnull @_Z31__device_stub__flash_fwd_kernelI23Flash_fwd_kernel_traitsILi192ELi64ELi64ELi4ELb0ELb0EN7cutlass6half_tE19Flash_kernel_traitsILi192ELi64ELi64ELi4ES2_EELb1ELb0ELb0ELb0ELb0ELb1ELb0ELb1EEv16Flash_fwd_params, i64 %25, i32 %27, i64 %28, i32 %30, ptr noundef nonnull %6, i64 noundef %23, ptr noundef %24)
  call void @llvm.lifetime.end.p0(i64 464, ptr nonnull %7)
  call void @llvm.lifetime.end.p0(i64 12, ptr nonnull %2)
  call void @llvm.lifetime.end.p0(i64 12, ptr nonnull %3)
  call void @llvm.lifetime.end.p0(i64 8, ptr nonnull %4)
  call void @llvm.lifetime.end.p0(i64 8, ptr nonnull %5)
  call void @llvm.lifetime.end.p0(i64 8, ptr nonnull %6)
  br label %32

32:                                               ; preds = %1, %19
  %33 = call i32 @cudaGetLastError()
  call void @_ZN3c104cuda29c10_cuda_check_implementationEiPKcS2_ib(i32 noundef %33, ptr noundef nonnull @.str, ptr noundef nonnull @__func__._ZZZZZZZZZZZZZ13run_flash_fwdI23Flash_fwd_kernel_traitsILi192ELi64ELi64ELi4ELb0ELb0EN7cutlass6half_tE19Flash_kernel_traitsILi192ELi64ELi64ELi4ES2_EELb1ELb0EEvR16Flash_fwd_paramsP11CUstream_stENKUlvE_clEvENKUlvE_clEvENKUlvE_clEvENKUlvE_clEvENKUlvE_clEvENKUlvE_clEvENKUlvE_clEvENKUlvE_clEvENKUlvE_clEvENKUlvE_clEvENKUlvE_clEvENKUlvE_clEv, i32 noundef 89, i1 noundef zeroext true)
  ret void
}

; Function Attrs: mustprogress norecurse uwtable
define linkonce_odr dso_local void @_Z31__device_stub__flash_fwd_kernelI23Flash_fwd_kernel_traitsILi192ELi64ELi64ELi4ELb0ELb0EN7cutlass6half_tE19Flash_kernel_traitsILi192ELi64ELi64ELi4ES2_EELb0ELb0ELb0ELb0ELb0ELb1ELb1ELb0EEv16Flash_fwd_params(ptr noundef byval(%struct.Flash_fwd_params) align 8 %0) #6 comdat {
  %2 = alloca %struct.dim3, align 8
  %3 = alloca %struct.dim3, align 8
  %4 = alloca i64, align 8
  %5 = alloca ptr, align 8
  %6 = alloca ptr, align 16
  store ptr %0, ptr %6, align 16
  %7 = call i32 @__cudaPopCallConfiguration(ptr nonnull %2, ptr nonnull %3, ptr nonnull %4, ptr nonnull %5)
  %8 = load i64, ptr %4, align 8
  %9 = load ptr, ptr %5, align 8
  %10 = load i64, ptr %2, align 8
  %11 = getelementptr inbounds i8, ptr %2, i64 8
  %12 = load i32, ptr %11, align 8
  %13 = load i64, ptr %3, align 8
  %14 = getelementptr inbounds i8, ptr %3, i64 8
  %15 = load i32, ptr %14, align 8
  %16 = call noundef i32 @cudaLaunchKernel(ptr noundef nonnull @_Z31__device_stub__flash_fwd_kernelI23Flash_fwd_kernel_traitsILi192ELi64ELi64ELi4ELb0ELb0EN7cutlass6half_tE19Flash_kernel_traitsILi192ELi64ELi64ELi4ES2_EELb0ELb0ELb0ELb0ELb0ELb1ELb1ELb0EEv16Flash_fwd_params, i64 %10, i32 %12, i64 %13, i32 %15, ptr noundef nonnull %6, i64 noundef %8, ptr noundef %9)
  ret void
}

; Function Attrs: mustprogress norecurse uwtable
define linkonce_odr dso_local void @_Z31__device_stub__flash_fwd_kernelI23Flash_fwd_kernel_traitsILi192ELi64ELi64ELi4ELb0ELb0EN7cutlass6half_tE19Flash_kernel_traitsILi192ELi64ELi64ELi4ES2_EELb1ELb0ELb0ELb0ELb0ELb1ELb0ELb1EEv16Flash_fwd_params(ptr noundef byval(%struct.Flash_fwd_params) align 8 %0) #6 comdat {
  %2 = alloca %struct.dim3, align 8
  %3 = alloca %struct.dim3, align 8
  %4 = alloca i64, align 8
  %5 = alloca ptr, align 8
  %6 = alloca ptr, align 16
  store ptr %0, ptr %6, align 16
  %7 = call i32 @__cudaPopCallConfiguration(ptr nonnull %2, ptr nonnull %3, ptr nonnull %4, ptr nonnull %5)
  %8 = load i64, ptr %4, align 8
  %9 = load ptr, ptr %5, align 8
  %10 = load i64, ptr %2, align 8
  %11 = getelementptr inbounds i8, ptr %2, i64 8
  %12 = load i32, ptr %11, align 8
  %13 = load i64, ptr %3, align 8
  %14 = getelementptr inbounds i8, ptr %3, i64 8
  %15 = load i32, ptr %14, align 8
  %16 = call noundef i32 @cudaLaunchKernel(ptr noundef nonnull @_Z31__device_stub__flash_fwd_kernelI23Flash_fwd_kernel_traitsILi192ELi64ELi64ELi4ELb0ELb0EN7cutlass6half_tE19Flash_kernel_traitsILi192ELi64ELi64ELi4ES2_EELb1ELb0ELb0ELb0ELb0ELb1ELb0ELb1EEv16Flash_fwd_params, i64 %10, i32 %12, i64 %13, i32 %15, ptr noundef nonnull %6, i64 noundef %8, ptr noundef %9)
  ret void
}

; Function Attrs: inlinehint mustprogress uwtable
define linkonce_odr dso_local void @_ZZZZZZZZZZZZZ13run_flash_fwdI23Flash_fwd_kernel_traitsILi192ELi64ELi64ELi4ELb0ELb0EN7cutlass6half_tE19Flash_kernel_traitsILi192ELi64ELi64ELi4ES2_EELb1ELb0EEvR16Flash_fwd_paramsP11CUstream_stENKUlvE_clEvENKUlvE_clEvENKUlvE_clEvENKUlvE_clEvENKUlvE_clEvENKUlvE0_clEvENKUlvE_clEvENKUlvE0_clEvENKUlvE_clEvENKUlvE_clEvENKUlvE_clEvENKUlvE_clEv(ptr noundef nonnull align 8 dereferenceable(24) %0) local_unnamed_addr #5 comdat align 2 {
  %2 = alloca %struct.dim3, align 8
  %3 = alloca %struct.dim3, align 8
  %4 = alloca i64, align 8
  %5 = alloca ptr, align 8
  %6 = alloca ptr, align 16
  %7 = alloca %struct.Flash_fwd_params, align 8
  %8 = alloca %struct.Flash_fwd_params, align 8
  %9 = tail call noundef i32 @cudaFuncSetAttribute(ptr noundef nonnull @_Z31__device_stub__flash_fwd_kernelI23Flash_fwd_kernel_traitsILi192ELi64ELi64ELi4ELb0ELb0EN7cutlass6half_tE19Flash_kernel_traitsILi192ELi64ELi64ELi4ES2_EELb0ELb0ELb0ELb1ELb0ELb1ELb1ELb0EEv16Flash_fwd_params, i32 noundef 8, i32 noundef 73728)
  tail call void @_ZN3c104cuda29c10_cuda_check_implementationEiPKcS2_ib(i32 noundef %9, ptr noundef nonnull @.str, ptr noundef nonnull @__func__._ZZZZZZZZZZZZZ13run_flash_fwdI23Flash_fwd_kernel_traitsILi192ELi64ELi64ELi4ELb0ELb0EN7cutlass6half_tE19Flash_kernel_traitsILi192ELi64ELi64ELi4ES2_EELb1ELb0EEvR16Flash_fwd_paramsP11CUstream_stENKUlvE_clEvENKUlvE_clEvENKUlvE_clEvENKUlvE_clEvENKUlvE_clEvENKUlvE_clEvENKUlvE_clEvENKUlvE_clEvENKUlvE_clEvENKUlvE_clEvENKUlvE_clEvENKUlvE_clEv, i32 noundef 82, i1 noundef zeroext true)
  %10 = load ptr, ptr %0, align 8, !tbaa !107
  %11 = load i64, ptr %10, align 4, !tbaa.struct !53
  %12 = getelementptr inbounds i8, ptr %10, i64 8
  %13 = load i32, ptr %12, align 4, !tbaa.struct !55
  %14 = getelementptr inbounds %class.anon.48, ptr %0, i64 0, i32 1
  %15 = load ptr, ptr %14, align 8, !tbaa !109
  %16 = load ptr, ptr %15, align 8, !tbaa !6
  %17 = tail call i32 @__cudaPushCallConfiguration(i64 %11, i32 %13, i64 4294967424, i32 1, i64 noundef 73728, ptr noundef %16)
  %18 = icmp eq i32 %17, 0
  br i1 %18, label %19, label %32

19:                                               ; preds = %1
  %20 = getelementptr inbounds %class.anon.48, ptr %0, i64 0, i32 2
  %21 = load ptr, ptr %20, align 8, !tbaa !110
  call void @llvm.memcpy.p0.p0.i64(ptr noundef nonnull align 8 dereferenceable(464) %8, ptr noundef nonnull align 8 dereferenceable(464) %21, i64 464, i1 false)
  call void @llvm.lifetime.start.p0(i64 464, ptr nonnull %7)
  call void @llvm.lifetime.start.p0(i64 12, ptr nonnull %2)
  call void @llvm.lifetime.start.p0(i64 12, ptr nonnull %3)
  call void @llvm.lifetime.start.p0(i64 8, ptr nonnull %4)
  call void @llvm.lifetime.start.p0(i64 8, ptr nonnull %5)
  call void @llvm.lifetime.start.p0(i64 8, ptr nonnull %6)
  call void @llvm.memcpy.p0.p0.i64(ptr noundef nonnull align 8 dereferenceable(464) %7, ptr noundef nonnull align 8 dereferenceable(464) %8, i64 464, i1 false)
  store ptr %7, ptr %6, align 16
  %22 = call i32 @__cudaPopCallConfiguration(ptr nonnull %2, ptr nonnull %3, ptr nonnull %4, ptr nonnull %5)
  %23 = load i64, ptr %4, align 8
  %24 = load ptr, ptr %5, align 8
  %25 = load i64, ptr %2, align 8
  %26 = getelementptr inbounds i8, ptr %2, i64 8
  %27 = load i32, ptr %26, align 8
  %28 = load i64, ptr %3, align 8
  %29 = getelementptr inbounds i8, ptr %3, i64 8
  %30 = load i32, ptr %29, align 8
  %31 = call noundef i32 @cudaLaunchKernel(ptr noundef nonnull @_Z31__device_stub__flash_fwd_kernelI23Flash_fwd_kernel_traitsILi192ELi64ELi64ELi4ELb0ELb0EN7cutlass6half_tE19Flash_kernel_traitsILi192ELi64ELi64ELi4ES2_EELb0ELb0ELb0ELb1ELb0ELb1ELb1ELb0EEv16Flash_fwd_params, i64 %25, i32 %27, i64 %28, i32 %30, ptr noundef nonnull %6, i64 noundef %23, ptr noundef %24)
  call void @llvm.lifetime.end.p0(i64 464, ptr nonnull %7)
  call void @llvm.lifetime.end.p0(i64 12, ptr nonnull %2)
  call void @llvm.lifetime.end.p0(i64 12, ptr nonnull %3)
  call void @llvm.lifetime.end.p0(i64 8, ptr nonnull %4)
  call void @llvm.lifetime.end.p0(i64 8, ptr nonnull %5)
  call void @llvm.lifetime.end.p0(i64 8, ptr nonnull %6)
  br label %32

32:                                               ; preds = %1, %19
  %33 = call i32 @cudaGetLastError()
  call void @_ZN3c104cuda29c10_cuda_check_implementationEiPKcS2_ib(i32 noundef %33, ptr noundef nonnull @.str, ptr noundef nonnull @__func__._ZZZZZZZZZZZZZ13run_flash_fwdI23Flash_fwd_kernel_traitsILi192ELi64ELi64ELi4ELb0ELb0EN7cutlass6half_tE19Flash_kernel_traitsILi192ELi64ELi64ELi4ES2_EELb1ELb0EEvR16Flash_fwd_paramsP11CUstream_stENKUlvE_clEvENKUlvE_clEvENKUlvE_clEvENKUlvE_clEvENKUlvE_clEvENKUlvE_clEvENKUlvE_clEvENKUlvE_clEvENKUlvE_clEvENKUlvE_clEvENKUlvE_clEvENKUlvE_clEv, i32 noundef 89, i1 noundef zeroext true)
  ret void
}

; Function Attrs: inlinehint mustprogress uwtable
define linkonce_odr dso_local void @_ZZZZZZZZZZZZZ13run_flash_fwdI23Flash_fwd_kernel_traitsILi192ELi64ELi64ELi4ELb0ELb0EN7cutlass6half_tE19Flash_kernel_traitsILi192ELi64ELi64ELi4ES2_EELb1ELb0EEvR16Flash_fwd_paramsP11CUstream_stENKUlvE_clEvENKUlvE_clEvENKUlvE_clEvENKUlvE_clEvENKUlvE_clEvENKUlvE0_clEvENKUlvE_clEvENKUlvE0_clEvENKUlvE_clEvENKUlvE_clEvENKUlvE_clEvENKUlvE0_clEv(ptr noundef nonnull align 8 dereferenceable(24) %0) local_unnamed_addr #5 comdat align 2 {
  %2 = alloca %struct.dim3, align 8
  %3 = alloca %struct.dim3, align 8
  %4 = alloca i64, align 8
  %5 = alloca ptr, align 8
  %6 = alloca ptr, align 16
  %7 = alloca %struct.Flash_fwd_params, align 8
  %8 = alloca %struct.Flash_fwd_params, align 8
  %9 = tail call noundef i32 @cudaFuncSetAttribute(ptr noundef nonnull @_Z31__device_stub__flash_fwd_kernelI23Flash_fwd_kernel_traitsILi192ELi64ELi64ELi4ELb0ELb0EN7cutlass6half_tE19Flash_kernel_traitsILi192ELi64ELi64ELi4ES2_EELb1ELb0ELb0ELb1ELb0ELb1ELb0ELb0EEv16Flash_fwd_params, i32 noundef 8, i32 noundef 73728)
  tail call void @_ZN3c104cuda29c10_cuda_check_implementationEiPKcS2_ib(i32 noundef %9, ptr noundef nonnull @.str, ptr noundef nonnull @__func__._ZZZZZZZZZZZZZ13run_flash_fwdI23Flash_fwd_kernel_traitsILi192ELi64ELi64ELi4ELb0ELb0EN7cutlass6half_tE19Flash_kernel_traitsILi192ELi64ELi64ELi4ES2_EELb1ELb0EEvR16Flash_fwd_paramsP11CUstream_stENKUlvE_clEvENKUlvE_clEvENKUlvE_clEvENKUlvE_clEvENKUlvE_clEvENKUlvE_clEvENKUlvE_clEvENKUlvE_clEvENKUlvE_clEvENKUlvE_clEvENKUlvE_clEvENKUlvE_clEv, i32 noundef 82, i1 noundef zeroext true)
  %10 = load ptr, ptr %0, align 8, !tbaa !111
  %11 = load i64, ptr %10, align 4, !tbaa.struct !53
  %12 = getelementptr inbounds i8, ptr %10, i64 8
  %13 = load i32, ptr %12, align 4, !tbaa.struct !55
  %14 = getelementptr inbounds %class.anon.49, ptr %0, i64 0, i32 1
  %15 = load ptr, ptr %14, align 8, !tbaa !113
  %16 = load ptr, ptr %15, align 8, !tbaa !6
  %17 = tail call i32 @__cudaPushCallConfiguration(i64 %11, i32 %13, i64 4294967424, i32 1, i64 noundef 73728, ptr noundef %16)
  %18 = icmp eq i32 %17, 0
  br i1 %18, label %19, label %32

19:                                               ; preds = %1
  %20 = getelementptr inbounds %class.anon.49, ptr %0, i64 0, i32 2
  %21 = load ptr, ptr %20, align 8, !tbaa !114
  call void @llvm.memcpy.p0.p0.i64(ptr noundef nonnull align 8 dereferenceable(464) %8, ptr noundef nonnull align 8 dereferenceable(464) %21, i64 464, i1 false)
  call void @llvm.lifetime.start.p0(i64 464, ptr nonnull %7)
  call void @llvm.lifetime.start.p0(i64 12, ptr nonnull %2)
  call void @llvm.lifetime.start.p0(i64 12, ptr nonnull %3)
  call void @llvm.lifetime.start.p0(i64 8, ptr nonnull %4)
  call void @llvm.lifetime.start.p0(i64 8, ptr nonnull %5)
  call void @llvm.lifetime.start.p0(i64 8, ptr nonnull %6)
  call void @llvm.memcpy.p0.p0.i64(ptr noundef nonnull align 8 dereferenceable(464) %7, ptr noundef nonnull align 8 dereferenceable(464) %8, i64 464, i1 false)
  store ptr %7, ptr %6, align 16
  %22 = call i32 @__cudaPopCallConfiguration(ptr nonnull %2, ptr nonnull %3, ptr nonnull %4, ptr nonnull %5)
  %23 = load i64, ptr %4, align 8
  %24 = load ptr, ptr %5, align 8
  %25 = load i64, ptr %2, align 8
  %26 = getelementptr inbounds i8, ptr %2, i64 8
  %27 = load i32, ptr %26, align 8
  %28 = load i64, ptr %3, align 8
  %29 = getelementptr inbounds i8, ptr %3, i64 8
  %30 = load i32, ptr %29, align 8
  %31 = call noundef i32 @cudaLaunchKernel(ptr noundef nonnull @_Z31__device_stub__flash_fwd_kernelI23Flash_fwd_kernel_traitsILi192ELi64ELi64ELi4ELb0ELb0EN7cutlass6half_tE19Flash_kernel_traitsILi192ELi64ELi64ELi4ES2_EELb1ELb0ELb0ELb1ELb0ELb1ELb0ELb0EEv16Flash_fwd_params, i64 %25, i32 %27, i64 %28, i32 %30, ptr noundef nonnull %6, i64 noundef %23, ptr noundef %24)
  call void @llvm.lifetime.end.p0(i64 464, ptr nonnull %7)
  call void @llvm.lifetime.end.p0(i64 12, ptr nonnull %2)
  call void @llvm.lifetime.end.p0(i64 12, ptr nonnull %3)
  call void @llvm.lifetime.end.p0(i64 8, ptr nonnull %4)
  call void @llvm.lifetime.end.p0(i64 8, ptr nonnull %5)
  call void @llvm.lifetime.end.p0(i64 8, ptr nonnull %6)
  br label %32

32:                                               ; preds = %1, %19
  %33 = call i32 @cudaGetLastError()
  call void @_ZN3c104cuda29c10_cuda_check_implementationEiPKcS2_ib(i32 noundef %33, ptr noundef nonnull @.str, ptr noundef nonnull @__func__._ZZZZZZZZZZZZZ13run_flash_fwdI23Flash_fwd_kernel_traitsILi192ELi64ELi64ELi4ELb0ELb0EN7cutlass6half_tE19Flash_kernel_traitsILi192ELi64ELi64ELi4ES2_EELb1ELb0EEvR16Flash_fwd_paramsP11CUstream_stENKUlvE_clEvENKUlvE_clEvENKUlvE_clEvENKUlvE_clEvENKUlvE_clEvENKUlvE_clEvENKUlvE_clEvENKUlvE_clEvENKUlvE_clEvENKUlvE_clEvENKUlvE_clEvENKUlvE_clEv, i32 noundef 89, i1 noundef zeroext true)
  ret void
}

; Function Attrs: mustprogress norecurse uwtable
define linkonce_odr dso_local void @_Z31__device_stub__flash_fwd_kernelI23Flash_fwd_kernel_traitsILi192ELi64ELi64ELi4ELb0ELb0EN7cutlass6half_tE19Flash_kernel_traitsILi192ELi64ELi64ELi4ES2_EELb1ELb0ELb0ELb1ELb0ELb1ELb0ELb0EEv16Flash_fwd_params(ptr noundef byval(%struct.Flash_fwd_params) align 8 %0) #6 comdat {
  %2 = alloca %struct.dim3, align 8
  %3 = alloca %struct.dim3, align 8
  %4 = alloca i64, align 8
  %5 = alloca ptr, align 8
  %6 = alloca ptr, align 16
  store ptr %0, ptr %6, align 16
  %7 = call i32 @__cudaPopCallConfiguration(ptr nonnull %2, ptr nonnull %3, ptr nonnull %4, ptr nonnull %5)
  %8 = load i64, ptr %4, align 8
  %9 = load ptr, ptr %5, align 8
  %10 = load i64, ptr %2, align 8
  %11 = getelementptr inbounds i8, ptr %2, i64 8
  %12 = load i32, ptr %11, align 8
  %13 = load i64, ptr %3, align 8
  %14 = getelementptr inbounds i8, ptr %3, i64 8
  %15 = load i32, ptr %14, align 8
  %16 = call noundef i32 @cudaLaunchKernel(ptr noundef nonnull @_Z31__device_stub__flash_fwd_kernelI23Flash_fwd_kernel_traitsILi192ELi64ELi64ELi4ELb0ELb0EN7cutlass6half_tE19Flash_kernel_traitsILi192ELi64ELi64ELi4ES2_EELb1ELb0ELb0ELb1ELb0ELb1ELb0ELb0EEv16Flash_fwd_params, i64 %10, i32 %12, i64 %13, i32 %15, ptr noundef nonnull %6, i64 noundef %8, ptr noundef %9)
  ret void
}

; Function Attrs: inlinehint mustprogress uwtable
define linkonce_odr dso_local void @_ZZZZZZZZZZZZZ13run_flash_fwdI23Flash_fwd_kernel_traitsILi192ELi64ELi64ELi4ELb0ELb0EN7cutlass6half_tE19Flash_kernel_traitsILi192ELi64ELi64ELi4ES2_EELb1ELb0EEvR16Flash_fwd_paramsP11CUstream_stENKUlvE_clEvENKUlvE_clEvENKUlvE_clEvENKUlvE_clEvENKUlvE_clEvENKUlvE0_clEvENKUlvE_clEvENKUlvE0_clEvENKUlvE_clEvENKUlvE0_clEvENKUlvE_clEvENKUlvE_clEv(ptr noundef nonnull align 8 dereferenceable(24) %0) local_unnamed_addr #5 comdat align 2 {
  %2 = alloca %struct.dim3, align 8
  %3 = alloca %struct.dim3, align 8
  %4 = alloca i64, align 8
  %5 = alloca ptr, align 8
  %6 = alloca ptr, align 16
  %7 = alloca %struct.Flash_fwd_params, align 8
  %8 = alloca %struct.Flash_fwd_params, align 8
  %9 = tail call noundef i32 @cudaFuncSetAttribute(ptr noundef nonnull @_Z31__device_stub__flash_fwd_kernelI23Flash_fwd_kernel_traitsILi192ELi64ELi64ELi4ELb0ELb0EN7cutlass6half_tE19Flash_kernel_traitsILi192ELi64ELi64ELi4ES2_EELb0ELb0ELb0ELb0ELb0ELb1ELb1ELb0EEv16Flash_fwd_params, i32 noundef 8, i32 noundef 73728)
  tail call void @_ZN3c104cuda29c10_cuda_check_implementationEiPKcS2_ib(i32 noundef %9, ptr noundef nonnull @.str, ptr noundef nonnull @__func__._ZZZZZZZZZZZZZ13run_flash_fwdI23Flash_fwd_kernel_traitsILi192ELi64ELi64ELi4ELb0ELb0EN7cutlass6half_tE19Flash_kernel_traitsILi192ELi64ELi64ELi4ES2_EELb1ELb0EEvR16Flash_fwd_paramsP11CUstream_stENKUlvE_clEvENKUlvE_clEvENKUlvE_clEvENKUlvE_clEvENKUlvE_clEvENKUlvE_clEvENKUlvE_clEvENKUlvE_clEvENKUlvE_clEvENKUlvE_clEvENKUlvE_clEvENKUlvE_clEv, i32 noundef 82, i1 noundef zeroext true)
  %10 = load ptr, ptr %0, align 8, !tbaa !115
  %11 = load i64, ptr %10, align 4, !tbaa.struct !53
  %12 = getelementptr inbounds i8, ptr %10, i64 8
  %13 = load i32, ptr %12, align 4, !tbaa.struct !55
  %14 = getelementptr inbounds %class.anon.51, ptr %0, i64 0, i32 1
  %15 = load ptr, ptr %14, align 8, !tbaa !117
  %16 = load ptr, ptr %15, align 8, !tbaa !6
  %17 = tail call i32 @__cudaPushCallConfiguration(i64 %11, i32 %13, i64 4294967424, i32 1, i64 noundef 73728, ptr noundef %16)
  %18 = icmp eq i32 %17, 0
  br i1 %18, label %19, label %32

19:                                               ; preds = %1
  %20 = getelementptr inbounds %class.anon.51, ptr %0, i64 0, i32 2
  %21 = load ptr, ptr %20, align 8, !tbaa !118
  call void @llvm.memcpy.p0.p0.i64(ptr noundef nonnull align 8 dereferenceable(464) %8, ptr noundef nonnull align 8 dereferenceable(464) %21, i64 464, i1 false)
  call void @llvm.lifetime.start.p0(i64 464, ptr nonnull %7)
  call void @llvm.lifetime.start.p0(i64 12, ptr nonnull %2)
  call void @llvm.lifetime.start.p0(i64 12, ptr nonnull %3)
  call void @llvm.lifetime.start.p0(i64 8, ptr nonnull %4)
  call void @llvm.lifetime.start.p0(i64 8, ptr nonnull %5)
  call void @llvm.lifetime.start.p0(i64 8, ptr nonnull %6)
  call void @llvm.memcpy.p0.p0.i64(ptr noundef nonnull align 8 dereferenceable(464) %7, ptr noundef nonnull align 8 dereferenceable(464) %8, i64 464, i1 false)
  store ptr %7, ptr %6, align 16
  %22 = call i32 @__cudaPopCallConfiguration(ptr nonnull %2, ptr nonnull %3, ptr nonnull %4, ptr nonnull %5)
  %23 = load i64, ptr %4, align 8
  %24 = load ptr, ptr %5, align 8
  %25 = load i64, ptr %2, align 8
  %26 = getelementptr inbounds i8, ptr %2, i64 8
  %27 = load i32, ptr %26, align 8
  %28 = load i64, ptr %3, align 8
  %29 = getelementptr inbounds i8, ptr %3, i64 8
  %30 = load i32, ptr %29, align 8
  %31 = call noundef i32 @cudaLaunchKernel(ptr noundef nonnull @_Z31__device_stub__flash_fwd_kernelI23Flash_fwd_kernel_traitsILi192ELi64ELi64ELi4ELb0ELb0EN7cutlass6half_tE19Flash_kernel_traitsILi192ELi64ELi64ELi4ES2_EELb0ELb0ELb0ELb0ELb0ELb1ELb1ELb0EEv16Flash_fwd_params, i64 %25, i32 %27, i64 %28, i32 %30, ptr noundef nonnull %6, i64 noundef %23, ptr noundef %24)
  call void @llvm.lifetime.end.p0(i64 464, ptr nonnull %7)
  call void @llvm.lifetime.end.p0(i64 12, ptr nonnull %2)
  call void @llvm.lifetime.end.p0(i64 12, ptr nonnull %3)
  call void @llvm.lifetime.end.p0(i64 8, ptr nonnull %4)
  call void @llvm.lifetime.end.p0(i64 8, ptr nonnull %5)
  call void @llvm.lifetime.end.p0(i64 8, ptr nonnull %6)
  br label %32

32:                                               ; preds = %1, %19
  %33 = call i32 @cudaGetLastError()
  call void @_ZN3c104cuda29c10_cuda_check_implementationEiPKcS2_ib(i32 noundef %33, ptr noundef nonnull @.str, ptr noundef nonnull @__func__._ZZZZZZZZZZZZZ13run_flash_fwdI23Flash_fwd_kernel_traitsILi192ELi64ELi64ELi4ELb0ELb0EN7cutlass6half_tE19Flash_kernel_traitsILi192ELi64ELi64ELi4ES2_EELb1ELb0EEvR16Flash_fwd_paramsP11CUstream_stENKUlvE_clEvENKUlvE_clEvENKUlvE_clEvENKUlvE_clEvENKUlvE_clEvENKUlvE_clEvENKUlvE_clEvENKUlvE_clEvENKUlvE_clEvENKUlvE_clEvENKUlvE_clEvENKUlvE_clEv, i32 noundef 89, i1 noundef zeroext true)
  ret void
}

; Function Attrs: inlinehint mustprogress uwtable
define linkonce_odr dso_local void @_ZZZZZZZZZZZZZ13run_flash_fwdI23Flash_fwd_kernel_traitsILi192ELi64ELi64ELi4ELb0ELb0EN7cutlass6half_tE19Flash_kernel_traitsILi192ELi64ELi64ELi4ES2_EELb1ELb0EEvR16Flash_fwd_paramsP11CUstream_stENKUlvE_clEvENKUlvE_clEvENKUlvE_clEvENKUlvE_clEvENKUlvE_clEvENKUlvE0_clEvENKUlvE_clEvENKUlvE0_clEvENKUlvE_clEvENKUlvE0_clEvENKUlvE_clEvENKUlvE0_clEv(ptr noundef nonnull align 8 dereferenceable(24) %0) local_unnamed_addr #5 comdat align 2 {
  %2 = alloca %struct.dim3, align 8
  %3 = alloca %struct.dim3, align 8
  %4 = alloca i64, align 8
  %5 = alloca ptr, align 8
  %6 = alloca ptr, align 16
  %7 = alloca %struct.Flash_fwd_params, align 8
  %8 = alloca %struct.Flash_fwd_params, align 8
  %9 = tail call noundef i32 @cudaFuncSetAttribute(ptr noundef nonnull @_Z31__device_stub__flash_fwd_kernelI23Flash_fwd_kernel_traitsILi192ELi64ELi64ELi4ELb0ELb0EN7cutlass6half_tE19Flash_kernel_traitsILi192ELi64ELi64ELi4ES2_EELb1ELb0ELb0ELb0ELb0ELb1ELb0ELb0EEv16Flash_fwd_params, i32 noundef 8, i32 noundef 73728)
  tail call void @_ZN3c104cuda29c10_cuda_check_implementationEiPKcS2_ib(i32 noundef %9, ptr noundef nonnull @.str, ptr noundef nonnull @__func__._ZZZZZZZZZZZZZ13run_flash_fwdI23Flash_fwd_kernel_traitsILi192ELi64ELi64ELi4ELb0ELb0EN7cutlass6half_tE19Flash_kernel_traitsILi192ELi64ELi64ELi4ES2_EELb1ELb0EEvR16Flash_fwd_paramsP11CUstream_stENKUlvE_clEvENKUlvE_clEvENKUlvE_clEvENKUlvE_clEvENKUlvE_clEvENKUlvE_clEvENKUlvE_clEvENKUlvE_clEvENKUlvE_clEvENKUlvE_clEvENKUlvE_clEvENKUlvE_clEv, i32 noundef 82, i1 noundef zeroext true)
  %10 = load ptr, ptr %0, align 8, !tbaa !119
  %11 = load i64, ptr %10, align 4, !tbaa.struct !53
  %12 = getelementptr inbounds i8, ptr %10, i64 8
  %13 = load i32, ptr %12, align 4, !tbaa.struct !55
  %14 = getelementptr inbounds %class.anon.52, ptr %0, i64 0, i32 1
  %15 = load ptr, ptr %14, align 8, !tbaa !121
  %16 = load ptr, ptr %15, align 8, !tbaa !6
  %17 = tail call i32 @__cudaPushCallConfiguration(i64 %11, i32 %13, i64 4294967424, i32 1, i64 noundef 73728, ptr noundef %16)
  %18 = icmp eq i32 %17, 0
  br i1 %18, label %19, label %32

19:                                               ; preds = %1
  %20 = getelementptr inbounds %class.anon.52, ptr %0, i64 0, i32 2
  %21 = load ptr, ptr %20, align 8, !tbaa !122
  call void @llvm.memcpy.p0.p0.i64(ptr noundef nonnull align 8 dereferenceable(464) %8, ptr noundef nonnull align 8 dereferenceable(464) %21, i64 464, i1 false)
  call void @llvm.lifetime.start.p0(i64 464, ptr nonnull %7)
  call void @llvm.lifetime.start.p0(i64 12, ptr nonnull %2)
  call void @llvm.lifetime.start.p0(i64 12, ptr nonnull %3)
  call void @llvm.lifetime.start.p0(i64 8, ptr nonnull %4)
  call void @llvm.lifetime.start.p0(i64 8, ptr nonnull %5)
  call void @llvm.lifetime.start.p0(i64 8, ptr nonnull %6)
  call void @llvm.memcpy.p0.p0.i64(ptr noundef nonnull align 8 dereferenceable(464) %7, ptr noundef nonnull align 8 dereferenceable(464) %8, i64 464, i1 false)
  store ptr %7, ptr %6, align 16
  %22 = call i32 @__cudaPopCallConfiguration(ptr nonnull %2, ptr nonnull %3, ptr nonnull %4, ptr nonnull %5)
  %23 = load i64, ptr %4, align 8
  %24 = load ptr, ptr %5, align 8
  %25 = load i64, ptr %2, align 8
  %26 = getelementptr inbounds i8, ptr %2, i64 8
  %27 = load i32, ptr %26, align 8
  %28 = load i64, ptr %3, align 8
  %29 = getelementptr inbounds i8, ptr %3, i64 8
  %30 = load i32, ptr %29, align 8
  %31 = call noundef i32 @cudaLaunchKernel(ptr noundef nonnull @_Z31__device_stub__flash_fwd_kernelI23Flash_fwd_kernel_traitsILi192ELi64ELi64ELi4ELb0ELb0EN7cutlass6half_tE19Flash_kernel_traitsILi192ELi64ELi64ELi4ES2_EELb1ELb0ELb0ELb0ELb0ELb1ELb0ELb0EEv16Flash_fwd_params, i64 %25, i32 %27, i64 %28, i32 %30, ptr noundef nonnull %6, i64 noundef %23, ptr noundef %24)
  call void @llvm.lifetime.end.p0(i64 464, ptr nonnull %7)
  call void @llvm.lifetime.end.p0(i64 12, ptr nonnull %2)
  call void @llvm.lifetime.end.p0(i64 12, ptr nonnull %3)
  call void @llvm.lifetime.end.p0(i64 8, ptr nonnull %4)
  call void @llvm.lifetime.end.p0(i64 8, ptr nonnull %5)
  call void @llvm.lifetime.end.p0(i64 8, ptr nonnull %6)
  br label %32

32:                                               ; preds = %1, %19
  %33 = call i32 @cudaGetLastError()
  call void @_ZN3c104cuda29c10_cuda_check_implementationEiPKcS2_ib(i32 noundef %33, ptr noundef nonnull @.str, ptr noundef nonnull @__func__._ZZZZZZZZZZZZZ13run_flash_fwdI23Flash_fwd_kernel_traitsILi192ELi64ELi64ELi4ELb0ELb0EN7cutlass6half_tE19Flash_kernel_traitsILi192ELi64ELi64ELi4ES2_EELb1ELb0EEvR16Flash_fwd_paramsP11CUstream_stENKUlvE_clEvENKUlvE_clEvENKUlvE_clEvENKUlvE_clEvENKUlvE_clEvENKUlvE_clEvENKUlvE_clEvENKUlvE_clEvENKUlvE_clEvENKUlvE_clEvENKUlvE_clEvENKUlvE_clEv, i32 noundef 89, i1 noundef zeroext true)
  ret void
}

; Function Attrs: mustprogress norecurse uwtable
define linkonce_odr dso_local void @_Z31__device_stub__flash_fwd_kernelI23Flash_fwd_kernel_traitsILi192ELi64ELi64ELi4ELb0ELb0EN7cutlass6half_tE19Flash_kernel_traitsILi192ELi64ELi64ELi4ES2_EELb1ELb0ELb0ELb0ELb0ELb1ELb0ELb0EEv16Flash_fwd_params(ptr noundef byval(%struct.Flash_fwd_params) align 8 %0) #6 comdat {
  %2 = alloca %struct.dim3, align 8
  %3 = alloca %struct.dim3, align 8
  %4 = alloca i64, align 8
  %5 = alloca ptr, align 8
  %6 = alloca ptr, align 16
  store ptr %0, ptr %6, align 16
  %7 = call i32 @__cudaPopCallConfiguration(ptr nonnull %2, ptr nonnull %3, ptr nonnull %4, ptr nonnull %5)
  %8 = load i64, ptr %4, align 8
  %9 = load ptr, ptr %5, align 8
  %10 = load i64, ptr %2, align 8
  %11 = getelementptr inbounds i8, ptr %2, i64 8
  %12 = load i32, ptr %11, align 8
  %13 = load i64, ptr %3, align 8
  %14 = getelementptr inbounds i8, ptr %3, i64 8
  %15 = load i32, ptr %14, align 8
  %16 = call noundef i32 @cudaLaunchKernel(ptr noundef nonnull @_Z31__device_stub__flash_fwd_kernelI23Flash_fwd_kernel_traitsILi192ELi64ELi64ELi4ELb0ELb0EN7cutlass6half_tE19Flash_kernel_traitsILi192ELi64ELi64ELi4ES2_EELb1ELb0ELb0ELb0ELb0ELb1ELb0ELb0EEv16Flash_fwd_params, i64 %10, i32 %12, i64 %13, i32 %15, ptr noundef nonnull %6, i64 noundef %8, ptr noundef %9)
  ret void
}

; Function Attrs: inlinehint mustprogress uwtable
define linkonce_odr dso_local void @_ZZZZZZZZ13run_flash_fwdI23Flash_fwd_kernel_traitsILi192ELi64ELi64ELi4ELb0ELb0EN7cutlass6half_tE19Flash_kernel_traitsILi192ELi64ELi64ELi4ES2_EELb1ELb0EEvR16Flash_fwd_paramsP11CUstream_stENKUlvE_clEvENKUlvE_clEvENKUlvE_clEvENKUlvE0_clEvENKUlvE_clEvENKUlvE_clEvENKUlvE_clEv(ptr noundef nonnull align 8 dereferenceable(32) %0) local_unnamed_addr #5 comdat align 2 {
  %2 = alloca %class.anon.75, align 8
  %3 = alloca %class.anon.76, align 8
  %4 = alloca %class.anon.72, align 8
  %5 = alloca %class.anon.73, align 8
  %6 = alloca %class.anon.66, align 8
  %7 = alloca %class.anon.67, align 8
  %8 = alloca %class.anon.63, align 8
  %9 = alloca %class.anon.64, align 8
  %10 = load ptr, ptr %0, align 8, !tbaa !123
  %11 = load i8, ptr %10, align 1, !tbaa !30, !range !35, !noundef !36
  %12 = icmp eq i8 %11, 0
  %13 = getelementptr inbounds %class.anon.56, ptr %0, i64 0, i32 1
  %14 = load ptr, ptr %13, align 8, !tbaa !125
  %15 = getelementptr inbounds %class.anon.56, ptr %0, i64 0, i32 2
  %16 = load ptr, ptr %15, align 8, !tbaa !126
  %17 = getelementptr inbounds %class.anon.56, ptr %0, i64 0, i32 3
  %18 = load ptr, ptr %17, align 8, !tbaa !127
  %19 = getelementptr inbounds %struct.Flash_fwd_params, ptr %14, i64 0, i32 55
  %20 = load ptr, ptr %19, align 8, !tbaa !49
  %21 = icmp eq ptr %20, null
  %22 = getelementptr inbounds %struct.Flash_fwd_params, ptr %14, i64 0, i32 47
  %23 = load float, ptr %22, align 4, !tbaa !50
  %24 = fcmp ogt float %23, 0.000000e+00
  br i1 %12, label %40, label %25

25:                                               ; preds = %1
  br i1 %21, label %33, label %26

26:                                               ; preds = %25
  br i1 %24, label %27, label %30

27:                                               ; preds = %26
  call void @llvm.lifetime.start.p0(i64 24, ptr nonnull %8) #9
  store ptr %16, ptr %8, align 8, !tbaa !6
  %28 = getelementptr inbounds %class.anon.63, ptr %8, i64 0, i32 1
  store ptr %18, ptr %28, align 8, !tbaa !6
  %29 = getelementptr inbounds %class.anon.63, ptr %8, i64 0, i32 2
  store ptr %14, ptr %29, align 8, !tbaa !6
  call void @_ZZZZZZZZZZZZZ13run_flash_fwdI23Flash_fwd_kernel_traitsILi192ELi64ELi64ELi4ELb0ELb0EN7cutlass6half_tE19Flash_kernel_traitsILi192ELi64ELi64ELi4ES2_EELb1ELb0EEvR16Flash_fwd_paramsP11CUstream_stENKUlvE_clEvENKUlvE_clEvENKUlvE_clEvENKUlvE0_clEvENKUlvE_clEvENKUlvE_clEvENKUlvE_clEvENKUlvE_clEvENKUlvE_clEvENKUlvE_clEvENKUlvE_clEvENKUlvE_clEv(ptr noundef nonnull align 8 dereferenceable(24) %8)
  call void @llvm.lifetime.end.p0(i64 24, ptr nonnull %8) #9
  br label %55

30:                                               ; preds = %26
  call void @llvm.lifetime.start.p0(i64 24, ptr nonnull %9) #9
  store ptr %16, ptr %9, align 8, !tbaa !6
  %31 = getelementptr inbounds %class.anon.64, ptr %9, i64 0, i32 1
  store ptr %18, ptr %31, align 8, !tbaa !6
  %32 = getelementptr inbounds %class.anon.64, ptr %9, i64 0, i32 2
  store ptr %14, ptr %32, align 8, !tbaa !6
  call void @_ZZZZZZZZZZZZZ13run_flash_fwdI23Flash_fwd_kernel_traitsILi192ELi64ELi64ELi4ELb0ELb0EN7cutlass6half_tE19Flash_kernel_traitsILi192ELi64ELi64ELi4ES2_EELb1ELb0EEvR16Flash_fwd_paramsP11CUstream_stENKUlvE_clEvENKUlvE_clEvENKUlvE_clEvENKUlvE0_clEvENKUlvE_clEvENKUlvE_clEvENKUlvE_clEvENKUlvE_clEvENKUlvE_clEvENKUlvE_clEvENKUlvE_clEvENKUlvE0_clEv(ptr noundef nonnull align 8 dereferenceable(24) %9)
  call void @llvm.lifetime.end.p0(i64 24, ptr nonnull %9) #9
  br label %55

33:                                               ; preds = %25
  br i1 %24, label %34, label %37

34:                                               ; preds = %33
  call void @llvm.lifetime.start.p0(i64 24, ptr nonnull %6) #9
  store ptr %16, ptr %6, align 8, !tbaa !6
  %35 = getelementptr inbounds %class.anon.66, ptr %6, i64 0, i32 1
  store ptr %18, ptr %35, align 8, !tbaa !6
  %36 = getelementptr inbounds %class.anon.66, ptr %6, i64 0, i32 2
  store ptr %14, ptr %36, align 8, !tbaa !6
  call void @_ZZZZZZZZZZZZZ13run_flash_fwdI23Flash_fwd_kernel_traitsILi192ELi64ELi64ELi4ELb0ELb0EN7cutlass6half_tE19Flash_kernel_traitsILi192ELi64ELi64ELi4ES2_EELb1ELb0EEvR16Flash_fwd_paramsP11CUstream_stENKUlvE_clEvENKUlvE_clEvENKUlvE_clEvENKUlvE0_clEvENKUlvE_clEvENKUlvE_clEvENKUlvE_clEvENKUlvE_clEvENKUlvE_clEvENKUlvE0_clEvENKUlvE_clEvENKUlvE_clEv(ptr noundef nonnull align 8 dereferenceable(24) %6)
  call void @llvm.lifetime.end.p0(i64 24, ptr nonnull %6) #9
  br label %55

37:                                               ; preds = %33
  call void @llvm.lifetime.start.p0(i64 24, ptr nonnull %7) #9
  store ptr %16, ptr %7, align 8, !tbaa !6
  %38 = getelementptr inbounds %class.anon.67, ptr %7, i64 0, i32 1
  store ptr %18, ptr %38, align 8, !tbaa !6
  %39 = getelementptr inbounds %class.anon.67, ptr %7, i64 0, i32 2
  store ptr %14, ptr %39, align 8, !tbaa !6
  call void @_ZZZZZZZZZZZZZ13run_flash_fwdI23Flash_fwd_kernel_traitsILi192ELi64ELi64ELi4ELb0ELb0EN7cutlass6half_tE19Flash_kernel_traitsILi192ELi64ELi64ELi4ES2_EELb1ELb0EEvR16Flash_fwd_paramsP11CUstream_stENKUlvE_clEvENKUlvE_clEvENKUlvE_clEvENKUlvE0_clEvENKUlvE_clEvENKUlvE_clEvENKUlvE_clEvENKUlvE_clEvENKUlvE_clEvENKUlvE0_clEvENKUlvE_clEvENKUlvE0_clEv(ptr noundef nonnull align 8 dereferenceable(24) %7)
  call void @llvm.lifetime.end.p0(i64 24, ptr nonnull %7) #9
  br label %55

40:                                               ; preds = %1
  br i1 %21, label %48, label %41

41:                                               ; preds = %40
  br i1 %24, label %42, label %45

42:                                               ; preds = %41
  call void @llvm.lifetime.start.p0(i64 24, ptr nonnull %4) #9
  store ptr %16, ptr %4, align 8, !tbaa !6
  %43 = getelementptr inbounds %class.anon.72, ptr %4, i64 0, i32 1
  store ptr %18, ptr %43, align 8, !tbaa !6
  %44 = getelementptr inbounds %class.anon.72, ptr %4, i64 0, i32 2
  store ptr %14, ptr %44, align 8, !tbaa !6
  call void @_ZZZZZZZZZZZZZ13run_flash_fwdI23Flash_fwd_kernel_traitsILi192ELi64ELi64ELi4ELb0ELb0EN7cutlass6half_tE19Flash_kernel_traitsILi192ELi64ELi64ELi4ES2_EELb1ELb0EEvR16Flash_fwd_paramsP11CUstream_stENKUlvE_clEvENKUlvE_clEvENKUlvE_clEvENKUlvE0_clEvENKUlvE_clEvENKUlvE_clEvENKUlvE_clEvENKUlvE0_clEvENKUlvE_clEvENKUlvE_clEvENKUlvE_clEvENKUlvE_clEv(ptr noundef nonnull align 8 dereferenceable(24) %4)
  call void @llvm.lifetime.end.p0(i64 24, ptr nonnull %4) #9
  br label %55

45:                                               ; preds = %41
  call void @llvm.lifetime.start.p0(i64 24, ptr nonnull %5) #9
  store ptr %16, ptr %5, align 8, !tbaa !6
  %46 = getelementptr inbounds %class.anon.73, ptr %5, i64 0, i32 1
  store ptr %18, ptr %46, align 8, !tbaa !6
  %47 = getelementptr inbounds %class.anon.73, ptr %5, i64 0, i32 2
  store ptr %14, ptr %47, align 8, !tbaa !6
  call void @_ZZZZZZZZZZZZZ13run_flash_fwdI23Flash_fwd_kernel_traitsILi192ELi64ELi64ELi4ELb0ELb0EN7cutlass6half_tE19Flash_kernel_traitsILi192ELi64ELi64ELi4ES2_EELb1ELb0EEvR16Flash_fwd_paramsP11CUstream_stENKUlvE_clEvENKUlvE_clEvENKUlvE_clEvENKUlvE0_clEvENKUlvE_clEvENKUlvE_clEvENKUlvE_clEvENKUlvE0_clEvENKUlvE_clEvENKUlvE_clEvENKUlvE_clEvENKUlvE0_clEv(ptr noundef nonnull align 8 dereferenceable(24) %5)
  call void @llvm.lifetime.end.p0(i64 24, ptr nonnull %5) #9
  br label %55

48:                                               ; preds = %40
  br i1 %24, label %49, label %52

49:                                               ; preds = %48
  call void @llvm.lifetime.start.p0(i64 24, ptr nonnull %2) #9
  store ptr %16, ptr %2, align 8, !tbaa !6
  %50 = getelementptr inbounds %class.anon.75, ptr %2, i64 0, i32 1
  store ptr %18, ptr %50, align 8, !tbaa !6
  %51 = getelementptr inbounds %class.anon.75, ptr %2, i64 0, i32 2
  store ptr %14, ptr %51, align 8, !tbaa !6
  call void @_ZZZZZZZZZZZZZ13run_flash_fwdI23Flash_fwd_kernel_traitsILi192ELi64ELi64ELi4ELb0ELb0EN7cutlass6half_tE19Flash_kernel_traitsILi192ELi64ELi64ELi4ES2_EELb1ELb0EEvR16Flash_fwd_paramsP11CUstream_stENKUlvE_clEvENKUlvE_clEvENKUlvE_clEvENKUlvE0_clEvENKUlvE_clEvENKUlvE_clEvENKUlvE_clEvENKUlvE0_clEvENKUlvE_clEvENKUlvE0_clEvENKUlvE_clEvENKUlvE_clEv(ptr noundef nonnull align 8 dereferenceable(24) %2)
  call void @llvm.lifetime.end.p0(i64 24, ptr nonnull %2) #9
  br label %55

52:                                               ; preds = %48
  call void @llvm.lifetime.start.p0(i64 24, ptr nonnull %3) #9
  store ptr %16, ptr %3, align 8, !tbaa !6
  %53 = getelementptr inbounds %class.anon.76, ptr %3, i64 0, i32 1
  store ptr %18, ptr %53, align 8, !tbaa !6
  %54 = getelementptr inbounds %class.anon.76, ptr %3, i64 0, i32 2
  store ptr %14, ptr %54, align 8, !tbaa !6
  call void @_ZZZZZZZZZZZZZ13run_flash_fwdI23Flash_fwd_kernel_traitsILi192ELi64ELi64ELi4ELb0ELb0EN7cutlass6half_tE19Flash_kernel_traitsILi192ELi64ELi64ELi4ES2_EELb1ELb0EEvR16Flash_fwd_paramsP11CUstream_stENKUlvE_clEvENKUlvE_clEvENKUlvE_clEvENKUlvE0_clEvENKUlvE_clEvENKUlvE_clEvENKUlvE_clEvENKUlvE0_clEvENKUlvE_clEvENKUlvE0_clEvENKUlvE_clEvENKUlvE0_clEv(ptr noundef nonnull align 8 dereferenceable(24) %3)
  call void @llvm.lifetime.end.p0(i64 24, ptr nonnull %3) #9
  br label %55

55:                                               ; preds = %52, %49, %45, %42, %37, %34, %30, %27
  ret void
}

; Function Attrs: inlinehint mustprogress uwtable
define linkonce_odr dso_local void @_ZZZZZZZZZZZZZ13run_flash_fwdI23Flash_fwd_kernel_traitsILi192ELi64ELi64ELi4ELb0ELb0EN7cutlass6half_tE19Flash_kernel_traitsILi192ELi64ELi64ELi4ES2_EELb1ELb0EEvR16Flash_fwd_paramsP11CUstream_stENKUlvE_clEvENKUlvE_clEvENKUlvE_clEvENKUlvE0_clEvENKUlvE_clEvENKUlvE_clEvENKUlvE_clEvENKUlvE_clEvENKUlvE_clEvENKUlvE_clEvENKUlvE_clEvENKUlvE_clEv(ptr noundef nonnull align 8 dereferenceable(24) %0) local_unnamed_addr #5 comdat align 2 {
  %2 = alloca %struct.dim3, align 8
  %3 = alloca %struct.dim3, align 8
  %4 = alloca i64, align 8
  %5 = alloca ptr, align 8
  %6 = alloca ptr, align 16
  %7 = alloca %struct.Flash_fwd_params, align 8
  %8 = alloca %struct.Flash_fwd_params, align 8
  %9 = tail call noundef i32 @cudaFuncSetAttribute(ptr noundef nonnull @_Z31__device_stub__flash_fwd_kernelI23Flash_fwd_kernel_traitsILi192ELi64ELi64ELi4ELb0ELb0EN7cutlass6half_tE19Flash_kernel_traitsILi192ELi64ELi64ELi4ES2_EELb0ELb0ELb1ELb1ELb0ELb0ELb1ELb0EEv16Flash_fwd_params, i32 noundef 8, i32 noundef 73728)
  tail call void @_ZN3c104cuda29c10_cuda_check_implementationEiPKcS2_ib(i32 noundef %9, ptr noundef nonnull @.str, ptr noundef nonnull @__func__._ZZZZZZZZZZZZZ13run_flash_fwdI23Flash_fwd_kernel_traitsILi192ELi64ELi64ELi4ELb0ELb0EN7cutlass6half_tE19Flash_kernel_traitsILi192ELi64ELi64ELi4ES2_EELb1ELb0EEvR16Flash_fwd_paramsP11CUstream_stENKUlvE_clEvENKUlvE_clEvENKUlvE_clEvENKUlvE_clEvENKUlvE_clEvENKUlvE_clEvENKUlvE_clEvENKUlvE_clEvENKUlvE_clEvENKUlvE_clEvENKUlvE_clEvENKUlvE_clEv, i32 noundef 82, i1 noundef zeroext true)
  %10 = load ptr, ptr %0, align 8, !tbaa !128
  %11 = load i64, ptr %10, align 4, !tbaa.struct !53
  %12 = getelementptr inbounds i8, ptr %10, i64 8
  %13 = load i32, ptr %12, align 4, !tbaa.struct !55
  %14 = getelementptr inbounds %class.anon.63, ptr %0, i64 0, i32 1
  %15 = load ptr, ptr %14, align 8, !tbaa !130
  %16 = load ptr, ptr %15, align 8, !tbaa !6
  %17 = tail call i32 @__cudaPushCallConfiguration(i64 %11, i32 %13, i64 4294967424, i32 1, i64 noundef 73728, ptr noundef %16)
  %18 = icmp eq i32 %17, 0
  br i1 %18, label %19, label %32

19:                                               ; preds = %1
  %20 = getelementptr inbounds %class.anon.63, ptr %0, i64 0, i32 2
  %21 = load ptr, ptr %20, align 8, !tbaa !131
  call void @llvm.memcpy.p0.p0.i64(ptr noundef nonnull align 8 dereferenceable(464) %8, ptr noundef nonnull align 8 dereferenceable(464) %21, i64 464, i1 false)
  call void @llvm.lifetime.start.p0(i64 464, ptr nonnull %7)
  call void @llvm.lifetime.start.p0(i64 12, ptr nonnull %2)
  call void @llvm.lifetime.start.p0(i64 12, ptr nonnull %3)
  call void @llvm.lifetime.start.p0(i64 8, ptr nonnull %4)
  call void @llvm.lifetime.start.p0(i64 8, ptr nonnull %5)
  call void @llvm.lifetime.start.p0(i64 8, ptr nonnull %6)
  call void @llvm.memcpy.p0.p0.i64(ptr noundef nonnull align 8 dereferenceable(464) %7, ptr noundef nonnull align 8 dereferenceable(464) %8, i64 464, i1 false)
  store ptr %7, ptr %6, align 16
  %22 = call i32 @__cudaPopCallConfiguration(ptr nonnull %2, ptr nonnull %3, ptr nonnull %4, ptr nonnull %5)
  %23 = load i64, ptr %4, align 8
  %24 = load ptr, ptr %5, align 8
  %25 = load i64, ptr %2, align 8
  %26 = getelementptr inbounds i8, ptr %2, i64 8
  %27 = load i32, ptr %26, align 8
  %28 = load i64, ptr %3, align 8
  %29 = getelementptr inbounds i8, ptr %3, i64 8
  %30 = load i32, ptr %29, align 8
  %31 = call noundef i32 @cudaLaunchKernel(ptr noundef nonnull @_Z31__device_stub__flash_fwd_kernelI23Flash_fwd_kernel_traitsILi192ELi64ELi64ELi4ELb0ELb0EN7cutlass6half_tE19Flash_kernel_traitsILi192ELi64ELi64ELi4ES2_EELb0ELb0ELb1ELb1ELb0ELb0ELb1ELb0EEv16Flash_fwd_params, i64 %25, i32 %27, i64 %28, i32 %30, ptr noundef nonnull %6, i64 noundef %23, ptr noundef %24)
  call void @llvm.lifetime.end.p0(i64 464, ptr nonnull %7)
  call void @llvm.lifetime.end.p0(i64 12, ptr nonnull %2)
  call void @llvm.lifetime.end.p0(i64 12, ptr nonnull %3)
  call void @llvm.lifetime.end.p0(i64 8, ptr nonnull %4)
  call void @llvm.lifetime.end.p0(i64 8, ptr nonnull %5)
  call void @llvm.lifetime.end.p0(i64 8, ptr nonnull %6)
  br label %32

32:                                               ; preds = %1, %19
  %33 = call i32 @cudaGetLastError()
  call void @_ZN3c104cuda29c10_cuda_check_implementationEiPKcS2_ib(i32 noundef %33, ptr noundef nonnull @.str, ptr noundef nonnull @__func__._ZZZZZZZZZZZZZ13run_flash_fwdI23Flash_fwd_kernel_traitsILi192ELi64ELi64ELi4ELb0ELb0EN7cutlass6half_tE19Flash_kernel_traitsILi192ELi64ELi64ELi4ES2_EELb1ELb0EEvR16Flash_fwd_paramsP11CUstream_stENKUlvE_clEvENKUlvE_clEvENKUlvE_clEvENKUlvE_clEvENKUlvE_clEvENKUlvE_clEvENKUlvE_clEvENKUlvE_clEvENKUlvE_clEvENKUlvE_clEvENKUlvE_clEvENKUlvE_clEv, i32 noundef 89, i1 noundef zeroext true)
  ret void
}

; Function Attrs: inlinehint mustprogress uwtable
define linkonce_odr dso_local void @_ZZZZZZZZZZZZZ13run_flash_fwdI23Flash_fwd_kernel_traitsILi192ELi64ELi64ELi4ELb0ELb0EN7cutlass6half_tE19Flash_kernel_traitsILi192ELi64ELi64ELi4ES2_EELb1ELb0EEvR16Flash_fwd_paramsP11CUstream_stENKUlvE_clEvENKUlvE_clEvENKUlvE_clEvENKUlvE0_clEvENKUlvE_clEvENKUlvE_clEvENKUlvE_clEvENKUlvE_clEvENKUlvE_clEvENKUlvE_clEvENKUlvE_clEvENKUlvE0_clEv(ptr noundef nonnull align 8 dereferenceable(24) %0) local_unnamed_addr #5 comdat align 2 {
  %2 = alloca %struct.dim3, align 8
  %3 = alloca %struct.dim3, align 8
  %4 = alloca i64, align 8
  %5 = alloca ptr, align 8
  %6 = alloca ptr, align 16
  %7 = alloca %struct.Flash_fwd_params, align 8
  %8 = alloca %struct.Flash_fwd_params, align 8
  %9 = tail call noundef i32 @cudaFuncSetAttribute(ptr noundef nonnull @_Z31__device_stub__flash_fwd_kernelI23Flash_fwd_kernel_traitsILi192ELi64ELi64ELi4ELb0ELb0EN7cutlass6half_tE19Flash_kernel_traitsILi192ELi64ELi64ELi4ES2_EELb1ELb0ELb1ELb1ELb0ELb0ELb0ELb1EEv16Flash_fwd_params, i32 noundef 8, i32 noundef 73728)
  tail call void @_ZN3c104cuda29c10_cuda_check_implementationEiPKcS2_ib(i32 noundef %9, ptr noundef nonnull @.str, ptr noundef nonnull @__func__._ZZZZZZZZZZZZZ13run_flash_fwdI23Flash_fwd_kernel_traitsILi192ELi64ELi64ELi4ELb0ELb0EN7cutlass6half_tE19Flash_kernel_traitsILi192ELi64ELi64ELi4ES2_EELb1ELb0EEvR16Flash_fwd_paramsP11CUstream_stENKUlvE_clEvENKUlvE_clEvENKUlvE_clEvENKUlvE_clEvENKUlvE_clEvENKUlvE_clEvENKUlvE_clEvENKUlvE_clEvENKUlvE_clEvENKUlvE_clEvENKUlvE_clEvENKUlvE_clEv, i32 noundef 82, i1 noundef zeroext true)
  %10 = load ptr, ptr %0, align 8, !tbaa !132
  %11 = load i64, ptr %10, align 4, !tbaa.struct !53
  %12 = getelementptr inbounds i8, ptr %10, i64 8
  %13 = load i32, ptr %12, align 4, !tbaa.struct !55
  %14 = getelementptr inbounds %class.anon.64, ptr %0, i64 0, i32 1
  %15 = load ptr, ptr %14, align 8, !tbaa !134
  %16 = load ptr, ptr %15, align 8, !tbaa !6
  %17 = tail call i32 @__cudaPushCallConfiguration(i64 %11, i32 %13, i64 4294967424, i32 1, i64 noundef 73728, ptr noundef %16)
  %18 = icmp eq i32 %17, 0
  br i1 %18, label %19, label %32

19:                                               ; preds = %1
  %20 = getelementptr inbounds %class.anon.64, ptr %0, i64 0, i32 2
  %21 = load ptr, ptr %20, align 8, !tbaa !135
  call void @llvm.memcpy.p0.p0.i64(ptr noundef nonnull align 8 dereferenceable(464) %8, ptr noundef nonnull align 8 dereferenceable(464) %21, i64 464, i1 false)
  call void @llvm.lifetime.start.p0(i64 464, ptr nonnull %7)
  call void @llvm.lifetime.start.p0(i64 12, ptr nonnull %2)
  call void @llvm.lifetime.start.p0(i64 12, ptr nonnull %3)
  call void @llvm.lifetime.start.p0(i64 8, ptr nonnull %4)
  call void @llvm.lifetime.start.p0(i64 8, ptr nonnull %5)
  call void @llvm.lifetime.start.p0(i64 8, ptr nonnull %6)
  call void @llvm.memcpy.p0.p0.i64(ptr noundef nonnull align 8 dereferenceable(464) %7, ptr noundef nonnull align 8 dereferenceable(464) %8, i64 464, i1 false)
  store ptr %7, ptr %6, align 16
  %22 = call i32 @__cudaPopCallConfiguration(ptr nonnull %2, ptr nonnull %3, ptr nonnull %4, ptr nonnull %5)
  %23 = load i64, ptr %4, align 8
  %24 = load ptr, ptr %5, align 8
  %25 = load i64, ptr %2, align 8
  %26 = getelementptr inbounds i8, ptr %2, i64 8
  %27 = load i32, ptr %26, align 8
  %28 = load i64, ptr %3, align 8
  %29 = getelementptr inbounds i8, ptr %3, i64 8
  %30 = load i32, ptr %29, align 8
  %31 = call noundef i32 @cudaLaunchKernel(ptr noundef nonnull @_Z31__device_stub__flash_fwd_kernelI23Flash_fwd_kernel_traitsILi192ELi64ELi64ELi4ELb0ELb0EN7cutlass6half_tE19Flash_kernel_traitsILi192ELi64ELi64ELi4ES2_EELb1ELb0ELb1ELb1ELb0ELb0ELb0ELb1EEv16Flash_fwd_params, i64 %25, i32 %27, i64 %28, i32 %30, ptr noundef nonnull %6, i64 noundef %23, ptr noundef %24)
  call void @llvm.lifetime.end.p0(i64 464, ptr nonnull %7)
  call void @llvm.lifetime.end.p0(i64 12, ptr nonnull %2)
  call void @llvm.lifetime.end.p0(i64 12, ptr nonnull %3)
  call void @llvm.lifetime.end.p0(i64 8, ptr nonnull %4)
  call void @llvm.lifetime.end.p0(i64 8, ptr nonnull %5)
  call void @llvm.lifetime.end.p0(i64 8, ptr nonnull %6)
  br label %32

32:                                               ; preds = %1, %19
  %33 = call i32 @cudaGetLastError()
  call void @_ZN3c104cuda29c10_cuda_check_implementationEiPKcS2_ib(i32 noundef %33, ptr noundef nonnull @.str, ptr noundef nonnull @__func__._ZZZZZZZZZZZZZ13run_flash_fwdI23Flash_fwd_kernel_traitsILi192ELi64ELi64ELi4ELb0ELb0EN7cutlass6half_tE19Flash_kernel_traitsILi192ELi64ELi64ELi4ES2_EELb1ELb0EEvR16Flash_fwd_paramsP11CUstream_stENKUlvE_clEvENKUlvE_clEvENKUlvE_clEvENKUlvE_clEvENKUlvE_clEvENKUlvE_clEvENKUlvE_clEvENKUlvE_clEvENKUlvE_clEvENKUlvE_clEvENKUlvE_clEvENKUlvE_clEv, i32 noundef 89, i1 noundef zeroext true)
  ret void
}

; Function Attrs: mustprogress norecurse uwtable
define linkonce_odr dso_local void @_Z31__device_stub__flash_fwd_kernelI23Flash_fwd_kernel_traitsILi192ELi64ELi64ELi4ELb0ELb0EN7cutlass6half_tE19Flash_kernel_traitsILi192ELi64ELi64ELi4ES2_EELb0ELb0ELb1ELb1ELb0ELb0ELb1ELb0EEv16Flash_fwd_params(ptr noundef byval(%struct.Flash_fwd_params) align 8 %0) #6 comdat {
  %2 = alloca %struct.dim3, align 8
  %3 = alloca %struct.dim3, align 8
  %4 = alloca i64, align 8
  %5 = alloca ptr, align 8
  %6 = alloca ptr, align 16
  store ptr %0, ptr %6, align 16
  %7 = call i32 @__cudaPopCallConfiguration(ptr nonnull %2, ptr nonnull %3, ptr nonnull %4, ptr nonnull %5)
  %8 = load i64, ptr %4, align 8
  %9 = load ptr, ptr %5, align 8
  %10 = load i64, ptr %2, align 8
  %11 = getelementptr inbounds i8, ptr %2, i64 8
  %12 = load i32, ptr %11, align 8
  %13 = load i64, ptr %3, align 8
  %14 = getelementptr inbounds i8, ptr %3, i64 8
  %15 = load i32, ptr %14, align 8
  %16 = call noundef i32 @cudaLaunchKernel(ptr noundef nonnull @_Z31__device_stub__flash_fwd_kernelI23Flash_fwd_kernel_traitsILi192ELi64ELi64ELi4ELb0ELb0EN7cutlass6half_tE19Flash_kernel_traitsILi192ELi64ELi64ELi4ES2_EELb0ELb0ELb1ELb1ELb0ELb0ELb1ELb0EEv16Flash_fwd_params, i64 %10, i32 %12, i64 %13, i32 %15, ptr noundef nonnull %6, i64 noundef %8, ptr noundef %9)
  ret void
}

; Function Attrs: mustprogress norecurse uwtable
define linkonce_odr dso_local void @_Z31__device_stub__flash_fwd_kernelI23Flash_fwd_kernel_traitsILi192ELi64ELi64ELi4ELb0ELb0EN7cutlass6half_tE19Flash_kernel_traitsILi192ELi64ELi64ELi4ES2_EELb1ELb0ELb1ELb1ELb0ELb0ELb0ELb1EEv16Flash_fwd_params(ptr noundef byval(%struct.Flash_fwd_params) align 8 %0) #6 comdat {
  %2 = alloca %struct.dim3, align 8
  %3 = alloca %struct.dim3, align 8
  %4 = alloca i64, align 8
  %5 = alloca ptr, align 8
  %6 = alloca ptr, align 16
  store ptr %0, ptr %6, align 16
  %7 = call i32 @__cudaPopCallConfiguration(ptr nonnull %2, ptr nonnull %3, ptr nonnull %4, ptr nonnull %5)
  %8 = load i64, ptr %4, align 8
  %9 = load ptr, ptr %5, align 8
  %10 = load i64, ptr %2, align 8
  %11 = getelementptr inbounds i8, ptr %2, i64 8
  %12 = load i32, ptr %11, align 8
  %13 = load i64, ptr %3, align 8
  %14 = getelementptr inbounds i8, ptr %3, i64 8
  %15 = load i32, ptr %14, align 8
  %16 = call noundef i32 @cudaLaunchKernel(ptr noundef nonnull @_Z31__device_stub__flash_fwd_kernelI23Flash_fwd_kernel_traitsILi192ELi64ELi64ELi4ELb0ELb0EN7cutlass6half_tE19Flash_kernel_traitsILi192ELi64ELi64ELi4ES2_EELb1ELb0ELb1ELb1ELb0ELb0ELb0ELb1EEv16Flash_fwd_params, i64 %10, i32 %12, i64 %13, i32 %15, ptr noundef nonnull %6, i64 noundef %8, ptr noundef %9)
  ret void
}

; Function Attrs: inlinehint mustprogress uwtable
define linkonce_odr dso_local void @_ZZZZZZZZZZZZZ13run_flash_fwdI23Flash_fwd_kernel_traitsILi192ELi64ELi64ELi4ELb0ELb0EN7cutlass6half_tE19Flash_kernel_traitsILi192ELi64ELi64ELi4ES2_EELb1ELb0EEvR16Flash_fwd_paramsP11CUstream_stENKUlvE_clEvENKUlvE_clEvENKUlvE_clEvENKUlvE0_clEvENKUlvE_clEvENKUlvE_clEvENKUlvE_clEvENKUlvE_clEvENKUlvE_clEvENKUlvE0_clEvENKUlvE_clEvENKUlvE_clEv(ptr noundef nonnull align 8 dereferenceable(24) %0) local_unnamed_addr #5 comdat align 2 {
  %2 = alloca %struct.dim3, align 8
  %3 = alloca %struct.dim3, align 8
  %4 = alloca i64, align 8
  %5 = alloca ptr, align 8
  %6 = alloca ptr, align 16
  %7 = alloca %struct.Flash_fwd_params, align 8
  %8 = alloca %struct.Flash_fwd_params, align 8
  %9 = tail call noundef i32 @cudaFuncSetAttribute(ptr noundef nonnull @_Z31__device_stub__flash_fwd_kernelI23Flash_fwd_kernel_traitsILi192ELi64ELi64ELi4ELb0ELb0EN7cutlass6half_tE19Flash_kernel_traitsILi192ELi64ELi64ELi4ES2_EELb0ELb0ELb1ELb0ELb0ELb0ELb1ELb0EEv16Flash_fwd_params, i32 noundef 8, i32 noundef 73728)
  tail call void @_ZN3c104cuda29c10_cuda_check_implementationEiPKcS2_ib(i32 noundef %9, ptr noundef nonnull @.str, ptr noundef nonnull @__func__._ZZZZZZZZZZZZZ13run_flash_fwdI23Flash_fwd_kernel_traitsILi192ELi64ELi64ELi4ELb0ELb0EN7cutlass6half_tE19Flash_kernel_traitsILi192ELi64ELi64ELi4ES2_EELb1ELb0EEvR16Flash_fwd_paramsP11CUstream_stENKUlvE_clEvENKUlvE_clEvENKUlvE_clEvENKUlvE_clEvENKUlvE_clEvENKUlvE_clEvENKUlvE_clEvENKUlvE_clEvENKUlvE_clEvENKUlvE_clEvENKUlvE_clEvENKUlvE_clEv, i32 noundef 82, i1 noundef zeroext true)
  %10 = load ptr, ptr %0, align 8, !tbaa !136
  %11 = load i64, ptr %10, align 4, !tbaa.struct !53
  %12 = getelementptr inbounds i8, ptr %10, i64 8
  %13 = load i32, ptr %12, align 4, !tbaa.struct !55
  %14 = getelementptr inbounds %class.anon.66, ptr %0, i64 0, i32 1
  %15 = load ptr, ptr %14, align 8, !tbaa !138
  %16 = load ptr, ptr %15, align 8, !tbaa !6
  %17 = tail call i32 @__cudaPushCallConfiguration(i64 %11, i32 %13, i64 4294967424, i32 1, i64 noundef 73728, ptr noundef %16)
  %18 = icmp eq i32 %17, 0
  br i1 %18, label %19, label %32

19:                                               ; preds = %1
  %20 = getelementptr inbounds %class.anon.66, ptr %0, i64 0, i32 2
  %21 = load ptr, ptr %20, align 8, !tbaa !139
  call void @llvm.memcpy.p0.p0.i64(ptr noundef nonnull align 8 dereferenceable(464) %8, ptr noundef nonnull align 8 dereferenceable(464) %21, i64 464, i1 false)
  call void @llvm.lifetime.start.p0(i64 464, ptr nonnull %7)
  call void @llvm.lifetime.start.p0(i64 12, ptr nonnull %2)
  call void @llvm.lifetime.start.p0(i64 12, ptr nonnull %3)
  call void @llvm.lifetime.start.p0(i64 8, ptr nonnull %4)
  call void @llvm.lifetime.start.p0(i64 8, ptr nonnull %5)
  call void @llvm.lifetime.start.p0(i64 8, ptr nonnull %6)
  call void @llvm.memcpy.p0.p0.i64(ptr noundef nonnull align 8 dereferenceable(464) %7, ptr noundef nonnull align 8 dereferenceable(464) %8, i64 464, i1 false)
  store ptr %7, ptr %6, align 16
  %22 = call i32 @__cudaPopCallConfiguration(ptr nonnull %2, ptr nonnull %3, ptr nonnull %4, ptr nonnull %5)
  %23 = load i64, ptr %4, align 8
  %24 = load ptr, ptr %5, align 8
  %25 = load i64, ptr %2, align 8
  %26 = getelementptr inbounds i8, ptr %2, i64 8
  %27 = load i32, ptr %26, align 8
  %28 = load i64, ptr %3, align 8
  %29 = getelementptr inbounds i8, ptr %3, i64 8
  %30 = load i32, ptr %29, align 8
  %31 = call noundef i32 @cudaLaunchKernel(ptr noundef nonnull @_Z31__device_stub__flash_fwd_kernelI23Flash_fwd_kernel_traitsILi192ELi64ELi64ELi4ELb0ELb0EN7cutlass6half_tE19Flash_kernel_traitsILi192ELi64ELi64ELi4ES2_EELb0ELb0ELb1ELb0ELb0ELb0ELb1ELb0EEv16Flash_fwd_params, i64 %25, i32 %27, i64 %28, i32 %30, ptr noundef nonnull %6, i64 noundef %23, ptr noundef %24)
  call void @llvm.lifetime.end.p0(i64 464, ptr nonnull %7)
  call void @llvm.lifetime.end.p0(i64 12, ptr nonnull %2)
  call void @llvm.lifetime.end.p0(i64 12, ptr nonnull %3)
  call void @llvm.lifetime.end.p0(i64 8, ptr nonnull %4)
  call void @llvm.lifetime.end.p0(i64 8, ptr nonnull %5)
  call void @llvm.lifetime.end.p0(i64 8, ptr nonnull %6)
  br label %32

32:                                               ; preds = %1, %19
  %33 = call i32 @cudaGetLastError()
  call void @_ZN3c104cuda29c10_cuda_check_implementationEiPKcS2_ib(i32 noundef %33, ptr noundef nonnull @.str, ptr noundef nonnull @__func__._ZZZZZZZZZZZZZ13run_flash_fwdI23Flash_fwd_kernel_traitsILi192ELi64ELi64ELi4ELb0ELb0EN7cutlass6half_tE19Flash_kernel_traitsILi192ELi64ELi64ELi4ES2_EELb1ELb0EEvR16Flash_fwd_paramsP11CUstream_stENKUlvE_clEvENKUlvE_clEvENKUlvE_clEvENKUlvE_clEvENKUlvE_clEvENKUlvE_clEvENKUlvE_clEvENKUlvE_clEvENKUlvE_clEvENKUlvE_clEvENKUlvE_clEvENKUlvE_clEv, i32 noundef 89, i1 noundef zeroext true)
  ret void
}

; Function Attrs: inlinehint mustprogress uwtable
define linkonce_odr dso_local void @_ZZZZZZZZZZZZZ13run_flash_fwdI23Flash_fwd_kernel_traitsILi192ELi64ELi64ELi4ELb0ELb0EN7cutlass6half_tE19Flash_kernel_traitsILi192ELi64ELi64ELi4ES2_EELb1ELb0EEvR16Flash_fwd_paramsP11CUstream_stENKUlvE_clEvENKUlvE_clEvENKUlvE_clEvENKUlvE0_clEvENKUlvE_clEvENKUlvE_clEvENKUlvE_clEvENKUlvE_clEvENKUlvE_clEvENKUlvE0_clEvENKUlvE_clEvENKUlvE0_clEv(ptr noundef nonnull align 8 dereferenceable(24) %0) local_unnamed_addr #5 comdat align 2 {
  %2 = alloca %struct.dim3, align 8
  %3 = alloca %struct.dim3, align 8
  %4 = alloca i64, align 8
  %5 = alloca ptr, align 8
  %6 = alloca ptr, align 16
  %7 = alloca %struct.Flash_fwd_params, align 8
  %8 = alloca %struct.Flash_fwd_params, align 8
  %9 = tail call noundef i32 @cudaFuncSetAttribute(ptr noundef nonnull @_Z31__device_stub__flash_fwd_kernelI23Flash_fwd_kernel_traitsILi192ELi64ELi64ELi4ELb0ELb0EN7cutlass6half_tE19Flash_kernel_traitsILi192ELi64ELi64ELi4ES2_EELb1ELb0ELb1ELb0ELb0ELb0ELb0ELb1EEv16Flash_fwd_params, i32 noundef 8, i32 noundef 73728)
  tail call void @_ZN3c104cuda29c10_cuda_check_implementationEiPKcS2_ib(i32 noundef %9, ptr noundef nonnull @.str, ptr noundef nonnull @__func__._ZZZZZZZZZZZZZ13run_flash_fwdI23Flash_fwd_kernel_traitsILi192ELi64ELi64ELi4ELb0ELb0EN7cutlass6half_tE19Flash_kernel_traitsILi192ELi64ELi64ELi4ES2_EELb1ELb0EEvR16Flash_fwd_paramsP11CUstream_stENKUlvE_clEvENKUlvE_clEvENKUlvE_clEvENKUlvE_clEvENKUlvE_clEvENKUlvE_clEvENKUlvE_clEvENKUlvE_clEvENKUlvE_clEvENKUlvE_clEvENKUlvE_clEvENKUlvE_clEv, i32 noundef 82, i1 noundef zeroext true)
  %10 = load ptr, ptr %0, align 8, !tbaa !140
  %11 = load i64, ptr %10, align 4, !tbaa.struct !53
  %12 = getelementptr inbounds i8, ptr %10, i64 8
  %13 = load i32, ptr %12, align 4, !tbaa.struct !55
  %14 = getelementptr inbounds %class.anon.67, ptr %0, i64 0, i32 1
  %15 = load ptr, ptr %14, align 8, !tbaa !142
  %16 = load ptr, ptr %15, align 8, !tbaa !6
  %17 = tail call i32 @__cudaPushCallConfiguration(i64 %11, i32 %13, i64 4294967424, i32 1, i64 noundef 73728, ptr noundef %16)
  %18 = icmp eq i32 %17, 0
  br i1 %18, label %19, label %32

19:                                               ; preds = %1
  %20 = getelementptr inbounds %class.anon.67, ptr %0, i64 0, i32 2
  %21 = load ptr, ptr %20, align 8, !tbaa !143
  call void @llvm.memcpy.p0.p0.i64(ptr noundef nonnull align 8 dereferenceable(464) %8, ptr noundef nonnull align 8 dereferenceable(464) %21, i64 464, i1 false)
  call void @llvm.lifetime.start.p0(i64 464, ptr nonnull %7)
  call void @llvm.lifetime.start.p0(i64 12, ptr nonnull %2)
  call void @llvm.lifetime.start.p0(i64 12, ptr nonnull %3)
  call void @llvm.lifetime.start.p0(i64 8, ptr nonnull %4)
  call void @llvm.lifetime.start.p0(i64 8, ptr nonnull %5)
  call void @llvm.lifetime.start.p0(i64 8, ptr nonnull %6)
  call void @llvm.memcpy.p0.p0.i64(ptr noundef nonnull align 8 dereferenceable(464) %7, ptr noundef nonnull align 8 dereferenceable(464) %8, i64 464, i1 false)
  store ptr %7, ptr %6, align 16
  %22 = call i32 @__cudaPopCallConfiguration(ptr nonnull %2, ptr nonnull %3, ptr nonnull %4, ptr nonnull %5)
  %23 = load i64, ptr %4, align 8
  %24 = load ptr, ptr %5, align 8
  %25 = load i64, ptr %2, align 8
  %26 = getelementptr inbounds i8, ptr %2, i64 8
  %27 = load i32, ptr %26, align 8
  %28 = load i64, ptr %3, align 8
  %29 = getelementptr inbounds i8, ptr %3, i64 8
  %30 = load i32, ptr %29, align 8
  %31 = call noundef i32 @cudaLaunchKernel(ptr noundef nonnull @_Z31__device_stub__flash_fwd_kernelI23Flash_fwd_kernel_traitsILi192ELi64ELi64ELi4ELb0ELb0EN7cutlass6half_tE19Flash_kernel_traitsILi192ELi64ELi64ELi4ES2_EELb1ELb0ELb1ELb0ELb0ELb0ELb0ELb1EEv16Flash_fwd_params, i64 %25, i32 %27, i64 %28, i32 %30, ptr noundef nonnull %6, i64 noundef %23, ptr noundef %24)
  call void @llvm.lifetime.end.p0(i64 464, ptr nonnull %7)
  call void @llvm.lifetime.end.p0(i64 12, ptr nonnull %2)
  call void @llvm.lifetime.end.p0(i64 12, ptr nonnull %3)
  call void @llvm.lifetime.end.p0(i64 8, ptr nonnull %4)
  call void @llvm.lifetime.end.p0(i64 8, ptr nonnull %5)
  call void @llvm.lifetime.end.p0(i64 8, ptr nonnull %6)
  br label %32

32:                                               ; preds = %1, %19
  %33 = call i32 @cudaGetLastError()
  call void @_ZN3c104cuda29c10_cuda_check_implementationEiPKcS2_ib(i32 noundef %33, ptr noundef nonnull @.str, ptr noundef nonnull @__func__._ZZZZZZZZZZZZZ13run_flash_fwdI23Flash_fwd_kernel_traitsILi192ELi64ELi64ELi4ELb0ELb0EN7cutlass6half_tE19Flash_kernel_traitsILi192ELi64ELi64ELi4ES2_EELb1ELb0EEvR16Flash_fwd_paramsP11CUstream_stENKUlvE_clEvENKUlvE_clEvENKUlvE_clEvENKUlvE_clEvENKUlvE_clEvENKUlvE_clEvENKUlvE_clEvENKUlvE_clEvENKUlvE_clEvENKUlvE_clEvENKUlvE_clEvENKUlvE_clEv, i32 noundef 89, i1 noundef zeroext true)
  ret void
}

; Function Attrs: mustprogress norecurse uwtable
define linkonce_odr dso_local void @_Z31__device_stub__flash_fwd_kernelI23Flash_fwd_kernel_traitsILi192ELi64ELi64ELi4ELb0ELb0EN7cutlass6half_tE19Flash_kernel_traitsILi192ELi64ELi64ELi4ES2_EELb0ELb0ELb1ELb0ELb0ELb0ELb1ELb0EEv16Flash_fwd_params(ptr noundef byval(%struct.Flash_fwd_params) align 8 %0) #6 comdat {
  %2 = alloca %struct.dim3, align 8
  %3 = alloca %struct.dim3, align 8
  %4 = alloca i64, align 8
  %5 = alloca ptr, align 8
  %6 = alloca ptr, align 16
  store ptr %0, ptr %6, align 16
  %7 = call i32 @__cudaPopCallConfiguration(ptr nonnull %2, ptr nonnull %3, ptr nonnull %4, ptr nonnull %5)
  %8 = load i64, ptr %4, align 8
  %9 = load ptr, ptr %5, align 8
  %10 = load i64, ptr %2, align 8
  %11 = getelementptr inbounds i8, ptr %2, i64 8
  %12 = load i32, ptr %11, align 8
  %13 = load i64, ptr %3, align 8
  %14 = getelementptr inbounds i8, ptr %3, i64 8
  %15 = load i32, ptr %14, align 8
  %16 = call noundef i32 @cudaLaunchKernel(ptr noundef nonnull @_Z31__device_stub__flash_fwd_kernelI23Flash_fwd_kernel_traitsILi192ELi64ELi64ELi4ELb0ELb0EN7cutlass6half_tE19Flash_kernel_traitsILi192ELi64ELi64ELi4ES2_EELb0ELb0ELb1ELb0ELb0ELb0ELb1ELb0EEv16Flash_fwd_params, i64 %10, i32 %12, i64 %13, i32 %15, ptr noundef nonnull %6, i64 noundef %8, ptr noundef %9)
  ret void
}

; Function Attrs: mustprogress norecurse uwtable
define linkonce_odr dso_local void @_Z31__device_stub__flash_fwd_kernelI23Flash_fwd_kernel_traitsILi192ELi64ELi64ELi4ELb0ELb0EN7cutlass6half_tE19Flash_kernel_traitsILi192ELi64ELi64ELi4ES2_EELb1ELb0ELb1ELb0ELb0ELb0ELb0ELb1EEv16Flash_fwd_params(ptr noundef byval(%struct.Flash_fwd_params) align 8 %0) #6 comdat {
  %2 = alloca %struct.dim3, align 8
  %3 = alloca %struct.dim3, align 8
  %4 = alloca i64, align 8
  %5 = alloca ptr, align 8
  %6 = alloca ptr, align 16
  store ptr %0, ptr %6, align 16
  %7 = call i32 @__cudaPopCallConfiguration(ptr nonnull %2, ptr nonnull %3, ptr nonnull %4, ptr nonnull %5)
  %8 = load i64, ptr %4, align 8
  %9 = load ptr, ptr %5, align 8
  %10 = load i64, ptr %2, align 8
  %11 = getelementptr inbounds i8, ptr %2, i64 8
  %12 = load i32, ptr %11, align 8
  %13 = load i64, ptr %3, align 8
  %14 = getelementptr inbounds i8, ptr %3, i64 8
  %15 = load i32, ptr %14, align 8
  %16 = call noundef i32 @cudaLaunchKernel(ptr noundef nonnull @_Z31__device_stub__flash_fwd_kernelI23Flash_fwd_kernel_traitsILi192ELi64ELi64ELi4ELb0ELb0EN7cutlass6half_tE19Flash_kernel_traitsILi192ELi64ELi64ELi4ES2_EELb1ELb0ELb1ELb0ELb0ELb0ELb0ELb1EEv16Flash_fwd_params, i64 %10, i32 %12, i64 %13, i32 %15, ptr noundef nonnull %6, i64 noundef %8, ptr noundef %9)
  ret void
}

; Function Attrs: inlinehint mustprogress uwtable
define linkonce_odr dso_local void @_ZZZZZZZZZZZZZ13run_flash_fwdI23Flash_fwd_kernel_traitsILi192ELi64ELi64ELi4ELb0ELb0EN7cutlass6half_tE19Flash_kernel_traitsILi192ELi64ELi64ELi4ES2_EELb1ELb0EEvR16Flash_fwd_paramsP11CUstream_stENKUlvE_clEvENKUlvE_clEvENKUlvE_clEvENKUlvE0_clEvENKUlvE_clEvENKUlvE_clEvENKUlvE_clEvENKUlvE0_clEvENKUlvE_clEvENKUlvE_clEvENKUlvE_clEvENKUlvE_clEv(ptr noundef nonnull align 8 dereferenceable(24) %0) local_unnamed_addr #5 comdat align 2 {
  %2 = alloca %struct.dim3, align 8
  %3 = alloca %struct.dim3, align 8
  %4 = alloca i64, align 8
  %5 = alloca ptr, align 8
  %6 = alloca ptr, align 16
  %7 = alloca %struct.Flash_fwd_params, align 8
  %8 = alloca %struct.Flash_fwd_params, align 8
  %9 = tail call noundef i32 @cudaFuncSetAttribute(ptr noundef nonnull @_Z31__device_stub__flash_fwd_kernelI23Flash_fwd_kernel_traitsILi192ELi64ELi64ELi4ELb0ELb0EN7cutlass6half_tE19Flash_kernel_traitsILi192ELi64ELi64ELi4ES2_EELb0ELb0ELb1ELb1ELb0ELb0ELb1ELb0EEv16Flash_fwd_params, i32 noundef 8, i32 noundef 73728)
  tail call void @_ZN3c104cuda29c10_cuda_check_implementationEiPKcS2_ib(i32 noundef %9, ptr noundef nonnull @.str, ptr noundef nonnull @__func__._ZZZZZZZZZZZZZ13run_flash_fwdI23Flash_fwd_kernel_traitsILi192ELi64ELi64ELi4ELb0ELb0EN7cutlass6half_tE19Flash_kernel_traitsILi192ELi64ELi64ELi4ES2_EELb1ELb0EEvR16Flash_fwd_paramsP11CUstream_stENKUlvE_clEvENKUlvE_clEvENKUlvE_clEvENKUlvE_clEvENKUlvE_clEvENKUlvE_clEvENKUlvE_clEvENKUlvE_clEvENKUlvE_clEvENKUlvE_clEvENKUlvE_clEvENKUlvE_clEv, i32 noundef 82, i1 noundef zeroext true)
  %10 = load ptr, ptr %0, align 8, !tbaa !144
  %11 = load i64, ptr %10, align 4, !tbaa.struct !53
  %12 = getelementptr inbounds i8, ptr %10, i64 8
  %13 = load i32, ptr %12, align 4, !tbaa.struct !55
  %14 = getelementptr inbounds %class.anon.72, ptr %0, i64 0, i32 1
  %15 = load ptr, ptr %14, align 8, !tbaa !146
  %16 = load ptr, ptr %15, align 8, !tbaa !6
  %17 = tail call i32 @__cudaPushCallConfiguration(i64 %11, i32 %13, i64 4294967424, i32 1, i64 noundef 73728, ptr noundef %16)
  %18 = icmp eq i32 %17, 0
  br i1 %18, label %19, label %32

19:                                               ; preds = %1
  %20 = getelementptr inbounds %class.anon.72, ptr %0, i64 0, i32 2
  %21 = load ptr, ptr %20, align 8, !tbaa !147
  call void @llvm.memcpy.p0.p0.i64(ptr noundef nonnull align 8 dereferenceable(464) %8, ptr noundef nonnull align 8 dereferenceable(464) %21, i64 464, i1 false)
  call void @llvm.lifetime.start.p0(i64 464, ptr nonnull %7)
  call void @llvm.lifetime.start.p0(i64 12, ptr nonnull %2)
  call void @llvm.lifetime.start.p0(i64 12, ptr nonnull %3)
  call void @llvm.lifetime.start.p0(i64 8, ptr nonnull %4)
  call void @llvm.lifetime.start.p0(i64 8, ptr nonnull %5)
  call void @llvm.lifetime.start.p0(i64 8, ptr nonnull %6)
  call void @llvm.memcpy.p0.p0.i64(ptr noundef nonnull align 8 dereferenceable(464) %7, ptr noundef nonnull align 8 dereferenceable(464) %8, i64 464, i1 false)
  store ptr %7, ptr %6, align 16
  %22 = call i32 @__cudaPopCallConfiguration(ptr nonnull %2, ptr nonnull %3, ptr nonnull %4, ptr nonnull %5)
  %23 = load i64, ptr %4, align 8
  %24 = load ptr, ptr %5, align 8
  %25 = load i64, ptr %2, align 8
  %26 = getelementptr inbounds i8, ptr %2, i64 8
  %27 = load i32, ptr %26, align 8
  %28 = load i64, ptr %3, align 8
  %29 = getelementptr inbounds i8, ptr %3, i64 8
  %30 = load i32, ptr %29, align 8
  %31 = call noundef i32 @cudaLaunchKernel(ptr noundef nonnull @_Z31__device_stub__flash_fwd_kernelI23Flash_fwd_kernel_traitsILi192ELi64ELi64ELi4ELb0ELb0EN7cutlass6half_tE19Flash_kernel_traitsILi192ELi64ELi64ELi4ES2_EELb0ELb0ELb1ELb1ELb0ELb0ELb1ELb0EEv16Flash_fwd_params, i64 %25, i32 %27, i64 %28, i32 %30, ptr noundef nonnull %6, i64 noundef %23, ptr noundef %24)
  call void @llvm.lifetime.end.p0(i64 464, ptr nonnull %7)
  call void @llvm.lifetime.end.p0(i64 12, ptr nonnull %2)
  call void @llvm.lifetime.end.p0(i64 12, ptr nonnull %3)
  call void @llvm.lifetime.end.p0(i64 8, ptr nonnull %4)
  call void @llvm.lifetime.end.p0(i64 8, ptr nonnull %5)
  call void @llvm.lifetime.end.p0(i64 8, ptr nonnull %6)
  br label %32

32:                                               ; preds = %1, %19
  %33 = call i32 @cudaGetLastError()
  call void @_ZN3c104cuda29c10_cuda_check_implementationEiPKcS2_ib(i32 noundef %33, ptr noundef nonnull @.str, ptr noundef nonnull @__func__._ZZZZZZZZZZZZZ13run_flash_fwdI23Flash_fwd_kernel_traitsILi192ELi64ELi64ELi4ELb0ELb0EN7cutlass6half_tE19Flash_kernel_traitsILi192ELi64ELi64ELi4ES2_EELb1ELb0EEvR16Flash_fwd_paramsP11CUstream_stENKUlvE_clEvENKUlvE_clEvENKUlvE_clEvENKUlvE_clEvENKUlvE_clEvENKUlvE_clEvENKUlvE_clEvENKUlvE_clEvENKUlvE_clEvENKUlvE_clEvENKUlvE_clEvENKUlvE_clEv, i32 noundef 89, i1 noundef zeroext true)
  ret void
}

; Function Attrs: inlinehint mustprogress uwtable
define linkonce_odr dso_local void @_ZZZZZZZZZZZZZ13run_flash_fwdI23Flash_fwd_kernel_traitsILi192ELi64ELi64ELi4ELb0ELb0EN7cutlass6half_tE19Flash_kernel_traitsILi192ELi64ELi64ELi4ES2_EELb1ELb0EEvR16Flash_fwd_paramsP11CUstream_stENKUlvE_clEvENKUlvE_clEvENKUlvE_clEvENKUlvE0_clEvENKUlvE_clEvENKUlvE_clEvENKUlvE_clEvENKUlvE0_clEvENKUlvE_clEvENKUlvE_clEvENKUlvE_clEvENKUlvE0_clEv(ptr noundef nonnull align 8 dereferenceable(24) %0) local_unnamed_addr #5 comdat align 2 {
  %2 = alloca %struct.dim3, align 8
  %3 = alloca %struct.dim3, align 8
  %4 = alloca i64, align 8
  %5 = alloca ptr, align 8
  %6 = alloca ptr, align 16
  %7 = alloca %struct.Flash_fwd_params, align 8
  %8 = alloca %struct.Flash_fwd_params, align 8
  %9 = tail call noundef i32 @cudaFuncSetAttribute(ptr noundef nonnull @_Z31__device_stub__flash_fwd_kernelI23Flash_fwd_kernel_traitsILi192ELi64ELi64ELi4ELb0ELb0EN7cutlass6half_tE19Flash_kernel_traitsILi192ELi64ELi64ELi4ES2_EELb1ELb0ELb1ELb1ELb0ELb0ELb0ELb0EEv16Flash_fwd_params, i32 noundef 8, i32 noundef 73728)
  tail call void @_ZN3c104cuda29c10_cuda_check_implementationEiPKcS2_ib(i32 noundef %9, ptr noundef nonnull @.str, ptr noundef nonnull @__func__._ZZZZZZZZZZZZZ13run_flash_fwdI23Flash_fwd_kernel_traitsILi192ELi64ELi64ELi4ELb0ELb0EN7cutlass6half_tE19Flash_kernel_traitsILi192ELi64ELi64ELi4ES2_EELb1ELb0EEvR16Flash_fwd_paramsP11CUstream_stENKUlvE_clEvENKUlvE_clEvENKUlvE_clEvENKUlvE_clEvENKUlvE_clEvENKUlvE_clEvENKUlvE_clEvENKUlvE_clEvENKUlvE_clEvENKUlvE_clEvENKUlvE_clEvENKUlvE_clEv, i32 noundef 82, i1 noundef zeroext true)
  %10 = load ptr, ptr %0, align 8, !tbaa !148
  %11 = load i64, ptr %10, align 4, !tbaa.struct !53
  %12 = getelementptr inbounds i8, ptr %10, i64 8
  %13 = load i32, ptr %12, align 4, !tbaa.struct !55
  %14 = getelementptr inbounds %class.anon.73, ptr %0, i64 0, i32 1
  %15 = load ptr, ptr %14, align 8, !tbaa !150
  %16 = load ptr, ptr %15, align 8, !tbaa !6
  %17 = tail call i32 @__cudaPushCallConfiguration(i64 %11, i32 %13, i64 4294967424, i32 1, i64 noundef 73728, ptr noundef %16)
  %18 = icmp eq i32 %17, 0
  br i1 %18, label %19, label %32

19:                                               ; preds = %1
  %20 = getelementptr inbounds %class.anon.73, ptr %0, i64 0, i32 2
  %21 = load ptr, ptr %20, align 8, !tbaa !151
  call void @llvm.memcpy.p0.p0.i64(ptr noundef nonnull align 8 dereferenceable(464) %8, ptr noundef nonnull align 8 dereferenceable(464) %21, i64 464, i1 false)
  call void @llvm.lifetime.start.p0(i64 464, ptr nonnull %7)
  call void @llvm.lifetime.start.p0(i64 12, ptr nonnull %2)
  call void @llvm.lifetime.start.p0(i64 12, ptr nonnull %3)
  call void @llvm.lifetime.start.p0(i64 8, ptr nonnull %4)
  call void @llvm.lifetime.start.p0(i64 8, ptr nonnull %5)
  call void @llvm.lifetime.start.p0(i64 8, ptr nonnull %6)
  call void @llvm.memcpy.p0.p0.i64(ptr noundef nonnull align 8 dereferenceable(464) %7, ptr noundef nonnull align 8 dereferenceable(464) %8, i64 464, i1 false)
  store ptr %7, ptr %6, align 16
  %22 = call i32 @__cudaPopCallConfiguration(ptr nonnull %2, ptr nonnull %3, ptr nonnull %4, ptr nonnull %5)
  %23 = load i64, ptr %4, align 8
  %24 = load ptr, ptr %5, align 8
  %25 = load i64, ptr %2, align 8
  %26 = getelementptr inbounds i8, ptr %2, i64 8
  %27 = load i32, ptr %26, align 8
  %28 = load i64, ptr %3, align 8
  %29 = getelementptr inbounds i8, ptr %3, i64 8
  %30 = load i32, ptr %29, align 8
  %31 = call noundef i32 @cudaLaunchKernel(ptr noundef nonnull @_Z31__device_stub__flash_fwd_kernelI23Flash_fwd_kernel_traitsILi192ELi64ELi64ELi4ELb0ELb0EN7cutlass6half_tE19Flash_kernel_traitsILi192ELi64ELi64ELi4ES2_EELb1ELb0ELb1ELb1ELb0ELb0ELb0ELb0EEv16Flash_fwd_params, i64 %25, i32 %27, i64 %28, i32 %30, ptr noundef nonnull %6, i64 noundef %23, ptr noundef %24)
  call void @llvm.lifetime.end.p0(i64 464, ptr nonnull %7)
  call void @llvm.lifetime.end.p0(i64 12, ptr nonnull %2)
  call void @llvm.lifetime.end.p0(i64 12, ptr nonnull %3)
  call void @llvm.lifetime.end.p0(i64 8, ptr nonnull %4)
  call void @llvm.lifetime.end.p0(i64 8, ptr nonnull %5)
  call void @llvm.lifetime.end.p0(i64 8, ptr nonnull %6)
  br label %32

32:                                               ; preds = %1, %19
  %33 = call i32 @cudaGetLastError()
  call void @_ZN3c104cuda29c10_cuda_check_implementationEiPKcS2_ib(i32 noundef %33, ptr noundef nonnull @.str, ptr noundef nonnull @__func__._ZZZZZZZZZZZZZ13run_flash_fwdI23Flash_fwd_kernel_traitsILi192ELi64ELi64ELi4ELb0ELb0EN7cutlass6half_tE19Flash_kernel_traitsILi192ELi64ELi64ELi4ES2_EELb1ELb0EEvR16Flash_fwd_paramsP11CUstream_stENKUlvE_clEvENKUlvE_clEvENKUlvE_clEvENKUlvE_clEvENKUlvE_clEvENKUlvE_clEvENKUlvE_clEvENKUlvE_clEvENKUlvE_clEvENKUlvE_clEvENKUlvE_clEvENKUlvE_clEv, i32 noundef 89, i1 noundef zeroext true)
  ret void
}

; Function Attrs: mustprogress norecurse uwtable
define linkonce_odr dso_local void @_Z31__device_stub__flash_fwd_kernelI23Flash_fwd_kernel_traitsILi192ELi64ELi64ELi4ELb0ELb0EN7cutlass6half_tE19Flash_kernel_traitsILi192ELi64ELi64ELi4ES2_EELb1ELb0ELb1ELb1ELb0ELb0ELb0ELb0EEv16Flash_fwd_params(ptr noundef byval(%struct.Flash_fwd_params) align 8 %0) #6 comdat {
  %2 = alloca %struct.dim3, align 8
  %3 = alloca %struct.dim3, align 8
  %4 = alloca i64, align 8
  %5 = alloca ptr, align 8
  %6 = alloca ptr, align 16
  store ptr %0, ptr %6, align 16
  %7 = call i32 @__cudaPopCallConfiguration(ptr nonnull %2, ptr nonnull %3, ptr nonnull %4, ptr nonnull %5)
  %8 = load i64, ptr %4, align 8
  %9 = load ptr, ptr %5, align 8
  %10 = load i64, ptr %2, align 8
  %11 = getelementptr inbounds i8, ptr %2, i64 8
  %12 = load i32, ptr %11, align 8
  %13 = load i64, ptr %3, align 8
  %14 = getelementptr inbounds i8, ptr %3, i64 8
  %15 = load i32, ptr %14, align 8
  %16 = call noundef i32 @cudaLaunchKernel(ptr noundef nonnull @_Z31__device_stub__flash_fwd_kernelI23Flash_fwd_kernel_traitsILi192ELi64ELi64ELi4ELb0ELb0EN7cutlass6half_tE19Flash_kernel_traitsILi192ELi64ELi64ELi4ES2_EELb1ELb0ELb1ELb1ELb0ELb0ELb0ELb0EEv16Flash_fwd_params, i64 %10, i32 %12, i64 %13, i32 %15, ptr noundef nonnull %6, i64 noundef %8, ptr noundef %9)
  ret void
}

; Function Attrs: inlinehint mustprogress uwtable
define linkonce_odr dso_local void @_ZZZZZZZZZZZZZ13run_flash_fwdI23Flash_fwd_kernel_traitsILi192ELi64ELi64ELi4ELb0ELb0EN7cutlass6half_tE19Flash_kernel_traitsILi192ELi64ELi64ELi4ES2_EELb1ELb0EEvR16Flash_fwd_paramsP11CUstream_stENKUlvE_clEvENKUlvE_clEvENKUlvE_clEvENKUlvE0_clEvENKUlvE_clEvENKUlvE_clEvENKUlvE_clEvENKUlvE0_clEvENKUlvE_clEvENKUlvE0_clEvENKUlvE_clEvENKUlvE_clEv(ptr noundef nonnull align 8 dereferenceable(24) %0) local_unnamed_addr #5 comdat align 2 {
  %2 = alloca %struct.dim3, align 8
  %3 = alloca %struct.dim3, align 8
  %4 = alloca i64, align 8
  %5 = alloca ptr, align 8
  %6 = alloca ptr, align 16
  %7 = alloca %struct.Flash_fwd_params, align 8
  %8 = alloca %struct.Flash_fwd_params, align 8
  %9 = tail call noundef i32 @cudaFuncSetAttribute(ptr noundef nonnull @_Z31__device_stub__flash_fwd_kernelI23Flash_fwd_kernel_traitsILi192ELi64ELi64ELi4ELb0ELb0EN7cutlass6half_tE19Flash_kernel_traitsILi192ELi64ELi64ELi4ES2_EELb0ELb0ELb1ELb0ELb0ELb0ELb1ELb0EEv16Flash_fwd_params, i32 noundef 8, i32 noundef 73728)
  tail call void @_ZN3c104cuda29c10_cuda_check_implementationEiPKcS2_ib(i32 noundef %9, ptr noundef nonnull @.str, ptr noundef nonnull @__func__._ZZZZZZZZZZZZZ13run_flash_fwdI23Flash_fwd_kernel_traitsILi192ELi64ELi64ELi4ELb0ELb0EN7cutlass6half_tE19Flash_kernel_traitsILi192ELi64ELi64ELi4ES2_EELb1ELb0EEvR16Flash_fwd_paramsP11CUstream_stENKUlvE_clEvENKUlvE_clEvENKUlvE_clEvENKUlvE_clEvENKUlvE_clEvENKUlvE_clEvENKUlvE_clEvENKUlvE_clEvENKUlvE_clEvENKUlvE_clEvENKUlvE_clEvENKUlvE_clEv, i32 noundef 82, i1 noundef zeroext true)
  %10 = load ptr, ptr %0, align 8, !tbaa !152
  %11 = load i64, ptr %10, align 4, !tbaa.struct !53
  %12 = getelementptr inbounds i8, ptr %10, i64 8
  %13 = load i32, ptr %12, align 4, !tbaa.struct !55
  %14 = getelementptr inbounds %class.anon.75, ptr %0, i64 0, i32 1
  %15 = load ptr, ptr %14, align 8, !tbaa !154
  %16 = load ptr, ptr %15, align 8, !tbaa !6
  %17 = tail call i32 @__cudaPushCallConfiguration(i64 %11, i32 %13, i64 4294967424, i32 1, i64 noundef 73728, ptr noundef %16)
  %18 = icmp eq i32 %17, 0
  br i1 %18, label %19, label %32

19:                                               ; preds = %1
  %20 = getelementptr inbounds %class.anon.75, ptr %0, i64 0, i32 2
  %21 = load ptr, ptr %20, align 8, !tbaa !155
  call void @llvm.memcpy.p0.p0.i64(ptr noundef nonnull align 8 dereferenceable(464) %8, ptr noundef nonnull align 8 dereferenceable(464) %21, i64 464, i1 false)
  call void @llvm.lifetime.start.p0(i64 464, ptr nonnull %7)
  call void @llvm.lifetime.start.p0(i64 12, ptr nonnull %2)
  call void @llvm.lifetime.start.p0(i64 12, ptr nonnull %3)
  call void @llvm.lifetime.start.p0(i64 8, ptr nonnull %4)
  call void @llvm.lifetime.start.p0(i64 8, ptr nonnull %5)
  call void @llvm.lifetime.start.p0(i64 8, ptr nonnull %6)
  call void @llvm.memcpy.p0.p0.i64(ptr noundef nonnull align 8 dereferenceable(464) %7, ptr noundef nonnull align 8 dereferenceable(464) %8, i64 464, i1 false)
  store ptr %7, ptr %6, align 16
  %22 = call i32 @__cudaPopCallConfiguration(ptr nonnull %2, ptr nonnull %3, ptr nonnull %4, ptr nonnull %5)
  %23 = load i64, ptr %4, align 8
  %24 = load ptr, ptr %5, align 8
  %25 = load i64, ptr %2, align 8
  %26 = getelementptr inbounds i8, ptr %2, i64 8
  %27 = load i32, ptr %26, align 8
  %28 = load i64, ptr %3, align 8
  %29 = getelementptr inbounds i8, ptr %3, i64 8
  %30 = load i32, ptr %29, align 8
  %31 = call noundef i32 @cudaLaunchKernel(ptr noundef nonnull @_Z31__device_stub__flash_fwd_kernelI23Flash_fwd_kernel_traitsILi192ELi64ELi64ELi4ELb0ELb0EN7cutlass6half_tE19Flash_kernel_traitsILi192ELi64ELi64ELi4ES2_EELb0ELb0ELb1ELb0ELb0ELb0ELb1ELb0EEv16Flash_fwd_params, i64 %25, i32 %27, i64 %28, i32 %30, ptr noundef nonnull %6, i64 noundef %23, ptr noundef %24)
  call void @llvm.lifetime.end.p0(i64 464, ptr nonnull %7)
  call void @llvm.lifetime.end.p0(i64 12, ptr nonnull %2)
  call void @llvm.lifetime.end.p0(i64 12, ptr nonnull %3)
  call void @llvm.lifetime.end.p0(i64 8, ptr nonnull %4)
  call void @llvm.lifetime.end.p0(i64 8, ptr nonnull %5)
  call void @llvm.lifetime.end.p0(i64 8, ptr nonnull %6)
  br label %32

32:                                               ; preds = %1, %19
